
test.elf:     file format elf64-littleriscv


Disassembly of section .text:

0000000080200000 <_start>:
    80200000:	00000413          	li	s0,0
    80200004:	002a5117          	auipc	sp,0x2a5
    80200008:	ffc10113          	addi	sp,sp,-4 # 804a5000 <_end>
    8020000c:	618010ef          	jal	ra,80201624 <_trm_init>

0000000080200010 <pack>:
    80200010:	fe010113          	addi	sp,sp,-32
    80200014:	00813c23          	sd	s0,24(sp)
    80200018:	02010413          	addi	s0,sp,32
    8020001c:	0029d797          	auipc	a5,0x29d
    80200020:	f2478793          	addi	a5,a5,-220 # 8049cf40 <head>
    80200024:	0007b783          	ld	a5,0(a5)
    80200028:	fef43423          	sd	a5,-24(s0)
    8020002c:	0029d797          	auipc	a5,0x29d
    80200030:	f2478793          	addi	a5,a5,-220 # 8049cf50 <global_index>
    80200034:	0007a783          	lw	a5,0(a5)
    80200038:	0007879b          	sext.w	a5,a5
    8020003c:	0017871b          	addiw	a4,a5,1
    80200040:	0007069b          	sext.w	a3,a4
    80200044:	0029d717          	auipc	a4,0x29d
    80200048:	f0c70713          	addi	a4,a4,-244 # 8049cf50 <global_index>
    8020004c:	00d72023          	sw	a3,0(a4)
    80200050:	02079713          	slli	a4,a5,0x20
    80200054:	02075713          	srli	a4,a4,0x20
    80200058:	00070793          	mv	a5,a4
    8020005c:	00179793          	slli	a5,a5,0x1
    80200060:	00e787b3          	add	a5,a5,a4
    80200064:	00479793          	slli	a5,a5,0x4
    80200068:	00002717          	auipc	a4,0x2
    8020006c:	2e870713          	addi	a4,a4,744 # 80202350 <item>
    80200070:	00e78733          	add	a4,a5,a4
    80200074:	0029d797          	auipc	a5,0x29d
    80200078:	ecc78793          	addi	a5,a5,-308 # 8049cf40 <head>
    8020007c:	00e7b023          	sd	a4,0(a5)
    80200080:	0029d797          	auipc	a5,0x29d
    80200084:	ec078793          	addi	a5,a5,-320 # 8049cf40 <head>
    80200088:	0007b703          	ld	a4,0(a5)
    8020008c:	0029d797          	auipc	a5,0x29d
    80200090:	ebc78793          	addi	a5,a5,-324 # 8049cf48 <pointer>
    80200094:	00e7b023          	sd	a4,0(a5)
    80200098:	0029d797          	auipc	a5,0x29d
    8020009c:	ea878793          	addi	a5,a5,-344 # 8049cf40 <head>
    802000a0:	0007b783          	ld	a5,0(a5)
    802000a4:	00078513          	mv	a0,a5
    802000a8:	01813403          	ld	s0,24(sp)
    802000ac:	02010113          	addi	sp,sp,32
    802000b0:	00008067          	ret

00000000802000b4 <add_a_transaction>:
    802000b4:	ff010113          	addi	sp,sp,-16
    802000b8:	00113423          	sd	ra,8(sp)
    802000bc:	00813023          	sd	s0,0(sp)
    802000c0:	01010413          	addi	s0,sp,16
    802000c4:	0029d797          	auipc	a5,0x29d
    802000c8:	e8478793          	addi	a5,a5,-380 # 8049cf48 <pointer>
    802000cc:	0007b783          	ld	a5,0(a5)
    802000d0:	00002717          	auipc	a4,0x2
    802000d4:	24070713          	addi	a4,a4,576 # 80202310 <public_key>
    802000d8:	00e7b023          	sd	a4,0(a5)
    802000dc:	0029d797          	auipc	a5,0x29d
    802000e0:	e6c78793          	addi	a5,a5,-404 # 8049cf48 <pointer>
    802000e4:	0007b783          	ld	a5,0(a5)
    802000e8:	00002717          	auipc	a4,0x2
    802000ec:	22870713          	addi	a4,a4,552 # 80202310 <public_key>
    802000f0:	00e7b423          	sd	a4,8(a5)
    802000f4:	0029d797          	auipc	a5,0x29d
    802000f8:	e5478793          	addi	a5,a5,-428 # 8049cf48 <pointer>
    802000fc:	0007b783          	ld	a5,0(a5)
    80200100:	00100713          	li	a4,1
    80200104:	00e7b823          	sd	a4,16(a5)
    80200108:	0029d797          	auipc	a5,0x29d
    8020010c:	e4878793          	addi	a5,a5,-440 # 8049cf50 <global_index>
    80200110:	0007a783          	lw	a5,0(a5)
    80200114:	02079793          	slli	a5,a5,0x20
    80200118:	0207d793          	srli	a5,a5,0x20
    8020011c:	00779713          	slli	a4,a5,0x7
    80200120:	00162797          	auipc	a5,0x162
    80200124:	aa078793          	addi	a5,a5,-1376 # 80361bc0 <message>
    80200128:	00f70733          	add	a4,a4,a5
    8020012c:	0029d797          	auipc	a5,0x29d
    80200130:	e2478793          	addi	a5,a5,-476 # 8049cf50 <global_index>
    80200134:	0007a783          	lw	a5,0(a5)
    80200138:	00078613          	mv	a2,a5
    8020013c:	00002597          	auipc	a1,0x2
    80200140:	01c58593          	addi	a1,a1,28 # 80202158 <_etext+0x4>
    80200144:	00070513          	mv	a0,a4
    80200148:	469010ef          	jal	ra,80201db0 <sprintf>
    8020014c:	0029d797          	auipc	a5,0x29d
    80200150:	e0478793          	addi	a5,a5,-508 # 8049cf50 <global_index>
    80200154:	0007a783          	lw	a5,0(a5)
    80200158:	00078713          	mv	a4,a5
    8020015c:	000027b7          	lui	a5,0x2
    80200160:	70d78793          	addi	a5,a5,1805 # 270d <_start-0x801fd8f3>
    80200164:	04e7e463          	bltu	a5,a4,802001ac <add_a_transaction+0xf8>
    80200168:	0029d797          	auipc	a5,0x29d
    8020016c:	de878793          	addi	a5,a5,-536 # 8049cf50 <global_index>
    80200170:	0007a703          	lw	a4,0(a5)
    80200174:	0029d797          	auipc	a5,0x29d
    80200178:	dd478793          	addi	a5,a5,-556 # 8049cf48 <pointer>
    8020017c:	0007b683          	ld	a3,0(a5)
    80200180:	02071713          	slli	a4,a4,0x20
    80200184:	02075713          	srli	a4,a4,0x20
    80200188:	00070793          	mv	a5,a4
    8020018c:	00179793          	slli	a5,a5,0x1
    80200190:	00e787b3          	add	a5,a5,a4
    80200194:	00479793          	slli	a5,a5,0x4
    80200198:	00002717          	auipc	a4,0x2
    8020019c:	1b870713          	addi	a4,a4,440 # 80202350 <item>
    802001a0:	00e787b3          	add	a5,a5,a4
    802001a4:	02f6b423          	sd	a5,40(a3)
    802001a8:	0140006f          	j	802001bc <add_a_transaction+0x108>
    802001ac:	0029d797          	auipc	a5,0x29d
    802001b0:	d9c78793          	addi	a5,a5,-612 # 8049cf48 <pointer>
    802001b4:	0007b783          	ld	a5,0(a5)
    802001b8:	0207b423          	sd	zero,40(a5)
    802001bc:	0029d797          	auipc	a5,0x29d
    802001c0:	d8c78793          	addi	a5,a5,-628 # 8049cf48 <pointer>
    802001c4:	0007b683          	ld	a3,0(a5)
    802001c8:	0029d797          	auipc	a5,0x29d
    802001cc:	d8878793          	addi	a5,a5,-632 # 8049cf50 <global_index>
    802001d0:	0007a783          	lw	a5,0(a5)
    802001d4:	02079793          	slli	a5,a5,0x20
    802001d8:	0207d793          	srli	a5,a5,0x20
    802001dc:	00579713          	slli	a4,a5,0x5
    802001e0:	00114797          	auipc	a5,0x114
    802001e4:	80078793          	addi	a5,a5,-2048 # 803139e0 <hash>
    802001e8:	00f707b3          	add	a5,a4,a5
    802001ec:	00078613          	mv	a2,a5
    802001f0:	00800593          	li	a1,8
    802001f4:	00068513          	mv	a0,a3
    802001f8:	3cc010ef          	jal	ra,802015c4 <sha256>
    802001fc:	0029d797          	auipc	a5,0x29d
    80200200:	d5478793          	addi	a5,a5,-684 # 8049cf50 <global_index>
    80200204:	0007a783          	lw	a5,0(a5)
    80200208:	02079793          	slli	a5,a5,0x20
    8020020c:	0207d793          	srli	a5,a5,0x20
    80200210:	00679713          	slli	a4,a5,0x6
    80200214:	00077797          	auipc	a5,0x77
    80200218:	40c78793          	addi	a5,a5,1036 # 80277620 <sign>
    8020021c:	00f707b3          	add	a5,a4,a5
    80200220:	00078513          	mv	a0,a5
    80200224:	0029d797          	auipc	a5,0x29d
    80200228:	d2c78793          	addi	a5,a5,-724 # 8049cf50 <global_index>
    8020022c:	0007a783          	lw	a5,0(a5)
    80200230:	02079793          	slli	a5,a5,0x20
    80200234:	0207d793          	srli	a5,a5,0x20
    80200238:	00579713          	slli	a4,a5,0x5
    8020023c:	00113797          	auipc	a5,0x113
    80200240:	7a478793          	addi	a5,a5,1956 # 803139e0 <hash>
    80200244:	00f707b3          	add	a5,a4,a5
    80200248:	00078593          	mv	a1,a5
    8020024c:	00000613          	li	a2,0
    80200250:	00100893          	li	a7,1
    80200254:	00000073          	ecall
    80200258:	0029d797          	auipc	a5,0x29d
    8020025c:	cf878793          	addi	a5,a5,-776 # 8049cf50 <global_index>
    80200260:	0007a703          	lw	a4,0(a5)
    80200264:	0029d797          	auipc	a5,0x29d
    80200268:	ce478793          	addi	a5,a5,-796 # 8049cf48 <pointer>
    8020026c:	0007b783          	ld	a5,0(a5)
    80200270:	02071713          	slli	a4,a4,0x20
    80200274:	02075713          	srli	a4,a4,0x20
    80200278:	00671693          	slli	a3,a4,0x6
    8020027c:	00077717          	auipc	a4,0x77
    80200280:	3a470713          	addi	a4,a4,932 # 80277620 <sign>
    80200284:	00e68733          	add	a4,a3,a4
    80200288:	00e7bc23          	sd	a4,24(a5)
    8020028c:	0029d797          	auipc	a5,0x29d
    80200290:	cc478793          	addi	a5,a5,-828 # 8049cf50 <global_index>
    80200294:	0007a783          	lw	a5,0(a5)
    80200298:	0017879b          	addiw	a5,a5,1
    8020029c:	0007871b          	sext.w	a4,a5
    802002a0:	0029d797          	auipc	a5,0x29d
    802002a4:	cb078793          	addi	a5,a5,-848 # 8049cf50 <global_index>
    802002a8:	00e7a023          	sw	a4,0(a5)
    802002ac:	0029d797          	auipc	a5,0x29d
    802002b0:	c9c78793          	addi	a5,a5,-868 # 8049cf48 <pointer>
    802002b4:	0007b783          	ld	a5,0(a5)
    802002b8:	0287b703          	ld	a4,40(a5)
    802002bc:	0029d797          	auipc	a5,0x29d
    802002c0:	c8c78793          	addi	a5,a5,-884 # 8049cf48 <pointer>
    802002c4:	00e7b023          	sd	a4,0(a5)
    802002c8:	00000013          	nop
    802002cc:	00813083          	ld	ra,8(sp)
    802002d0:	00013403          	ld	s0,0(sp)
    802002d4:	01010113          	addi	sp,sp,16
    802002d8:	00008067          	ret

00000000802002dc <main>:
    802002dc:	fc010113          	addi	sp,sp,-64
    802002e0:	02113c23          	sd	ra,56(sp)
    802002e4:	02813823          	sd	s0,48(sp)
    802002e8:	02913423          	sd	s1,40(sp)
    802002ec:	04010413          	addi	s0,sp,64
    802002f0:	fc042e23          	sw	zero,-36(s0)
    802002f4:	3a00006f          	j	80200694 <main+0x3b8>
    802002f8:	dbdff0ef          	jal	ra,802000b4 <add_a_transaction>
    802002fc:	0029d797          	auipc	a5,0x29d
    80200300:	c5478793          	addi	a5,a5,-940 # 8049cf50 <global_index>
    80200304:	0007a783          	lw	a5,0(a5)
    80200308:	00078593          	mv	a1,a5
    8020030c:	00002517          	auipc	a0,0x2
    80200310:	e6450513          	addi	a0,a0,-412 # 80202170 <_etext+0x1c>
    80200314:	778010ef          	jal	ra,80201a8c <printf>
    80200318:	fdc42783          	lw	a5,-36(s0)
    8020031c:	00078713          	mv	a4,a5
    80200320:	06400793          	li	a5,100
    80200324:	02f767bb          	remw	a5,a4,a5
    80200328:	0007879b          	sext.w	a5,a5
    8020032c:	34079e63          	bnez	a5,80200688 <main+0x3ac>
    80200330:	0029d797          	auipc	a5,0x29d
    80200334:	c2478793          	addi	a5,a5,-988 # 8049cf54 <global_block_index>
    80200338:	0007a703          	lw	a4,0(a5)
    8020033c:	0029d797          	auipc	a5,0x29d
    80200340:	c1878793          	addi	a5,a5,-1000 # 8049cf54 <global_block_index>
    80200344:	0007a783          	lw	a5,0(a5)
    80200348:	02071713          	slli	a4,a4,0x20
    8020034c:	02075713          	srli	a4,a4,0x20
    80200350:	0029a697          	auipc	a3,0x29a
    80200354:	ff068693          	addi	a3,a3,-16 # 8049a340 <block>
    80200358:	02079613          	slli	a2,a5,0x20
    8020035c:	02065613          	srli	a2,a2,0x20
    80200360:	05800793          	li	a5,88
    80200364:	02f607b3          	mul	a5,a2,a5
    80200368:	00f687b3          	add	a5,a3,a5
    8020036c:	00e7b023          	sd	a4,0(a5)
    80200370:	0029d797          	auipc	a5,0x29d
    80200374:	be478793          	addi	a5,a5,-1052 # 8049cf54 <global_block_index>
    80200378:	0007a483          	lw	s1,0(a5)
    8020037c:	2d8010ef          	jal	ra,80201654 <get_time>
    80200380:	00050613          	mv	a2,a0
    80200384:	0029a717          	auipc	a4,0x29a
    80200388:	fbc70713          	addi	a4,a4,-68 # 8049a340 <block>
    8020038c:	02049693          	slli	a3,s1,0x20
    80200390:	0206d693          	srli	a3,a3,0x20
    80200394:	05800793          	li	a5,88
    80200398:	02f687b3          	mul	a5,a3,a5
    8020039c:	00f707b3          	add	a5,a4,a5
    802003a0:	04c7b423          	sd	a2,72(a5)
    802003a4:	0029d797          	auipc	a5,0x29d
    802003a8:	bb078793          	addi	a5,a5,-1104 # 8049cf54 <global_block_index>
    802003ac:	0007a483          	lw	s1,0(a5)
    802003b0:	c61ff0ef          	jal	ra,80200010 <pack>
    802003b4:	00050613          	mv	a2,a0
    802003b8:	0029a717          	auipc	a4,0x29a
    802003bc:	f8870713          	addi	a4,a4,-120 # 8049a340 <block>
    802003c0:	02049693          	slli	a3,s1,0x20
    802003c4:	0206d693          	srli	a3,a3,0x20
    802003c8:	05800793          	li	a5,88
    802003cc:	02f687b3          	mul	a5,a3,a5
    802003d0:	00f707b3          	add	a5,a4,a5
    802003d4:	04c7b823          	sd	a2,80(a5)
    802003d8:	0029d797          	auipc	a5,0x29d
    802003dc:	b7c78793          	addi	a5,a5,-1156 # 8049cf54 <global_block_index>
    802003e0:	0007a783          	lw	a5,0(a5)
    802003e4:	06079063          	bnez	a5,80200444 <main+0x168>
    802003e8:	fc042c23          	sw	zero,-40(s0)
    802003ec:	0440006f          	j	80200430 <main+0x154>
    802003f0:	0029d797          	auipc	a5,0x29d
    802003f4:	b6478793          	addi	a5,a5,-1180 # 8049cf54 <global_block_index>
    802003f8:	0007a783          	lw	a5,0(a5)
    802003fc:	0029a697          	auipc	a3,0x29a
    80200400:	f4468693          	addi	a3,a3,-188 # 8049a340 <block>
    80200404:	fd842703          	lw	a4,-40(s0)
    80200408:	02079613          	slli	a2,a5,0x20
    8020040c:	02065613          	srli	a2,a2,0x20
    80200410:	05800793          	li	a5,88
    80200414:	02f607b3          	mul	a5,a2,a5
    80200418:	00f687b3          	add	a5,a3,a5
    8020041c:	00e787b3          	add	a5,a5,a4
    80200420:	02078423          	sb	zero,40(a5)
    80200424:	fd842783          	lw	a5,-40(s0)
    80200428:	0017879b          	addiw	a5,a5,1
    8020042c:	fcf42c23          	sw	a5,-40(s0)
    80200430:	fd842783          	lw	a5,-40(s0)
    80200434:	0007871b          	sext.w	a4,a5
    80200438:	01f00793          	li	a5,31
    8020043c:	fae7dae3          	bge	a5,a4,802003f0 <main+0x114>
    80200440:	0980006f          	j	802004d8 <main+0x1fc>
    80200444:	fc042a23          	sw	zero,-44(s0)
    80200448:	0800006f          	j	802004c8 <main+0x1ec>
    8020044c:	0029d797          	auipc	a5,0x29d
    80200450:	b0878793          	addi	a5,a5,-1272 # 8049cf54 <global_block_index>
    80200454:	0007a783          	lw	a5,0(a5)
    80200458:	fff7879b          	addiw	a5,a5,-1
    8020045c:	0007861b          	sext.w	a2,a5
    80200460:	0029d797          	auipc	a5,0x29d
    80200464:	af478793          	addi	a5,a5,-1292 # 8049cf54 <global_block_index>
    80200468:	0007a583          	lw	a1,0(a5)
    8020046c:	0029a697          	auipc	a3,0x29a
    80200470:	ed468693          	addi	a3,a3,-300 # 8049a340 <block>
    80200474:	fd442703          	lw	a4,-44(s0)
    80200478:	02061613          	slli	a2,a2,0x20
    8020047c:	02065613          	srli	a2,a2,0x20
    80200480:	05800793          	li	a5,88
    80200484:	02f607b3          	mul	a5,a2,a5
    80200488:	00f687b3          	add	a5,a3,a5
    8020048c:	00e787b3          	add	a5,a5,a4
    80200490:	0087c703          	lbu	a4,8(a5)
    80200494:	0029a617          	auipc	a2,0x29a
    80200498:	eac60613          	addi	a2,a2,-340 # 8049a340 <block>
    8020049c:	fd442683          	lw	a3,-44(s0)
    802004a0:	02059593          	slli	a1,a1,0x20
    802004a4:	0205d593          	srli	a1,a1,0x20
    802004a8:	05800793          	li	a5,88
    802004ac:	02f587b3          	mul	a5,a1,a5
    802004b0:	00f607b3          	add	a5,a2,a5
    802004b4:	00d787b3          	add	a5,a5,a3
    802004b8:	02e78423          	sb	a4,40(a5)
    802004bc:	fd442783          	lw	a5,-44(s0)
    802004c0:	0017879b          	addiw	a5,a5,1
    802004c4:	fcf42a23          	sw	a5,-44(s0)
    802004c8:	fd442783          	lw	a5,-44(s0)
    802004cc:	0007871b          	sext.w	a4,a5
    802004d0:	01f00793          	li	a5,31
    802004d4:	f6e7dce3          	bge	a5,a4,8020044c <main+0x170>
    802004d8:	0029d797          	auipc	a5,0x29d
    802004dc:	a7c78793          	addi	a5,a5,-1412 # 8049cf54 <global_block_index>
    802004e0:	0007a783          	lw	a5,0(a5)
    802004e4:	02079713          	slli	a4,a5,0x20
    802004e8:	02075713          	srli	a4,a4,0x20
    802004ec:	05800793          	li	a5,88
    802004f0:	02f70733          	mul	a4,a4,a5
    802004f4:	0029a797          	auipc	a5,0x29a
    802004f8:	e4c78793          	addi	a5,a5,-436 # 8049a340 <block>
    802004fc:	00f706b3          	add	a3,a4,a5
    80200500:	0029d797          	auipc	a5,0x29d
    80200504:	a5478793          	addi	a5,a5,-1452 # 8049cf54 <global_block_index>
    80200508:	0007a783          	lw	a5,0(a5)
    8020050c:	02079713          	slli	a4,a5,0x20
    80200510:	02075713          	srli	a4,a4,0x20
    80200514:	05800793          	li	a5,88
    80200518:	02f70733          	mul	a4,a4,a5
    8020051c:	0029a797          	auipc	a5,0x29a
    80200520:	e2478793          	addi	a5,a5,-476 # 8049a340 <block>
    80200524:	00f707b3          	add	a5,a4,a5
    80200528:	00878793          	addi	a5,a5,8
    8020052c:	00078613          	mv	a2,a5
    80200530:	000037b7          	lui	a5,0x3
    80200534:	c0078593          	addi	a1,a5,-1024 # 2c00 <_start-0x801fd400>
    80200538:	00068513          	mv	a0,a3
    8020053c:	088010ef          	jal	ra,802015c4 <sha256>
    80200540:	114010ef          	jal	ra,80201654 <get_time>
    80200544:	00050793          	mv	a5,a0
    80200548:	fcf42823          	sw	a5,-48(s0)
    8020054c:	01c0006f          	j	80200568 <main+0x28c>
    80200550:	104010ef          	jal	ra,80201654 <get_time>
    80200554:	00050793          	mv	a5,a0
    80200558:	fcf42823          	sw	a5,-48(s0)
    8020055c:	00002517          	auipc	a0,0x2
    80200560:	c3c50513          	addi	a0,a0,-964 # 80202198 <_etext+0x44>
    80200564:	528010ef          	jal	ra,80201a8c <printf>
    80200568:	0029d797          	auipc	a5,0x29d
    8020056c:	9ec78793          	addi	a5,a5,-1556 # 8049cf54 <global_block_index>
    80200570:	0007a783          	lw	a5,0(a5)
    80200574:	0029a717          	auipc	a4,0x29a
    80200578:	dcc70713          	addi	a4,a4,-564 # 8049a340 <block>
    8020057c:	02079693          	slli	a3,a5,0x20
    80200580:	0206d693          	srli	a3,a3,0x20
    80200584:	05800793          	li	a5,88
    80200588:	02f687b3          	mul	a5,a3,a5
    8020058c:	00f707b3          	add	a5,a4,a5
    80200590:	0087c783          	lbu	a5,8(a5)
    80200594:	0007879b          	sext.w	a5,a5
    80200598:	fd042703          	lw	a4,-48(s0)
    8020059c:	02f767bb          	remw	a5,a4,a5
    802005a0:	0007879b          	sext.w	a5,a5
    802005a4:	00078713          	mv	a4,a5
    802005a8:	00300793          	li	a5,3
    802005ac:	fae7c2e3          	blt	a5,a4,80200550 <main+0x274>
    802005b0:	00002517          	auipc	a0,0x2
    802005b4:	bf050513          	addi	a0,a0,-1040 # 802021a0 <_etext+0x4c>
    802005b8:	4d4010ef          	jal	ra,80201a8c <printf>
    802005bc:	00002517          	auipc	a0,0x2
    802005c0:	bfc50513          	addi	a0,a0,-1028 # 802021b8 <_etext+0x64>
    802005c4:	4c8010ef          	jal	ra,80201a8c <printf>
    802005c8:	0029d797          	auipc	a5,0x29d
    802005cc:	98c78793          	addi	a5,a5,-1652 # 8049cf54 <global_block_index>
    802005d0:	0007a583          	lw	a1,0(a5)
    802005d4:	0029d797          	auipc	a5,0x29d
    802005d8:	98078793          	addi	a5,a5,-1664 # 8049cf54 <global_block_index>
    802005dc:	0007a783          	lw	a5,0(a5)
    802005e0:	0029a717          	auipc	a4,0x29a
    802005e4:	d6070713          	addi	a4,a4,-672 # 8049a340 <block>
    802005e8:	02079693          	slli	a3,a5,0x20
    802005ec:	0206d693          	srli	a3,a3,0x20
    802005f0:	05800793          	li	a5,88
    802005f4:	02f687b3          	mul	a5,a3,a5
    802005f8:	00f707b3          	add	a5,a4,a5
    802005fc:	0487b783          	ld	a5,72(a5)
    80200600:	00078613          	mv	a2,a5
    80200604:	00002517          	auipc	a0,0x2
    80200608:	bcc50513          	addi	a0,a0,-1076 # 802021d0 <_etext+0x7c>
    8020060c:	480010ef          	jal	ra,80201a8c <printf>
    80200610:	fc042623          	sw	zero,-52(s0)
    80200614:	0580006f          	j	8020066c <main+0x390>
    80200618:	0029d797          	auipc	a5,0x29d
    8020061c:	93c78793          	addi	a5,a5,-1732 # 8049cf54 <global_block_index>
    80200620:	0007a783          	lw	a5,0(a5)
    80200624:	0029a697          	auipc	a3,0x29a
    80200628:	d1c68693          	addi	a3,a3,-740 # 8049a340 <block>
    8020062c:	fcc42703          	lw	a4,-52(s0)
    80200630:	02079613          	slli	a2,a5,0x20
    80200634:	02065613          	srli	a2,a2,0x20
    80200638:	05800793          	li	a5,88
    8020063c:	02f607b3          	mul	a5,a2,a5
    80200640:	00f687b3          	add	a5,a3,a5
    80200644:	00e787b3          	add	a5,a5,a4
    80200648:	0087c783          	lbu	a5,8(a5)
    8020064c:	0007879b          	sext.w	a5,a5
    80200650:	00078593          	mv	a1,a5
    80200654:	00002517          	auipc	a0,0x2
    80200658:	b9450513          	addi	a0,a0,-1132 # 802021e8 <_etext+0x94>
    8020065c:	430010ef          	jal	ra,80201a8c <printf>
    80200660:	fcc42783          	lw	a5,-52(s0)
    80200664:	0017879b          	addiw	a5,a5,1
    80200668:	fcf42623          	sw	a5,-52(s0)
    8020066c:	fcc42783          	lw	a5,-52(s0)
    80200670:	0007871b          	sext.w	a4,a5
    80200674:	01f00793          	li	a5,31
    80200678:	fae7d0e3          	bge	a5,a4,80200618 <main+0x33c>
    8020067c:	00002517          	auipc	a0,0x2
    80200680:	b7450513          	addi	a0,a0,-1164 # 802021f0 <_etext+0x9c>
    80200684:	408010ef          	jal	ra,80201a8c <printf>
    80200688:	fdc42783          	lw	a5,-36(s0)
    8020068c:	0017879b          	addiw	a5,a5,1
    80200690:	fcf42e23          	sw	a5,-36(s0)
    80200694:	fdc42783          	lw	a5,-36(s0)
    80200698:	0007871b          	sext.w	a4,a5
    8020069c:	000027b7          	lui	a5,0x2
    802006a0:	70e78793          	addi	a5,a5,1806 # 270e <_start-0x801fd8f2>
    802006a4:	c4e7dae3          	bge	a5,a4,802002f8 <main+0x1c>
    802006a8:	00000013          	nop
    802006ac:	00078513          	mv	a0,a5
    802006b0:	03813083          	ld	ra,56(sp)
    802006b4:	03013403          	ld	s0,48(sp)
    802006b8:	02813483          	ld	s1,40(sp)
    802006bc:	04010113          	addi	sp,sp,64
    802006c0:	00008067          	ret

00000000802006c4 <_shb>:
    802006c4:	fe010113          	addi	sp,sp,-32
    802006c8:	00813c23          	sd	s0,24(sp)
    802006cc:	02010413          	addi	s0,sp,32
    802006d0:	00050793          	mv	a5,a0
    802006d4:	00058713          	mv	a4,a1
    802006d8:	fef42623          	sw	a5,-20(s0)
    802006dc:	00070793          	mv	a5,a4
    802006e0:	fef42423          	sw	a5,-24(s0)
    802006e4:	fe842783          	lw	a5,-24(s0)
    802006e8:	01f7f793          	andi	a5,a5,31
    802006ec:	0007879b          	sext.w	a5,a5
    802006f0:	fec42703          	lw	a4,-20(s0)
    802006f4:	00f757bb          	srlw	a5,a4,a5
    802006f8:	0007879b          	sext.w	a5,a5
    802006fc:	0ff7f793          	zext.b	a5,a5
    80200700:	00078513          	mv	a0,a5
    80200704:	01813403          	ld	s0,24(sp)
    80200708:	02010113          	addi	sp,sp,32
    8020070c:	00008067          	ret

0000000080200710 <_shw>:
    80200710:	fe010113          	addi	sp,sp,-32
    80200714:	00813c23          	sd	s0,24(sp)
    80200718:	02010413          	addi	s0,sp,32
    8020071c:	00050793          	mv	a5,a0
    80200720:	00058713          	mv	a4,a1
    80200724:	fef42623          	sw	a5,-20(s0)
    80200728:	00070793          	mv	a5,a4
    8020072c:	fef42423          	sw	a5,-24(s0)
    80200730:	fe842783          	lw	a5,-24(s0)
    80200734:	01f7f793          	andi	a5,a5,31
    80200738:	0007879b          	sext.w	a5,a5
    8020073c:	fec42703          	lw	a4,-20(s0)
    80200740:	00f717bb          	sllw	a5,a4,a5
    80200744:	0007879b          	sext.w	a5,a5
    80200748:	00078513          	mv	a0,a5
    8020074c:	01813403          	ld	s0,24(sp)
    80200750:	02010113          	addi	sp,sp,32
    80200754:	00008067          	ret

0000000080200758 <_r>:
    80200758:	fd010113          	addi	sp,sp,-48
    8020075c:	02113423          	sd	ra,40(sp)
    80200760:	02813023          	sd	s0,32(sp)
    80200764:	00913c23          	sd	s1,24(sp)
    80200768:	03010413          	addi	s0,sp,48
    8020076c:	00050793          	mv	a5,a0
    80200770:	00058713          	mv	a4,a1
    80200774:	fcf42e23          	sw	a5,-36(s0)
    80200778:	00070793          	mv	a5,a4
    8020077c:	fcf40da3          	sb	a5,-37(s0)
    80200780:	fdb44783          	lbu	a5,-37(s0)
    80200784:	0007879b          	sext.w	a5,a5
    80200788:	fdc42703          	lw	a4,-36(s0)
    8020078c:	00f757bb          	srlw	a5,a4,a5
    80200790:	0007849b          	sext.w	s1,a5
    80200794:	fdb44783          	lbu	a5,-37(s0)
    80200798:	0007879b          	sext.w	a5,a5
    8020079c:	02000713          	li	a4,32
    802007a0:	40f707bb          	subw	a5,a4,a5
    802007a4:	0007879b          	sext.w	a5,a5
    802007a8:	0007871b          	sext.w	a4,a5
    802007ac:	fdc42783          	lw	a5,-36(s0)
    802007b0:	00070593          	mv	a1,a4
    802007b4:	00078513          	mv	a0,a5
    802007b8:	f59ff0ef          	jal	ra,80200710 <_shw>
    802007bc:	00050793          	mv	a5,a0
    802007c0:	0007879b          	sext.w	a5,a5
    802007c4:	00048713          	mv	a4,s1
    802007c8:	00f767b3          	or	a5,a4,a5
    802007cc:	0007879b          	sext.w	a5,a5
    802007d0:	00078513          	mv	a0,a5
    802007d4:	02813083          	ld	ra,40(sp)
    802007d8:	02013403          	ld	s0,32(sp)
    802007dc:	01813483          	ld	s1,24(sp)
    802007e0:	03010113          	addi	sp,sp,48
    802007e4:	00008067          	ret

00000000802007e8 <_Ch>:
    802007e8:	fe010113          	addi	sp,sp,-32
    802007ec:	00813c23          	sd	s0,24(sp)
    802007f0:	02010413          	addi	s0,sp,32
    802007f4:	00050793          	mv	a5,a0
    802007f8:	00058693          	mv	a3,a1
    802007fc:	00060713          	mv	a4,a2
    80200800:	fef42623          	sw	a5,-20(s0)
    80200804:	00068793          	mv	a5,a3
    80200808:	fef42423          	sw	a5,-24(s0)
    8020080c:	00070793          	mv	a5,a4
    80200810:	fef42223          	sw	a5,-28(s0)
    80200814:	fec42783          	lw	a5,-20(s0)
    80200818:	00078713          	mv	a4,a5
    8020081c:	fe842783          	lw	a5,-24(s0)
    80200820:	00f777b3          	and	a5,a4,a5
    80200824:	0007871b          	sext.w	a4,a5
    80200828:	fec42783          	lw	a5,-20(s0)
    8020082c:	fff7c793          	not	a5,a5
    80200830:	0007879b          	sext.w	a5,a5
    80200834:	fe442683          	lw	a3,-28(s0)
    80200838:	00f6f7b3          	and	a5,a3,a5
    8020083c:	0007879b          	sext.w	a5,a5
    80200840:	00f747b3          	xor	a5,a4,a5
    80200844:	0007879b          	sext.w	a5,a5
    80200848:	00078513          	mv	a0,a5
    8020084c:	01813403          	ld	s0,24(sp)
    80200850:	02010113          	addi	sp,sp,32
    80200854:	00008067          	ret

0000000080200858 <_Ma>:
    80200858:	fe010113          	addi	sp,sp,-32
    8020085c:	00813c23          	sd	s0,24(sp)
    80200860:	02010413          	addi	s0,sp,32
    80200864:	00050793          	mv	a5,a0
    80200868:	00058693          	mv	a3,a1
    8020086c:	00060713          	mv	a4,a2
    80200870:	fef42623          	sw	a5,-20(s0)
    80200874:	00068793          	mv	a5,a3
    80200878:	fef42423          	sw	a5,-24(s0)
    8020087c:	00070793          	mv	a5,a4
    80200880:	fef42223          	sw	a5,-28(s0)
    80200884:	fe842783          	lw	a5,-24(s0)
    80200888:	00078713          	mv	a4,a5
    8020088c:	fe442783          	lw	a5,-28(s0)
    80200890:	00f747b3          	xor	a5,a4,a5
    80200894:	0007879b          	sext.w	a5,a5
    80200898:	fec42703          	lw	a4,-20(s0)
    8020089c:	00f777b3          	and	a5,a4,a5
    802008a0:	0007871b          	sext.w	a4,a5
    802008a4:	fe842783          	lw	a5,-24(s0)
    802008a8:	00078693          	mv	a3,a5
    802008ac:	fe442783          	lw	a5,-28(s0)
    802008b0:	00f6f7b3          	and	a5,a3,a5
    802008b4:	0007879b          	sext.w	a5,a5
    802008b8:	00f747b3          	xor	a5,a4,a5
    802008bc:	0007879b          	sext.w	a5,a5
    802008c0:	00078513          	mv	a0,a5
    802008c4:	01813403          	ld	s0,24(sp)
    802008c8:	02010113          	addi	sp,sp,32
    802008cc:	00008067          	ret

00000000802008d0 <_S0>:
    802008d0:	fd010113          	addi	sp,sp,-48
    802008d4:	02113423          	sd	ra,40(sp)
    802008d8:	02813023          	sd	s0,32(sp)
    802008dc:	00913c23          	sd	s1,24(sp)
    802008e0:	03010413          	addi	s0,sp,48
    802008e4:	00050793          	mv	a5,a0
    802008e8:	fcf42e23          	sw	a5,-36(s0)
    802008ec:	fdc42783          	lw	a5,-36(s0)
    802008f0:	00200593          	li	a1,2
    802008f4:	00078513          	mv	a0,a5
    802008f8:	e61ff0ef          	jal	ra,80200758 <_r>
    802008fc:	00050793          	mv	a5,a0
    80200900:	0007849b          	sext.w	s1,a5
    80200904:	fdc42783          	lw	a5,-36(s0)
    80200908:	00d00593          	li	a1,13
    8020090c:	00078513          	mv	a0,a5
    80200910:	e49ff0ef          	jal	ra,80200758 <_r>
    80200914:	00050793          	mv	a5,a0
    80200918:	0007879b          	sext.w	a5,a5
    8020091c:	00048713          	mv	a4,s1
    80200920:	00f747b3          	xor	a5,a4,a5
    80200924:	0007849b          	sext.w	s1,a5
    80200928:	fdc42783          	lw	a5,-36(s0)
    8020092c:	01600593          	li	a1,22
    80200930:	00078513          	mv	a0,a5
    80200934:	e25ff0ef          	jal	ra,80200758 <_r>
    80200938:	00050793          	mv	a5,a0
    8020093c:	0007879b          	sext.w	a5,a5
    80200940:	00048713          	mv	a4,s1
    80200944:	00f747b3          	xor	a5,a4,a5
    80200948:	0007879b          	sext.w	a5,a5
    8020094c:	00078513          	mv	a0,a5
    80200950:	02813083          	ld	ra,40(sp)
    80200954:	02013403          	ld	s0,32(sp)
    80200958:	01813483          	ld	s1,24(sp)
    8020095c:	03010113          	addi	sp,sp,48
    80200960:	00008067          	ret

0000000080200964 <_S1>:
    80200964:	fd010113          	addi	sp,sp,-48
    80200968:	02113423          	sd	ra,40(sp)
    8020096c:	02813023          	sd	s0,32(sp)
    80200970:	00913c23          	sd	s1,24(sp)
    80200974:	03010413          	addi	s0,sp,48
    80200978:	00050793          	mv	a5,a0
    8020097c:	fcf42e23          	sw	a5,-36(s0)
    80200980:	fdc42783          	lw	a5,-36(s0)
    80200984:	00600593          	li	a1,6
    80200988:	00078513          	mv	a0,a5
    8020098c:	dcdff0ef          	jal	ra,80200758 <_r>
    80200990:	00050793          	mv	a5,a0
    80200994:	0007849b          	sext.w	s1,a5
    80200998:	fdc42783          	lw	a5,-36(s0)
    8020099c:	00b00593          	li	a1,11
    802009a0:	00078513          	mv	a0,a5
    802009a4:	db5ff0ef          	jal	ra,80200758 <_r>
    802009a8:	00050793          	mv	a5,a0
    802009ac:	0007879b          	sext.w	a5,a5
    802009b0:	00048713          	mv	a4,s1
    802009b4:	00f747b3          	xor	a5,a4,a5
    802009b8:	0007849b          	sext.w	s1,a5
    802009bc:	fdc42783          	lw	a5,-36(s0)
    802009c0:	01900593          	li	a1,25
    802009c4:	00078513          	mv	a0,a5
    802009c8:	d91ff0ef          	jal	ra,80200758 <_r>
    802009cc:	00050793          	mv	a5,a0
    802009d0:	0007879b          	sext.w	a5,a5
    802009d4:	00048713          	mv	a4,s1
    802009d8:	00f747b3          	xor	a5,a4,a5
    802009dc:	0007879b          	sext.w	a5,a5
    802009e0:	00078513          	mv	a0,a5
    802009e4:	02813083          	ld	ra,40(sp)
    802009e8:	02013403          	ld	s0,32(sp)
    802009ec:	01813483          	ld	s1,24(sp)
    802009f0:	03010113          	addi	sp,sp,48
    802009f4:	00008067          	ret

00000000802009f8 <_G0>:
    802009f8:	fd010113          	addi	sp,sp,-48
    802009fc:	02113423          	sd	ra,40(sp)
    80200a00:	02813023          	sd	s0,32(sp)
    80200a04:	00913c23          	sd	s1,24(sp)
    80200a08:	03010413          	addi	s0,sp,48
    80200a0c:	00050793          	mv	a5,a0
    80200a10:	fcf42e23          	sw	a5,-36(s0)
    80200a14:	fdc42783          	lw	a5,-36(s0)
    80200a18:	00700593          	li	a1,7
    80200a1c:	00078513          	mv	a0,a5
    80200a20:	d39ff0ef          	jal	ra,80200758 <_r>
    80200a24:	00050793          	mv	a5,a0
    80200a28:	0007849b          	sext.w	s1,a5
    80200a2c:	fdc42783          	lw	a5,-36(s0)
    80200a30:	01200593          	li	a1,18
    80200a34:	00078513          	mv	a0,a5
    80200a38:	d21ff0ef          	jal	ra,80200758 <_r>
    80200a3c:	00050793          	mv	a5,a0
    80200a40:	0007879b          	sext.w	a5,a5
    80200a44:	00048713          	mv	a4,s1
    80200a48:	00f747b3          	xor	a5,a4,a5
    80200a4c:	0007871b          	sext.w	a4,a5
    80200a50:	fdc42783          	lw	a5,-36(s0)
    80200a54:	0037d79b          	srliw	a5,a5,0x3
    80200a58:	0007879b          	sext.w	a5,a5
    80200a5c:	00f747b3          	xor	a5,a4,a5
    80200a60:	0007879b          	sext.w	a5,a5
    80200a64:	00078513          	mv	a0,a5
    80200a68:	02813083          	ld	ra,40(sp)
    80200a6c:	02013403          	ld	s0,32(sp)
    80200a70:	01813483          	ld	s1,24(sp)
    80200a74:	03010113          	addi	sp,sp,48
    80200a78:	00008067          	ret

0000000080200a7c <_G1>:
    80200a7c:	fd010113          	addi	sp,sp,-48
    80200a80:	02113423          	sd	ra,40(sp)
    80200a84:	02813023          	sd	s0,32(sp)
    80200a88:	00913c23          	sd	s1,24(sp)
    80200a8c:	03010413          	addi	s0,sp,48
    80200a90:	00050793          	mv	a5,a0
    80200a94:	fcf42e23          	sw	a5,-36(s0)
    80200a98:	fdc42783          	lw	a5,-36(s0)
    80200a9c:	01100593          	li	a1,17
    80200aa0:	00078513          	mv	a0,a5
    80200aa4:	cb5ff0ef          	jal	ra,80200758 <_r>
    80200aa8:	00050793          	mv	a5,a0
    80200aac:	0007849b          	sext.w	s1,a5
    80200ab0:	fdc42783          	lw	a5,-36(s0)
    80200ab4:	01300593          	li	a1,19
    80200ab8:	00078513          	mv	a0,a5
    80200abc:	c9dff0ef          	jal	ra,80200758 <_r>
    80200ac0:	00050793          	mv	a5,a0
    80200ac4:	0007879b          	sext.w	a5,a5
    80200ac8:	00048713          	mv	a4,s1
    80200acc:	00f747b3          	xor	a5,a4,a5
    80200ad0:	0007871b          	sext.w	a4,a5
    80200ad4:	fdc42783          	lw	a5,-36(s0)
    80200ad8:	00a7d79b          	srliw	a5,a5,0xa
    80200adc:	0007879b          	sext.w	a5,a5
    80200ae0:	00f747b3          	xor	a5,a4,a5
    80200ae4:	0007879b          	sext.w	a5,a5
    80200ae8:	00078513          	mv	a0,a5
    80200aec:	02813083          	ld	ra,40(sp)
    80200af0:	02013403          	ld	s0,32(sp)
    80200af4:	01813483          	ld	s1,24(sp)
    80200af8:	03010113          	addi	sp,sp,48
    80200afc:	00008067          	ret

0000000080200b00 <_word>:
    80200b00:	fd010113          	addi	sp,sp,-48
    80200b04:	02113423          	sd	ra,40(sp)
    80200b08:	02813023          	sd	s0,32(sp)
    80200b0c:	00913c23          	sd	s1,24(sp)
    80200b10:	03010413          	addi	s0,sp,48
    80200b14:	fca43c23          	sd	a0,-40(s0)
    80200b18:	fd843783          	ld	a5,-40(s0)
    80200b1c:	0007c783          	lbu	a5,0(a5)
    80200b20:	0007879b          	sext.w	a5,a5
    80200b24:	01800593          	li	a1,24
    80200b28:	00078513          	mv	a0,a5
    80200b2c:	be5ff0ef          	jal	ra,80200710 <_shw>
    80200b30:	00050793          	mv	a5,a0
    80200b34:	0007849b          	sext.w	s1,a5
    80200b38:	fd843783          	ld	a5,-40(s0)
    80200b3c:	00178793          	addi	a5,a5,1
    80200b40:	0007c783          	lbu	a5,0(a5)
    80200b44:	0007879b          	sext.w	a5,a5
    80200b48:	01000593          	li	a1,16
    80200b4c:	00078513          	mv	a0,a5
    80200b50:	bc1ff0ef          	jal	ra,80200710 <_shw>
    80200b54:	00050793          	mv	a5,a0
    80200b58:	0007879b          	sext.w	a5,a5
    80200b5c:	00048713          	mv	a4,s1
    80200b60:	00f767b3          	or	a5,a4,a5
    80200b64:	0007849b          	sext.w	s1,a5
    80200b68:	fd843783          	ld	a5,-40(s0)
    80200b6c:	00278793          	addi	a5,a5,2
    80200b70:	0007c783          	lbu	a5,0(a5)
    80200b74:	0007879b          	sext.w	a5,a5
    80200b78:	00800593          	li	a1,8
    80200b7c:	00078513          	mv	a0,a5
    80200b80:	b91ff0ef          	jal	ra,80200710 <_shw>
    80200b84:	00050793          	mv	a5,a0
    80200b88:	0007879b          	sext.w	a5,a5
    80200b8c:	00048713          	mv	a4,s1
    80200b90:	00f767b3          	or	a5,a4,a5
    80200b94:	0007871b          	sext.w	a4,a5
    80200b98:	fd843783          	ld	a5,-40(s0)
    80200b9c:	00378793          	addi	a5,a5,3
    80200ba0:	0007c783          	lbu	a5,0(a5)
    80200ba4:	0007879b          	sext.w	a5,a5
    80200ba8:	00f767b3          	or	a5,a4,a5
    80200bac:	0007879b          	sext.w	a5,a5
    80200bb0:	00078513          	mv	a0,a5
    80200bb4:	02813083          	ld	ra,40(sp)
    80200bb8:	02013403          	ld	s0,32(sp)
    80200bbc:	01813483          	ld	s1,24(sp)
    80200bc0:	03010113          	addi	sp,sp,48
    80200bc4:	00008067          	ret

0000000080200bc8 <_addbits>:
    80200bc8:	fe010113          	addi	sp,sp,-32
    80200bcc:	00813c23          	sd	s0,24(sp)
    80200bd0:	02010413          	addi	s0,sp,32
    80200bd4:	fea43423          	sd	a0,-24(s0)
    80200bd8:	00058793          	mv	a5,a1
    80200bdc:	fef42223          	sw	a5,-28(s0)
    80200be0:	fe843783          	ld	a5,-24(s0)
    80200be4:	0607a703          	lw	a4,96(a5)
    80200be8:	fe442783          	lw	a5,-28(s0)
    80200bec:	fff7c793          	not	a5,a5
    80200bf0:	0007879b          	sext.w	a5,a5
    80200bf4:	00e7fe63          	bgeu	a5,a4,80200c10 <_addbits+0x48>
    80200bf8:	fe843783          	ld	a5,-24(s0)
    80200bfc:	0647a783          	lw	a5,100(a5)
    80200c00:	0017879b          	addiw	a5,a5,1
    80200c04:	0007871b          	sext.w	a4,a5
    80200c08:	fe843783          	ld	a5,-24(s0)
    80200c0c:	06e7a223          	sw	a4,100(a5)
    80200c10:	fe843783          	ld	a5,-24(s0)
    80200c14:	0607a783          	lw	a5,96(a5)
    80200c18:	fe442703          	lw	a4,-28(s0)
    80200c1c:	00f707bb          	addw	a5,a4,a5
    80200c20:	0007871b          	sext.w	a4,a5
    80200c24:	fe843783          	ld	a5,-24(s0)
    80200c28:	06e7a023          	sw	a4,96(a5)
    80200c2c:	00000013          	nop
    80200c30:	01813403          	ld	s0,24(sp)
    80200c34:	02010113          	addi	sp,sp,32
    80200c38:	00008067          	ret

0000000080200c3c <_hash>:
    80200c3c:	f8010113          	addi	sp,sp,-128
    80200c40:	06113c23          	sd	ra,120(sp)
    80200c44:	06813823          	sd	s0,112(sp)
    80200c48:	06913423          	sd	s1,104(sp)
    80200c4c:	07213023          	sd	s2,96(sp)
    80200c50:	05313c23          	sd	s3,88(sp)
    80200c54:	05413823          	sd	s4,80(sp)
    80200c58:	05513423          	sd	s5,72(sp)
    80200c5c:	05613023          	sd	s6,64(sp)
    80200c60:	03713c23          	sd	s7,56(sp)
    80200c64:	03813823          	sd	s8,48(sp)
    80200c68:	03913423          	sd	s9,40(sp)
    80200c6c:	08010413          	addi	s0,sp,128
    80200c70:	f8a43423          	sd	a0,-120(s0)
    80200c74:	f8843783          	ld	a5,-120(s0)
    80200c78:	0407a903          	lw	s2,64(a5)
    80200c7c:	f8843783          	ld	a5,-120(s0)
    80200c80:	0447ac03          	lw	s8,68(a5)
    80200c84:	f8843783          	ld	a5,-120(s0)
    80200c88:	0487ab83          	lw	s7,72(a5)
    80200c8c:	f8843783          	ld	a5,-120(s0)
    80200c90:	04c7aa03          	lw	s4,76(a5)
    80200c94:	f8843783          	ld	a5,-120(s0)
    80200c98:	0507a483          	lw	s1,80(a5)
    80200c9c:	f8843783          	ld	a5,-120(s0)
    80200ca0:	0547ab03          	lw	s6,84(a5)
    80200ca4:	f8843783          	ld	a5,-120(s0)
    80200ca8:	0587aa83          	lw	s5,88(a5)
    80200cac:	f8843783          	ld	a5,-120(s0)
    80200cb0:	05c7a983          	lw	s3,92(a5)
    80200cb4:	f8042e23          	sw	zero,-100(s0)
    80200cb8:	2480006f          	j	80200f00 <_hash+0x2c4>
    80200cbc:	f9c42783          	lw	a5,-100(s0)
    80200cc0:	0007871b          	sext.w	a4,a5
    80200cc4:	00f00793          	li	a5,15
    80200cc8:	04e7ec63          	bltu	a5,a4,80200d20 <_hash+0xe4>
    80200ccc:	f9c42783          	lw	a5,-100(s0)
    80200cd0:	00200593          	li	a1,2
    80200cd4:	00078513          	mv	a0,a5
    80200cd8:	a39ff0ef          	jal	ra,80200710 <_shw>
    80200cdc:	00050793          	mv	a5,a0
    80200ce0:	0007879b          	sext.w	a5,a5
    80200ce4:	02079793          	slli	a5,a5,0x20
    80200ce8:	0207d793          	srli	a5,a5,0x20
    80200cec:	f8843703          	ld	a4,-120(s0)
    80200cf0:	00f707b3          	add	a5,a4,a5
    80200cf4:	00078513          	mv	a0,a5
    80200cf8:	e09ff0ef          	jal	ra,80200b00 <_word>
    80200cfc:	00050793          	mv	a5,a0
    80200d00:	0007871b          	sext.w	a4,a5
    80200d04:	f8843683          	ld	a3,-120(s0)
    80200d08:	f9c46783          	lwu	a5,-100(s0)
    80200d0c:	01c78793          	addi	a5,a5,28
    80200d10:	00279793          	slli	a5,a5,0x2
    80200d14:	00f687b3          	add	a5,a3,a5
    80200d18:	00e7a023          	sw	a4,0(a5)
    80200d1c:	0f40006f          	j	80200e10 <_hash+0x1d4>
    80200d20:	f9c42783          	lw	a5,-100(s0)
    80200d24:	ffe7879b          	addiw	a5,a5,-2
    80200d28:	0007879b          	sext.w	a5,a5
    80200d2c:	f8843703          	ld	a4,-120(s0)
    80200d30:	02079793          	slli	a5,a5,0x20
    80200d34:	0207d793          	srli	a5,a5,0x20
    80200d38:	01c78793          	addi	a5,a5,28
    80200d3c:	00279793          	slli	a5,a5,0x2
    80200d40:	00f707b3          	add	a5,a4,a5
    80200d44:	0007a783          	lw	a5,0(a5)
    80200d48:	00078513          	mv	a0,a5
    80200d4c:	d31ff0ef          	jal	ra,80200a7c <_G1>
    80200d50:	00050793          	mv	a5,a0
    80200d54:	0007871b          	sext.w	a4,a5
    80200d58:	f9c42783          	lw	a5,-100(s0)
    80200d5c:	ff97879b          	addiw	a5,a5,-7
    80200d60:	0007879b          	sext.w	a5,a5
    80200d64:	f8843683          	ld	a3,-120(s0)
    80200d68:	02079793          	slli	a5,a5,0x20
    80200d6c:	0207d793          	srli	a5,a5,0x20
    80200d70:	01c78793          	addi	a5,a5,28
    80200d74:	00279793          	slli	a5,a5,0x2
    80200d78:	00f687b3          	add	a5,a3,a5
    80200d7c:	0007a783          	lw	a5,0(a5)
    80200d80:	00f707bb          	addw	a5,a4,a5
    80200d84:	00078c9b          	sext.w	s9,a5
    80200d88:	f9c42783          	lw	a5,-100(s0)
    80200d8c:	ff17879b          	addiw	a5,a5,-15
    80200d90:	0007879b          	sext.w	a5,a5
    80200d94:	f8843703          	ld	a4,-120(s0)
    80200d98:	02079793          	slli	a5,a5,0x20
    80200d9c:	0207d793          	srli	a5,a5,0x20
    80200da0:	01c78793          	addi	a5,a5,28
    80200da4:	00279793          	slli	a5,a5,0x2
    80200da8:	00f707b3          	add	a5,a4,a5
    80200dac:	0007a783          	lw	a5,0(a5)
    80200db0:	00078513          	mv	a0,a5
    80200db4:	c45ff0ef          	jal	ra,802009f8 <_G0>
    80200db8:	00050793          	mv	a5,a0
    80200dbc:	0007879b          	sext.w	a5,a5
    80200dc0:	00fc87bb          	addw	a5,s9,a5
    80200dc4:	0007871b          	sext.w	a4,a5
    80200dc8:	f9c42783          	lw	a5,-100(s0)
    80200dcc:	ff07879b          	addiw	a5,a5,-16
    80200dd0:	0007879b          	sext.w	a5,a5
    80200dd4:	f8843683          	ld	a3,-120(s0)
    80200dd8:	02079793          	slli	a5,a5,0x20
    80200ddc:	0207d793          	srli	a5,a5,0x20
    80200de0:	01c78793          	addi	a5,a5,28
    80200de4:	00279793          	slli	a5,a5,0x2
    80200de8:	00f687b3          	add	a5,a3,a5
    80200dec:	0007a783          	lw	a5,0(a5)
    80200df0:	00f707bb          	addw	a5,a4,a5
    80200df4:	0007871b          	sext.w	a4,a5
    80200df8:	f8843683          	ld	a3,-120(s0)
    80200dfc:	f9c46783          	lwu	a5,-100(s0)
    80200e00:	01c78793          	addi	a5,a5,28
    80200e04:	00279793          	slli	a5,a5,0x2
    80200e08:	00f687b3          	add	a5,a3,a5
    80200e0c:	00e7a023          	sw	a4,0(a5)
    80200e10:	00048513          	mv	a0,s1
    80200e14:	b51ff0ef          	jal	ra,80200964 <_S1>
    80200e18:	00050793          	mv	a5,a0
    80200e1c:	0007879b          	sext.w	a5,a5
    80200e20:	00f987bb          	addw	a5,s3,a5
    80200e24:	0007899b          	sext.w	s3,a5
    80200e28:	000a8613          	mv	a2,s5
    80200e2c:	000b0593          	mv	a1,s6
    80200e30:	00048513          	mv	a0,s1
    80200e34:	9b5ff0ef          	jal	ra,802007e8 <_Ch>
    80200e38:	00050793          	mv	a5,a0
    80200e3c:	0007879b          	sext.w	a5,a5
    80200e40:	00f987bb          	addw	a5,s3,a5
    80200e44:	0007871b          	sext.w	a4,a5
    80200e48:	00001697          	auipc	a3,0x1
    80200e4c:	3c068693          	addi	a3,a3,960 # 80202208 <K>
    80200e50:	f9c46783          	lwu	a5,-100(s0)
    80200e54:	00279793          	slli	a5,a5,0x2
    80200e58:	00f687b3          	add	a5,a3,a5
    80200e5c:	0007a783          	lw	a5,0(a5)
    80200e60:	00f707bb          	addw	a5,a4,a5
    80200e64:	0007871b          	sext.w	a4,a5
    80200e68:	f8843683          	ld	a3,-120(s0)
    80200e6c:	f9c46783          	lwu	a5,-100(s0)
    80200e70:	01c78793          	addi	a5,a5,28
    80200e74:	00279793          	slli	a5,a5,0x2
    80200e78:	00f687b3          	add	a5,a3,a5
    80200e7c:	0007a783          	lw	a5,0(a5)
    80200e80:	00f707bb          	addw	a5,a4,a5
    80200e84:	0007879b          	sext.w	a5,a5
    80200e88:	f8f42823          	sw	a5,-112(s0)
    80200e8c:	00090513          	mv	a0,s2
    80200e90:	a41ff0ef          	jal	ra,802008d0 <_S0>
    80200e94:	00050793          	mv	a5,a0
    80200e98:	0007899b          	sext.w	s3,a5
    80200e9c:	000b8613          	mv	a2,s7
    80200ea0:	000c0593          	mv	a1,s8
    80200ea4:	00090513          	mv	a0,s2
    80200ea8:	9b1ff0ef          	jal	ra,80200858 <_Ma>
    80200eac:	00050793          	mv	a5,a0
    80200eb0:	0007879b          	sext.w	a5,a5
    80200eb4:	00f987bb          	addw	a5,s3,a5
    80200eb8:	0007879b          	sext.w	a5,a5
    80200ebc:	f8f42a23          	sw	a5,-108(s0)
    80200ec0:	000a899b          	sext.w	s3,s5
    80200ec4:	000b0a9b          	sext.w	s5,s6
    80200ec8:	00048b1b          	sext.w	s6,s1
    80200ecc:	f9042783          	lw	a5,-112(s0)
    80200ed0:	00fa07bb          	addw	a5,s4,a5
    80200ed4:	0007849b          	sext.w	s1,a5
    80200ed8:	000b8a1b          	sext.w	s4,s7
    80200edc:	000c0b9b          	sext.w	s7,s8
    80200ee0:	00090c1b          	sext.w	s8,s2
    80200ee4:	f9042703          	lw	a4,-112(s0)
    80200ee8:	f9442783          	lw	a5,-108(s0)
    80200eec:	00f707bb          	addw	a5,a4,a5
    80200ef0:	0007891b          	sext.w	s2,a5
    80200ef4:	f9c42783          	lw	a5,-100(s0)
    80200ef8:	0017879b          	addiw	a5,a5,1
    80200efc:	f8f42e23          	sw	a5,-100(s0)
    80200f00:	f9c42783          	lw	a5,-100(s0)
    80200f04:	0007871b          	sext.w	a4,a5
    80200f08:	03f00793          	li	a5,63
    80200f0c:	dae7f8e3          	bgeu	a5,a4,80200cbc <_hash+0x80>
    80200f10:	f8843783          	ld	a5,-120(s0)
    80200f14:	0407a783          	lw	a5,64(a5)
    80200f18:	00f907bb          	addw	a5,s2,a5
    80200f1c:	0007871b          	sext.w	a4,a5
    80200f20:	f8843783          	ld	a5,-120(s0)
    80200f24:	04e7a023          	sw	a4,64(a5)
    80200f28:	f8843783          	ld	a5,-120(s0)
    80200f2c:	0447a783          	lw	a5,68(a5)
    80200f30:	00fc07bb          	addw	a5,s8,a5
    80200f34:	0007871b          	sext.w	a4,a5
    80200f38:	f8843783          	ld	a5,-120(s0)
    80200f3c:	04e7a223          	sw	a4,68(a5)
    80200f40:	f8843783          	ld	a5,-120(s0)
    80200f44:	0487a783          	lw	a5,72(a5)
    80200f48:	00fb87bb          	addw	a5,s7,a5
    80200f4c:	0007871b          	sext.w	a4,a5
    80200f50:	f8843783          	ld	a5,-120(s0)
    80200f54:	04e7a423          	sw	a4,72(a5)
    80200f58:	f8843783          	ld	a5,-120(s0)
    80200f5c:	04c7a783          	lw	a5,76(a5)
    80200f60:	00fa07bb          	addw	a5,s4,a5
    80200f64:	0007871b          	sext.w	a4,a5
    80200f68:	f8843783          	ld	a5,-120(s0)
    80200f6c:	04e7a623          	sw	a4,76(a5)
    80200f70:	f8843783          	ld	a5,-120(s0)
    80200f74:	0507a783          	lw	a5,80(a5)
    80200f78:	00f487bb          	addw	a5,s1,a5
    80200f7c:	0007871b          	sext.w	a4,a5
    80200f80:	f8843783          	ld	a5,-120(s0)
    80200f84:	04e7a823          	sw	a4,80(a5)
    80200f88:	f8843783          	ld	a5,-120(s0)
    80200f8c:	0547a783          	lw	a5,84(a5)
    80200f90:	00fb07bb          	addw	a5,s6,a5
    80200f94:	0007871b          	sext.w	a4,a5
    80200f98:	f8843783          	ld	a5,-120(s0)
    80200f9c:	04e7aa23          	sw	a4,84(a5)
    80200fa0:	f8843783          	ld	a5,-120(s0)
    80200fa4:	0587a783          	lw	a5,88(a5)
    80200fa8:	00fa87bb          	addw	a5,s5,a5
    80200fac:	0007871b          	sext.w	a4,a5
    80200fb0:	f8843783          	ld	a5,-120(s0)
    80200fb4:	04e7ac23          	sw	a4,88(a5)
    80200fb8:	f8843783          	ld	a5,-120(s0)
    80200fbc:	05c7a783          	lw	a5,92(a5)
    80200fc0:	00f987bb          	addw	a5,s3,a5
    80200fc4:	0007871b          	sext.w	a4,a5
    80200fc8:	f8843783          	ld	a5,-120(s0)
    80200fcc:	04e7ae23          	sw	a4,92(a5)
    80200fd0:	00000013          	nop
    80200fd4:	07813083          	ld	ra,120(sp)
    80200fd8:	07013403          	ld	s0,112(sp)
    80200fdc:	06813483          	ld	s1,104(sp)
    80200fe0:	06013903          	ld	s2,96(sp)
    80200fe4:	05813983          	ld	s3,88(sp)
    80200fe8:	05013a03          	ld	s4,80(sp)
    80200fec:	04813a83          	ld	s5,72(sp)
    80200ff0:	04013b03          	ld	s6,64(sp)
    80200ff4:	03813b83          	ld	s7,56(sp)
    80200ff8:	03013c03          	ld	s8,48(sp)
    80200ffc:	02813c83          	ld	s9,40(sp)
    80201000:	08010113          	addi	sp,sp,128
    80201004:	00008067          	ret

0000000080201008 <sha256_init>:
    80201008:	fe010113          	addi	sp,sp,-32
    8020100c:	00813c23          	sd	s0,24(sp)
    80201010:	02010413          	addi	s0,sp,32
    80201014:	fea43423          	sd	a0,-24(s0)
    80201018:	fe843783          	ld	a5,-24(s0)
    8020101c:	0a078663          	beqz	a5,802010c8 <sha256_init+0xc0>
    80201020:	fe843783          	ld	a5,-24(s0)
    80201024:	0607a423          	sw	zero,104(a5)
    80201028:	fe843783          	ld	a5,-24(s0)
    8020102c:	0687a703          	lw	a4,104(a5)
    80201030:	fe843783          	ld	a5,-24(s0)
    80201034:	06e7a223          	sw	a4,100(a5)
    80201038:	fe843783          	ld	a5,-24(s0)
    8020103c:	0647a703          	lw	a4,100(a5)
    80201040:	fe843783          	ld	a5,-24(s0)
    80201044:	06e7a023          	sw	a4,96(a5)
    80201048:	fe843783          	ld	a5,-24(s0)
    8020104c:	6a09e737          	lui	a4,0x6a09e
    80201050:	66770713          	addi	a4,a4,1639 # 6a09e667 <_start-0x16161999>
    80201054:	04e7a023          	sw	a4,64(a5)
    80201058:	fe843783          	ld	a5,-24(s0)
    8020105c:	bb67b737          	lui	a4,0xbb67b
    80201060:	e8570713          	addi	a4,a4,-379 # ffffffffbb67ae85 <_end+0xffffffff3b1d5e85>
    80201064:	04e7a223          	sw	a4,68(a5)
    80201068:	fe843783          	ld	a5,-24(s0)
    8020106c:	3c6ef737          	lui	a4,0x3c6ef
    80201070:	37270713          	addi	a4,a4,882 # 3c6ef372 <_start-0x43b10c8e>
    80201074:	04e7a423          	sw	a4,72(a5)
    80201078:	fe843783          	ld	a5,-24(s0)
    8020107c:	a54ff737          	lui	a4,0xa54ff
    80201080:	53a70713          	addi	a4,a4,1338 # ffffffffa54ff53a <_end+0xffffffff2505a53a>
    80201084:	04e7a623          	sw	a4,76(a5)
    80201088:	fe843783          	ld	a5,-24(s0)
    8020108c:	510e5737          	lui	a4,0x510e5
    80201090:	27f70713          	addi	a4,a4,639 # 510e527f <_start-0x2f11ad81>
    80201094:	04e7a823          	sw	a4,80(a5)
    80201098:	fe843783          	ld	a5,-24(s0)
    8020109c:	9b057737          	lui	a4,0x9b057
    802010a0:	88c70713          	addi	a4,a4,-1908 # ffffffff9b05688c <_end+0xffffffff1abb188c>
    802010a4:	04e7aa23          	sw	a4,84(a5)
    802010a8:	fe843783          	ld	a5,-24(s0)
    802010ac:	1f83e737          	lui	a4,0x1f83e
    802010b0:	9ab70713          	addi	a4,a4,-1621 # 1f83d9ab <_start-0x609c2655>
    802010b4:	04e7ac23          	sw	a4,88(a5)
    802010b8:	fe843783          	ld	a5,-24(s0)
    802010bc:	5be0d737          	lui	a4,0x5be0d
    802010c0:	d1970713          	addi	a4,a4,-743 # 5be0cd19 <_start-0x243f32e7>
    802010c4:	04e7ae23          	sw	a4,92(a5)
    802010c8:	00000013          	nop
    802010cc:	01813403          	ld	s0,24(sp)
    802010d0:	02010113          	addi	sp,sp,32
    802010d4:	00008067          	ret

00000000802010d8 <sha256_hash>:
    802010d8:	fc010113          	addi	sp,sp,-64
    802010dc:	02113c23          	sd	ra,56(sp)
    802010e0:	02813823          	sd	s0,48(sp)
    802010e4:	04010413          	addi	s0,sp,64
    802010e8:	fca43c23          	sd	a0,-40(s0)
    802010ec:	fcb43823          	sd	a1,-48(s0)
    802010f0:	fcc43423          	sd	a2,-56(s0)
    802010f4:	fd043783          	ld	a5,-48(s0)
    802010f8:	fef43023          	sd	a5,-32(s0)
    802010fc:	fd843783          	ld	a5,-40(s0)
    80201100:	0a078863          	beqz	a5,802011b0 <sha256_hash+0xd8>
    80201104:	fe043783          	ld	a5,-32(s0)
    80201108:	0a078463          	beqz	a5,802011b0 <sha256_hash+0xd8>
    8020110c:	fd843783          	ld	a5,-40(s0)
    80201110:	0687a783          	lw	a5,104(a5)
    80201114:	00078713          	mv	a4,a5
    80201118:	03f00793          	li	a5,63
    8020111c:	08e7ea63          	bltu	a5,a4,802011b0 <sha256_hash+0xd8>
    80201120:	fe043423          	sd	zero,-24(s0)
    80201124:	0800006f          	j	802011a4 <sha256_hash+0xcc>
    80201128:	fe043703          	ld	a4,-32(s0)
    8020112c:	fe843783          	ld	a5,-24(s0)
    80201130:	00f70733          	add	a4,a4,a5
    80201134:	fd843783          	ld	a5,-40(s0)
    80201138:	0687a783          	lw	a5,104(a5)
    8020113c:	0007879b          	sext.w	a5,a5
    80201140:	0017869b          	addiw	a3,a5,1
    80201144:	0006861b          	sext.w	a2,a3
    80201148:	fd843683          	ld	a3,-40(s0)
    8020114c:	06c6a423          	sw	a2,104(a3)
    80201150:	00074703          	lbu	a4,0(a4)
    80201154:	fd843683          	ld	a3,-40(s0)
    80201158:	02079793          	slli	a5,a5,0x20
    8020115c:	0207d793          	srli	a5,a5,0x20
    80201160:	00f687b3          	add	a5,a3,a5
    80201164:	00e78023          	sb	a4,0(a5)
    80201168:	fd843783          	ld	a5,-40(s0)
    8020116c:	0687a783          	lw	a5,104(a5)
    80201170:	00078713          	mv	a4,a5
    80201174:	04000793          	li	a5,64
    80201178:	02f71063          	bne	a4,a5,80201198 <sha256_hash+0xc0>
    8020117c:	fd843503          	ld	a0,-40(s0)
    80201180:	abdff0ef          	jal	ra,80200c3c <_hash>
    80201184:	20000593          	li	a1,512
    80201188:	fd843503          	ld	a0,-40(s0)
    8020118c:	a3dff0ef          	jal	ra,80200bc8 <_addbits>
    80201190:	fd843783          	ld	a5,-40(s0)
    80201194:	0607a423          	sw	zero,104(a5)
    80201198:	fe843783          	ld	a5,-24(s0)
    8020119c:	00178793          	addi	a5,a5,1
    802011a0:	fef43423          	sd	a5,-24(s0)
    802011a4:	fe843703          	ld	a4,-24(s0)
    802011a8:	fc843783          	ld	a5,-56(s0)
    802011ac:	f6f76ee3          	bltu	a4,a5,80201128 <sha256_hash+0x50>
    802011b0:	00000013          	nop
    802011b4:	03813083          	ld	ra,56(sp)
    802011b8:	03013403          	ld	s0,48(sp)
    802011bc:	04010113          	addi	sp,sp,64
    802011c0:	00008067          	ret

00000000802011c4 <sha256_done>:
    802011c4:	fc010113          	addi	sp,sp,-64
    802011c8:	02113c23          	sd	ra,56(sp)
    802011cc:	02813823          	sd	s0,48(sp)
    802011d0:	02913423          	sd	s1,40(sp)
    802011d4:	03213023          	sd	s2,32(sp)
    802011d8:	01313c23          	sd	s3,24(sp)
    802011dc:	04010413          	addi	s0,sp,64
    802011e0:	fca43423          	sd	a0,-56(s0)
    802011e4:	fcb43023          	sd	a1,-64(s0)
    802011e8:	fc843783          	ld	a5,-56(s0)
    802011ec:	3a078c63          	beqz	a5,802015a4 <sha256_done+0x3e0>
    802011f0:	fc843783          	ld	a5,-56(s0)
    802011f4:	0687a783          	lw	a5,104(a5)
    802011f8:	03f7f793          	andi	a5,a5,63
    802011fc:	0007891b          	sext.w	s2,a5
    80201200:	fc843703          	ld	a4,-56(s0)
    80201204:	02091793          	slli	a5,s2,0x20
    80201208:	0207d793          	srli	a5,a5,0x20
    8020120c:	00f707b3          	add	a5,a4,a5
    80201210:	f8000713          	li	a4,-128
    80201214:	00e78023          	sb	a4,0(a5)
    80201218:	0019079b          	addiw	a5,s2,1
    8020121c:	0007849b          	sext.w	s1,a5
    80201220:	0200006f          	j	80201240 <sha256_done+0x7c>
    80201224:	fc843703          	ld	a4,-56(s0)
    80201228:	02049793          	slli	a5,s1,0x20
    8020122c:	0207d793          	srli	a5,a5,0x20
    80201230:	00f707b3          	add	a5,a4,a5
    80201234:	00078023          	sb	zero,0(a5)
    80201238:	0014879b          	addiw	a5,s1,1
    8020123c:	0007849b          	sext.w	s1,a5
    80201240:	00048713          	mv	a4,s1
    80201244:	03f00793          	li	a5,63
    80201248:	fce7fee3          	bgeu	a5,a4,80201224 <sha256_done+0x60>
    8020124c:	fc843783          	ld	a5,-56(s0)
    80201250:	0687a783          	lw	a5,104(a5)
    80201254:	00078713          	mv	a4,a5
    80201258:	03700793          	li	a5,55
    8020125c:	02e7fe63          	bgeu	a5,a4,80201298 <sha256_done+0xd4>
    80201260:	fc843503          	ld	a0,-56(s0)
    80201264:	9d9ff0ef          	jal	ra,80200c3c <_hash>
    80201268:	00000913          	li	s2,0
    8020126c:	0200006f          	j	8020128c <sha256_done+0xc8>
    80201270:	fc843703          	ld	a4,-56(s0)
    80201274:	02091793          	slli	a5,s2,0x20
    80201278:	0207d793          	srli	a5,a5,0x20
    8020127c:	00f707b3          	add	a5,a4,a5
    80201280:	00078023          	sb	zero,0(a5)
    80201284:	0019079b          	addiw	a5,s2,1
    80201288:	0007891b          	sext.w	s2,a5
    8020128c:	00090713          	mv	a4,s2
    80201290:	03f00793          	li	a5,63
    80201294:	fce7fee3          	bgeu	a5,a4,80201270 <sha256_done+0xac>
    80201298:	fc843783          	ld	a5,-56(s0)
    8020129c:	0687a783          	lw	a5,104(a5)
    802012a0:	0037979b          	slliw	a5,a5,0x3
    802012a4:	0007879b          	sext.w	a5,a5
    802012a8:	00078593          	mv	a1,a5
    802012ac:	fc843503          	ld	a0,-56(s0)
    802012b0:	919ff0ef          	jal	ra,80200bc8 <_addbits>
    802012b4:	fc843783          	ld	a5,-56(s0)
    802012b8:	0607a783          	lw	a5,96(a5)
    802012bc:	00000593          	li	a1,0
    802012c0:	00078513          	mv	a0,a5
    802012c4:	c00ff0ef          	jal	ra,802006c4 <_shb>
    802012c8:	00050793          	mv	a5,a0
    802012cc:	00078713          	mv	a4,a5
    802012d0:	fc843783          	ld	a5,-56(s0)
    802012d4:	02e78fa3          	sb	a4,63(a5)
    802012d8:	fc843783          	ld	a5,-56(s0)
    802012dc:	0607a783          	lw	a5,96(a5)
    802012e0:	00800593          	li	a1,8
    802012e4:	00078513          	mv	a0,a5
    802012e8:	bdcff0ef          	jal	ra,802006c4 <_shb>
    802012ec:	00050793          	mv	a5,a0
    802012f0:	00078713          	mv	a4,a5
    802012f4:	fc843783          	ld	a5,-56(s0)
    802012f8:	02e78f23          	sb	a4,62(a5)
    802012fc:	fc843783          	ld	a5,-56(s0)
    80201300:	0607a783          	lw	a5,96(a5)
    80201304:	01000593          	li	a1,16
    80201308:	00078513          	mv	a0,a5
    8020130c:	bb8ff0ef          	jal	ra,802006c4 <_shb>
    80201310:	00050793          	mv	a5,a0
    80201314:	00078713          	mv	a4,a5
    80201318:	fc843783          	ld	a5,-56(s0)
    8020131c:	02e78ea3          	sb	a4,61(a5)
    80201320:	fc843783          	ld	a5,-56(s0)
    80201324:	0607a783          	lw	a5,96(a5)
    80201328:	01800593          	li	a1,24
    8020132c:	00078513          	mv	a0,a5
    80201330:	b94ff0ef          	jal	ra,802006c4 <_shb>
    80201334:	00050793          	mv	a5,a0
    80201338:	00078713          	mv	a4,a5
    8020133c:	fc843783          	ld	a5,-56(s0)
    80201340:	02e78e23          	sb	a4,60(a5)
    80201344:	fc843783          	ld	a5,-56(s0)
    80201348:	0647a783          	lw	a5,100(a5)
    8020134c:	00000593          	li	a1,0
    80201350:	00078513          	mv	a0,a5
    80201354:	b70ff0ef          	jal	ra,802006c4 <_shb>
    80201358:	00050793          	mv	a5,a0
    8020135c:	00078713          	mv	a4,a5
    80201360:	fc843783          	ld	a5,-56(s0)
    80201364:	02e78da3          	sb	a4,59(a5)
    80201368:	fc843783          	ld	a5,-56(s0)
    8020136c:	0647a783          	lw	a5,100(a5)
    80201370:	00800593          	li	a1,8
    80201374:	00078513          	mv	a0,a5
    80201378:	b4cff0ef          	jal	ra,802006c4 <_shb>
    8020137c:	00050793          	mv	a5,a0
    80201380:	00078713          	mv	a4,a5
    80201384:	fc843783          	ld	a5,-56(s0)
    80201388:	02e78d23          	sb	a4,58(a5)
    8020138c:	fc843783          	ld	a5,-56(s0)
    80201390:	0647a783          	lw	a5,100(a5)
    80201394:	01000593          	li	a1,16
    80201398:	00078513          	mv	a0,a5
    8020139c:	b28ff0ef          	jal	ra,802006c4 <_shb>
    802013a0:	00050793          	mv	a5,a0
    802013a4:	00078713          	mv	a4,a5
    802013a8:	fc843783          	ld	a5,-56(s0)
    802013ac:	02e78ca3          	sb	a4,57(a5)
    802013b0:	fc843783          	ld	a5,-56(s0)
    802013b4:	0647a783          	lw	a5,100(a5)
    802013b8:	01800593          	li	a1,24
    802013bc:	00078513          	mv	a0,a5
    802013c0:	b04ff0ef          	jal	ra,802006c4 <_shb>
    802013c4:	00050793          	mv	a5,a0
    802013c8:	00078713          	mv	a4,a5
    802013cc:	fc843783          	ld	a5,-56(s0)
    802013d0:	02e78c23          	sb	a4,56(a5)
    802013d4:	fc843503          	ld	a0,-56(s0)
    802013d8:	865ff0ef          	jal	ra,80200c3c <_hash>
    802013dc:	fc043783          	ld	a5,-64(s0)
    802013e0:	1c078263          	beqz	a5,802015a4 <sha256_done+0x3e0>
    802013e4:	00000493          	li	s1,0
    802013e8:	01800913          	li	s2,24
    802013ec:	1ac0006f          	j	80201598 <sha256_done+0x3d4>
    802013f0:	fc843783          	ld	a5,-56(s0)
    802013f4:	0407a683          	lw	a3,64(a5)
    802013f8:	02049793          	slli	a5,s1,0x20
    802013fc:	0207d793          	srli	a5,a5,0x20
    80201400:	fc043703          	ld	a4,-64(s0)
    80201404:	00f709b3          	add	s3,a4,a5
    80201408:	00090593          	mv	a1,s2
    8020140c:	00068513          	mv	a0,a3
    80201410:	ab4ff0ef          	jal	ra,802006c4 <_shb>
    80201414:	00050793          	mv	a5,a0
    80201418:	00f98023          	sb	a5,0(s3)
    8020141c:	fc843783          	ld	a5,-56(s0)
    80201420:	0447a683          	lw	a3,68(a5)
    80201424:	0044879b          	addiw	a5,s1,4
    80201428:	0007879b          	sext.w	a5,a5
    8020142c:	02079793          	slli	a5,a5,0x20
    80201430:	0207d793          	srli	a5,a5,0x20
    80201434:	fc043703          	ld	a4,-64(s0)
    80201438:	00f709b3          	add	s3,a4,a5
    8020143c:	00090593          	mv	a1,s2
    80201440:	00068513          	mv	a0,a3
    80201444:	a80ff0ef          	jal	ra,802006c4 <_shb>
    80201448:	00050793          	mv	a5,a0
    8020144c:	00f98023          	sb	a5,0(s3)
    80201450:	fc843783          	ld	a5,-56(s0)
    80201454:	0487a683          	lw	a3,72(a5)
    80201458:	0084879b          	addiw	a5,s1,8
    8020145c:	0007879b          	sext.w	a5,a5
    80201460:	02079793          	slli	a5,a5,0x20
    80201464:	0207d793          	srli	a5,a5,0x20
    80201468:	fc043703          	ld	a4,-64(s0)
    8020146c:	00f709b3          	add	s3,a4,a5
    80201470:	00090593          	mv	a1,s2
    80201474:	00068513          	mv	a0,a3
    80201478:	a4cff0ef          	jal	ra,802006c4 <_shb>
    8020147c:	00050793          	mv	a5,a0
    80201480:	00f98023          	sb	a5,0(s3)
    80201484:	fc843783          	ld	a5,-56(s0)
    80201488:	04c7a683          	lw	a3,76(a5)
    8020148c:	00c4879b          	addiw	a5,s1,12
    80201490:	0007879b          	sext.w	a5,a5
    80201494:	02079793          	slli	a5,a5,0x20
    80201498:	0207d793          	srli	a5,a5,0x20
    8020149c:	fc043703          	ld	a4,-64(s0)
    802014a0:	00f709b3          	add	s3,a4,a5
    802014a4:	00090593          	mv	a1,s2
    802014a8:	00068513          	mv	a0,a3
    802014ac:	a18ff0ef          	jal	ra,802006c4 <_shb>
    802014b0:	00050793          	mv	a5,a0
    802014b4:	00f98023          	sb	a5,0(s3)
    802014b8:	fc843783          	ld	a5,-56(s0)
    802014bc:	0507a683          	lw	a3,80(a5)
    802014c0:	0104879b          	addiw	a5,s1,16
    802014c4:	0007879b          	sext.w	a5,a5
    802014c8:	02079793          	slli	a5,a5,0x20
    802014cc:	0207d793          	srli	a5,a5,0x20
    802014d0:	fc043703          	ld	a4,-64(s0)
    802014d4:	00f709b3          	add	s3,a4,a5
    802014d8:	00090593          	mv	a1,s2
    802014dc:	00068513          	mv	a0,a3
    802014e0:	9e4ff0ef          	jal	ra,802006c4 <_shb>
    802014e4:	00050793          	mv	a5,a0
    802014e8:	00f98023          	sb	a5,0(s3)
    802014ec:	fc843783          	ld	a5,-56(s0)
    802014f0:	0547a683          	lw	a3,84(a5)
    802014f4:	0144879b          	addiw	a5,s1,20
    802014f8:	0007879b          	sext.w	a5,a5
    802014fc:	02079793          	slli	a5,a5,0x20
    80201500:	0207d793          	srli	a5,a5,0x20
    80201504:	fc043703          	ld	a4,-64(s0)
    80201508:	00f709b3          	add	s3,a4,a5
    8020150c:	00090593          	mv	a1,s2
    80201510:	00068513          	mv	a0,a3
    80201514:	9b0ff0ef          	jal	ra,802006c4 <_shb>
    80201518:	00050793          	mv	a5,a0
    8020151c:	00f98023          	sb	a5,0(s3)
    80201520:	fc843783          	ld	a5,-56(s0)
    80201524:	0587a683          	lw	a3,88(a5)
    80201528:	0184879b          	addiw	a5,s1,24
    8020152c:	0007879b          	sext.w	a5,a5
    80201530:	02079793          	slli	a5,a5,0x20
    80201534:	0207d793          	srli	a5,a5,0x20
    80201538:	fc043703          	ld	a4,-64(s0)
    8020153c:	00f709b3          	add	s3,a4,a5
    80201540:	00090593          	mv	a1,s2
    80201544:	00068513          	mv	a0,a3
    80201548:	97cff0ef          	jal	ra,802006c4 <_shb>
    8020154c:	00050793          	mv	a5,a0
    80201550:	00f98023          	sb	a5,0(s3)
    80201554:	fc843783          	ld	a5,-56(s0)
    80201558:	05c7a683          	lw	a3,92(a5)
    8020155c:	01c4879b          	addiw	a5,s1,28
    80201560:	0007879b          	sext.w	a5,a5
    80201564:	02079793          	slli	a5,a5,0x20
    80201568:	0207d793          	srli	a5,a5,0x20
    8020156c:	fc043703          	ld	a4,-64(s0)
    80201570:	00f709b3          	add	s3,a4,a5
    80201574:	00090593          	mv	a1,s2
    80201578:	00068513          	mv	a0,a3
    8020157c:	948ff0ef          	jal	ra,802006c4 <_shb>
    80201580:	00050793          	mv	a5,a0
    80201584:	00f98023          	sb	a5,0(s3)
    80201588:	0014879b          	addiw	a5,s1,1
    8020158c:	0007849b          	sext.w	s1,a5
    80201590:	ff89079b          	addiw	a5,s2,-8
    80201594:	0007891b          	sext.w	s2,a5
    80201598:	00048713          	mv	a4,s1
    8020159c:	00300793          	li	a5,3
    802015a0:	e4e7f8e3          	bgeu	a5,a4,802013f0 <sha256_done+0x22c>
    802015a4:	00000013          	nop
    802015a8:	03813083          	ld	ra,56(sp)
    802015ac:	03013403          	ld	s0,48(sp)
    802015b0:	02813483          	ld	s1,40(sp)
    802015b4:	02013903          	ld	s2,32(sp)
    802015b8:	01813983          	ld	s3,24(sp)
    802015bc:	04010113          	addi	sp,sp,64
    802015c0:	00008067          	ret

00000000802015c4 <sha256>:
    802015c4:	e6010113          	addi	sp,sp,-416
    802015c8:	18113c23          	sd	ra,408(sp)
    802015cc:	18813823          	sd	s0,400(sp)
    802015d0:	1a010413          	addi	s0,sp,416
    802015d4:	e6a43c23          	sd	a0,-392(s0)
    802015d8:	e6b43823          	sd	a1,-400(s0)
    802015dc:	e6c43423          	sd	a2,-408(s0)
    802015e0:	e8040793          	addi	a5,s0,-384
    802015e4:	00078513          	mv	a0,a5
    802015e8:	a21ff0ef          	jal	ra,80201008 <sha256_init>
    802015ec:	e8040793          	addi	a5,s0,-384
    802015f0:	e7043603          	ld	a2,-400(s0)
    802015f4:	e7843583          	ld	a1,-392(s0)
    802015f8:	00078513          	mv	a0,a5
    802015fc:	addff0ef          	jal	ra,802010d8 <sha256_hash>
    80201600:	e8040793          	addi	a5,s0,-384
    80201604:	e6843583          	ld	a1,-408(s0)
    80201608:	00078513          	mv	a0,a5
    8020160c:	bb9ff0ef          	jal	ra,802011c4 <sha256_done>
    80201610:	00000013          	nop
    80201614:	19813083          	ld	ra,408(sp)
    80201618:	19013403          	ld	s0,400(sp)
    8020161c:	1a010113          	addi	sp,sp,416
    80201620:	00008067          	ret

0000000080201624 <_trm_init>:
    80201624:	ff010113          	addi	sp,sp,-16
    80201628:	00113423          	sd	ra,8(sp)
    8020162c:	00813023          	sd	s0,0(sp)
    80201630:	01010413          	addi	s0,sp,16
    80201634:	00001517          	auipc	a0,0x1
    80201638:	cd450513          	addi	a0,a0,-812 # 80202308 <mainargs>
    8020163c:	ca1fe0ef          	jal	ra,802002dc <main>
    80201640:	00000013          	nop
    80201644:	00813083          	ld	ra,8(sp)
    80201648:	00013403          	ld	s0,0(sp)
    8020164c:	01010113          	addi	sp,sp,16
    80201650:	00008067          	ret

0000000080201654 <get_time>:
    80201654:	fe010113          	addi	sp,sp,-32
    80201658:	00813c23          	sd	s0,24(sp)
    8020165c:	02010413          	addi	s0,sp,32
    80201660:	00500793          	li	a5,5
    80201664:	01d79793          	slli	a5,a5,0x1d
    80201668:	04c78793          	addi	a5,a5,76
    8020166c:	0007a783          	lw	a5,0(a5)
    80201670:	0007879b          	sext.w	a5,a5
    80201674:	02079793          	slli	a5,a5,0x20
    80201678:	0207d793          	srli	a5,a5,0x20
    8020167c:	fef43423          	sd	a5,-24(s0)
    80201680:	fe843783          	ld	a5,-24(s0)
    80201684:	02079713          	slli	a4,a5,0x20
    80201688:	00500793          	li	a5,5
    8020168c:	01d79793          	slli	a5,a5,0x1d
    80201690:	04878793          	addi	a5,a5,72
    80201694:	0007a783          	lw	a5,0(a5)
    80201698:	0007879b          	sext.w	a5,a5
    8020169c:	02079793          	slli	a5,a5,0x20
    802016a0:	0207d793          	srli	a5,a5,0x20
    802016a4:	00f767b3          	or	a5,a4,a5
    802016a8:	fef43423          	sd	a5,-24(s0)
    802016ac:	00000013          	nop
    802016b0:	00078513          	mv	a0,a5
    802016b4:	01813403          	ld	s0,24(sp)
    802016b8:	02010113          	addi	sp,sp,32
    802016bc:	00008067          	ret

00000000802016c0 <int2str>:
    802016c0:	fc010113          	addi	sp,sp,-64
    802016c4:	02813c23          	sd	s0,56(sp)
    802016c8:	04010413          	addi	s0,sp,64
    802016cc:	00050793          	mv	a5,a0
    802016d0:	fcb43023          	sd	a1,-64(s0)
    802016d4:	fcf42623          	sw	a5,-52(s0)
    802016d8:	fe0407a3          	sb	zero,-17(s0)
    802016dc:	00100793          	li	a5,1
    802016e0:	fef42423          	sw	a5,-24(s0)
    802016e4:	fe042223          	sw	zero,-28(s0)
    802016e8:	fcc42783          	lw	a5,-52(s0)
    802016ec:	0007879b          	sext.w	a5,a5
    802016f0:	02079263          	bnez	a5,80201714 <int2str+0x54>
    802016f4:	fe442783          	lw	a5,-28(s0)
    802016f8:	fc043703          	ld	a4,-64(s0)
    802016fc:	00f707b3          	add	a5,a4,a5
    80201700:	03000713          	li	a4,48
    80201704:	00e78023          	sb	a4,0(a5)
    80201708:	fe442783          	lw	a5,-28(s0)
    8020170c:	0017879b          	addiw	a5,a5,1
    80201710:	fef42223          	sw	a5,-28(s0)
    80201714:	fcc42783          	lw	a5,-52(s0)
    80201718:	0007879b          	sext.w	a5,a5
    8020171c:	0a07dc63          	bgez	a5,802017d4 <int2str+0x114>
    80201720:	fe442783          	lw	a5,-28(s0)
    80201724:	fc043703          	ld	a4,-64(s0)
    80201728:	00f707b3          	add	a5,a4,a5
    8020172c:	02d00713          	li	a4,45
    80201730:	00e78023          	sb	a4,0(a5)
    80201734:	00100793          	li	a5,1
    80201738:	fef407a3          	sb	a5,-17(s0)
    8020173c:	fe442783          	lw	a5,-28(s0)
    80201740:	0017879b          	addiw	a5,a5,1
    80201744:	fef42223          	sw	a5,-28(s0)
    80201748:	fe042423          	sw	zero,-24(s0)
    8020174c:	0880006f          	j	802017d4 <int2str+0x114>
    80201750:	fef44783          	lbu	a5,-17(s0)
    80201754:	0ff7f793          	zext.b	a5,a5
    80201758:	02078663          	beqz	a5,80201784 <int2str+0xc4>
    8020175c:	fcc42783          	lw	a5,-52(s0)
    80201760:	00078713          	mv	a4,a5
    80201764:	00a00793          	li	a5,10
    80201768:	02f767bb          	remw	a5,a4,a5
    8020176c:	0007879b          	sext.w	a5,a5
    80201770:	0ff7f793          	zext.b	a5,a5
    80201774:	03000713          	li	a4,48
    80201778:	40f707bb          	subw	a5,a4,a5
    8020177c:	0ff7f793          	zext.b	a5,a5
    80201780:	0240006f          	j	802017a4 <int2str+0xe4>
    80201784:	fcc42783          	lw	a5,-52(s0)
    80201788:	00078713          	mv	a4,a5
    8020178c:	00a00793          	li	a5,10
    80201790:	02f767bb          	remw	a5,a4,a5
    80201794:	0007879b          	sext.w	a5,a5
    80201798:	0ff7f793          	zext.b	a5,a5
    8020179c:	0307879b          	addiw	a5,a5,48
    802017a0:	0ff7f793          	zext.b	a5,a5
    802017a4:	fe442703          	lw	a4,-28(s0)
    802017a8:	fc043683          	ld	a3,-64(s0)
    802017ac:	00e68733          	add	a4,a3,a4
    802017b0:	00f70023          	sb	a5,0(a4)
    802017b4:	fe442783          	lw	a5,-28(s0)
    802017b8:	0017879b          	addiw	a5,a5,1
    802017bc:	fef42223          	sw	a5,-28(s0)
    802017c0:	fcc42783          	lw	a5,-52(s0)
    802017c4:	00078713          	mv	a4,a5
    802017c8:	00a00793          	li	a5,10
    802017cc:	02f747bb          	divw	a5,a4,a5
    802017d0:	fcf42623          	sw	a5,-52(s0)
    802017d4:	fcc42783          	lw	a5,-52(s0)
    802017d8:	0007879b          	sext.w	a5,a5
    802017dc:	f6079ae3          	bnez	a5,80201750 <int2str+0x90>
    802017e0:	fef44783          	lbu	a5,-17(s0)
    802017e4:	fef42023          	sw	a5,-32(s0)
    802017e8:	09c0006f          	j	80201884 <int2str+0x1c4>
    802017ec:	fe442783          	lw	a5,-28(s0)
    802017f0:	00078713          	mv	a4,a5
    802017f4:	fe042783          	lw	a5,-32(s0)
    802017f8:	40f707bb          	subw	a5,a4,a5
    802017fc:	0007879b          	sext.w	a5,a5
    80201800:	fe842703          	lw	a4,-24(s0)
    80201804:	40e787bb          	subw	a5,a5,a4
    80201808:	0007879b          	sext.w	a5,a5
    8020180c:	00078713          	mv	a4,a5
    80201810:	fc043783          	ld	a5,-64(s0)
    80201814:	00e787b3          	add	a5,a5,a4
    80201818:	0007c783          	lbu	a5,0(a5)
    8020181c:	fcf42e23          	sw	a5,-36(s0)
    80201820:	fe042783          	lw	a5,-32(s0)
    80201824:	fc043703          	ld	a4,-64(s0)
    80201828:	00f70733          	add	a4,a4,a5
    8020182c:	fe442783          	lw	a5,-28(s0)
    80201830:	00078693          	mv	a3,a5
    80201834:	fe042783          	lw	a5,-32(s0)
    80201838:	40f687bb          	subw	a5,a3,a5
    8020183c:	0007879b          	sext.w	a5,a5
    80201840:	fe842683          	lw	a3,-24(s0)
    80201844:	40d787bb          	subw	a5,a5,a3
    80201848:	0007879b          	sext.w	a5,a5
    8020184c:	00078693          	mv	a3,a5
    80201850:	fc043783          	ld	a5,-64(s0)
    80201854:	00d787b3          	add	a5,a5,a3
    80201858:	00074703          	lbu	a4,0(a4)
    8020185c:	00e78023          	sb	a4,0(a5)
    80201860:	fe042783          	lw	a5,-32(s0)
    80201864:	fc043703          	ld	a4,-64(s0)
    80201868:	00f707b3          	add	a5,a4,a5
    8020186c:	fdc42703          	lw	a4,-36(s0)
    80201870:	0ff77713          	zext.b	a4,a4
    80201874:	00e78023          	sb	a4,0(a5)
    80201878:	fe042783          	lw	a5,-32(s0)
    8020187c:	0017879b          	addiw	a5,a5,1
    80201880:	fef42023          	sw	a5,-32(s0)
    80201884:	fef44783          	lbu	a5,-17(s0)
    80201888:	0007879b          	sext.w	a5,a5
    8020188c:	fe442703          	lw	a4,-28(s0)
    80201890:	00f707bb          	addw	a5,a4,a5
    80201894:	0007879b          	sext.w	a5,a5
    80201898:	01f7d71b          	srliw	a4,a5,0x1f
    8020189c:	00f707bb          	addw	a5,a4,a5
    802018a0:	4017d79b          	sraiw	a5,a5,0x1
    802018a4:	0007871b          	sext.w	a4,a5
    802018a8:	fe042783          	lw	a5,-32(s0)
    802018ac:	0007879b          	sext.w	a5,a5
    802018b0:	f2e7cee3          	blt	a5,a4,802017ec <int2str+0x12c>
    802018b4:	fe442783          	lw	a5,-28(s0)
    802018b8:	fc043703          	ld	a4,-64(s0)
    802018bc:	00f707b3          	add	a5,a4,a5
    802018c0:	00078023          	sb	zero,0(a5)
    802018c4:	fe442783          	lw	a5,-28(s0)
    802018c8:	00078513          	mv	a0,a5
    802018cc:	03813403          	ld	s0,56(sp)
    802018d0:	04010113          	addi	sp,sp,64
    802018d4:	00008067          	ret

00000000802018d8 <int2str_hex>:
    802018d8:	fc010113          	addi	sp,sp,-64
    802018dc:	02813c23          	sd	s0,56(sp)
    802018e0:	04010413          	addi	s0,sp,64
    802018e4:	00050793          	mv	a5,a0
    802018e8:	fcb43023          	sd	a1,-64(s0)
    802018ec:	fcf42623          	sw	a5,-52(s0)
    802018f0:	fcc42783          	lw	a5,-52(s0)
    802018f4:	fef42623          	sw	a5,-20(s0)
    802018f8:	00100793          	li	a5,1
    802018fc:	fef42023          	sw	a5,-32(s0)
    80201900:	fe042423          	sw	zero,-24(s0)
    80201904:	fec42783          	lw	a5,-20(s0)
    80201908:	0007879b          	sext.w	a5,a5
    8020190c:	08079863          	bnez	a5,8020199c <int2str_hex+0xc4>
    80201910:	fe842783          	lw	a5,-24(s0)
    80201914:	fc043703          	ld	a4,-64(s0)
    80201918:	00f707b3          	add	a5,a4,a5
    8020191c:	03000713          	li	a4,48
    80201920:	00e78023          	sb	a4,0(a5)
    80201924:	fe842783          	lw	a5,-24(s0)
    80201928:	0017879b          	addiw	a5,a5,1
    8020192c:	fef42423          	sw	a5,-24(s0)
    80201930:	06c0006f          	j	8020199c <int2str_hex+0xc4>
    80201934:	fec42783          	lw	a5,-20(s0)
    80201938:	00f7f793          	andi	a5,a5,15
    8020193c:	fcf42c23          	sw	a5,-40(s0)
    80201940:	fd842783          	lw	a5,-40(s0)
    80201944:	0007871b          	sext.w	a4,a5
    80201948:	00900793          	li	a5,9
    8020194c:	00e7ec63          	bltu	a5,a4,80201964 <int2str_hex+0x8c>
    80201950:	fd842783          	lw	a5,-40(s0)
    80201954:	0ff7f793          	zext.b	a5,a5
    80201958:	0307879b          	addiw	a5,a5,48
    8020195c:	0ff7f793          	zext.b	a5,a5
    80201960:	0140006f          	j	80201974 <int2str_hex+0x9c>
    80201964:	fd842783          	lw	a5,-40(s0)
    80201968:	0ff7f793          	zext.b	a5,a5
    8020196c:	0577879b          	addiw	a5,a5,87
    80201970:	0ff7f793          	zext.b	a5,a5
    80201974:	fe842703          	lw	a4,-24(s0)
    80201978:	fc043683          	ld	a3,-64(s0)
    8020197c:	00e68733          	add	a4,a3,a4
    80201980:	00f70023          	sb	a5,0(a4)
    80201984:	fe842783          	lw	a5,-24(s0)
    80201988:	0017879b          	addiw	a5,a5,1
    8020198c:	fef42423          	sw	a5,-24(s0)
    80201990:	fec42783          	lw	a5,-20(s0)
    80201994:	0047d79b          	srliw	a5,a5,0x4
    80201998:	fef42623          	sw	a5,-20(s0)
    8020199c:	fec42783          	lw	a5,-20(s0)
    802019a0:	0007879b          	sext.w	a5,a5
    802019a4:	f80798e3          	bnez	a5,80201934 <int2str_hex+0x5c>
    802019a8:	fe042223          	sw	zero,-28(s0)
    802019ac:	09c0006f          	j	80201a48 <int2str_hex+0x170>
    802019b0:	fe842783          	lw	a5,-24(s0)
    802019b4:	00078713          	mv	a4,a5
    802019b8:	fe442783          	lw	a5,-28(s0)
    802019bc:	40f707bb          	subw	a5,a4,a5
    802019c0:	0007879b          	sext.w	a5,a5
    802019c4:	fe042703          	lw	a4,-32(s0)
    802019c8:	40e787bb          	subw	a5,a5,a4
    802019cc:	0007879b          	sext.w	a5,a5
    802019d0:	00078713          	mv	a4,a5
    802019d4:	fc043783          	ld	a5,-64(s0)
    802019d8:	00e787b3          	add	a5,a5,a4
    802019dc:	0007c783          	lbu	a5,0(a5)
    802019e0:	fcf42e23          	sw	a5,-36(s0)
    802019e4:	fe442783          	lw	a5,-28(s0)
    802019e8:	fc043703          	ld	a4,-64(s0)
    802019ec:	00f70733          	add	a4,a4,a5
    802019f0:	fe842783          	lw	a5,-24(s0)
    802019f4:	00078693          	mv	a3,a5
    802019f8:	fe442783          	lw	a5,-28(s0)
    802019fc:	40f687bb          	subw	a5,a3,a5
    80201a00:	0007879b          	sext.w	a5,a5
    80201a04:	fe042683          	lw	a3,-32(s0)
    80201a08:	40d787bb          	subw	a5,a5,a3
    80201a0c:	0007879b          	sext.w	a5,a5
    80201a10:	00078693          	mv	a3,a5
    80201a14:	fc043783          	ld	a5,-64(s0)
    80201a18:	00d787b3          	add	a5,a5,a3
    80201a1c:	00074703          	lbu	a4,0(a4)
    80201a20:	00e78023          	sb	a4,0(a5)
    80201a24:	fe442783          	lw	a5,-28(s0)
    80201a28:	fc043703          	ld	a4,-64(s0)
    80201a2c:	00f707b3          	add	a5,a4,a5
    80201a30:	fdc42703          	lw	a4,-36(s0)
    80201a34:	0ff77713          	zext.b	a4,a4
    80201a38:	00e78023          	sb	a4,0(a5)
    80201a3c:	fe442783          	lw	a5,-28(s0)
    80201a40:	0017879b          	addiw	a5,a5,1
    80201a44:	fef42223          	sw	a5,-28(s0)
    80201a48:	fe842783          	lw	a5,-24(s0)
    80201a4c:	01f7d71b          	srliw	a4,a5,0x1f
    80201a50:	00f707bb          	addw	a5,a4,a5
    80201a54:	4017d79b          	sraiw	a5,a5,0x1
    80201a58:	0007871b          	sext.w	a4,a5
    80201a5c:	fe442783          	lw	a5,-28(s0)
    80201a60:	0007879b          	sext.w	a5,a5
    80201a64:	f4e7c6e3          	blt	a5,a4,802019b0 <int2str_hex+0xd8>
    80201a68:	fe842783          	lw	a5,-24(s0)
    80201a6c:	fc043703          	ld	a4,-64(s0)
    80201a70:	00f707b3          	add	a5,a4,a5
    80201a74:	00078023          	sb	zero,0(a5)
    80201a78:	fe842783          	lw	a5,-24(s0)
    80201a7c:	00078513          	mv	a0,a5
    80201a80:	03813403          	ld	s0,56(sp)
    80201a84:	04010113          	addi	sp,sp,64
    80201a88:	00008067          	ret

0000000080201a8c <printf>:
    80201a8c:	d6010113          	addi	sp,sp,-672
    80201a90:	24113c23          	sd	ra,600(sp)
    80201a94:	24813823          	sd	s0,592(sp)
    80201a98:	24913423          	sd	s1,584(sp)
    80201a9c:	26010413          	addi	s0,sp,608
    80201aa0:	daa43423          	sd	a0,-600(s0)
    80201aa4:	00b43423          	sd	a1,8(s0)
    80201aa8:	00c43823          	sd	a2,16(s0)
    80201aac:	00d43c23          	sd	a3,24(s0)
    80201ab0:	02e43023          	sd	a4,32(s0)
    80201ab4:	02f43423          	sd	a5,40(s0)
    80201ab8:	03043823          	sd	a6,48(s0)
    80201abc:	03143c23          	sd	a7,56(s0)
    80201ac0:	fc042a23          	sw	zero,-44(s0)
    80201ac4:	04040793          	addi	a5,s0,64
    80201ac8:	daf43023          	sd	a5,-608(s0)
    80201acc:	da043783          	ld	a5,-608(s0)
    80201ad0:	fc878793          	addi	a5,a5,-56
    80201ad4:	faf43423          	sd	a5,-88(s0)
    80201ad8:	da843503          	ld	a0,-600(s0)
    80201adc:	588000ef          	jal	ra,80202064 <strlen>
    80201ae0:	fca43423          	sd	a0,-56(s0)
    80201ae4:	fc042e23          	sw	zero,-36(s0)
    80201ae8:	2a00006f          	j	80201d88 <printf+0x2fc>
    80201aec:	fdc42783          	lw	a5,-36(s0)
    80201af0:	da843703          	ld	a4,-600(s0)
    80201af4:	00f707b3          	add	a5,a4,a5
    80201af8:	0007c783          	lbu	a5,0(a5)
    80201afc:	00078713          	mv	a4,a5
    80201b00:	02500793          	li	a5,37
    80201b04:	24f71a63          	bne	a4,a5,80201d58 <printf+0x2cc>
    80201b08:	fdc42783          	lw	a5,-36(s0)
    80201b0c:	0017879b          	addiw	a5,a5,1
    80201b10:	0007879b          	sext.w	a5,a5
    80201b14:	00078493          	mv	s1,a5
    80201b18:	da843503          	ld	a0,-600(s0)
    80201b1c:	548000ef          	jal	ra,80202064 <strlen>
    80201b20:	00050793          	mv	a5,a0
    80201b24:	22f4fa63          	bgeu	s1,a5,80201d58 <printf+0x2cc>
    80201b28:	fdc42783          	lw	a5,-36(s0)
    80201b2c:	00178793          	addi	a5,a5,1
    80201b30:	da843703          	ld	a4,-600(s0)
    80201b34:	00f707b3          	add	a5,a4,a5
    80201b38:	0007c783          	lbu	a5,0(a5)
    80201b3c:	00078713          	mv	a4,a5
    80201b40:	06400793          	li	a5,100
    80201b44:	08f71a63          	bne	a4,a5,80201bd8 <printf+0x14c>
    80201b48:	fdc42783          	lw	a5,-36(s0)
    80201b4c:	0017879b          	addiw	a5,a5,1
    80201b50:	fcf42e23          	sw	a5,-36(s0)
    80201b54:	fa843783          	ld	a5,-88(s0)
    80201b58:	00878713          	addi	a4,a5,8
    80201b5c:	fae43423          	sd	a4,-88(s0)
    80201b60:	0007a783          	lw	a5,0(a5)
    80201b64:	faf42a23          	sw	a5,-76(s0)
    80201b68:	db040713          	addi	a4,s0,-592
    80201b6c:	fb442783          	lw	a5,-76(s0)
    80201b70:	00070593          	mv	a1,a4
    80201b74:	00078513          	mv	a0,a5
    80201b78:	b49ff0ef          	jal	ra,802016c0 <int2str>
    80201b7c:	00050793          	mv	a5,a0
    80201b80:	faf42823          	sw	a5,-80(s0)
    80201b84:	fc042c23          	sw	zero,-40(s0)
    80201b88:	0340006f          	j	80201bbc <printf+0x130>
    80201b8c:	fd842783          	lw	a5,-40(s0)
    80201b90:	fe078793          	addi	a5,a5,-32
    80201b94:	008787b3          	add	a5,a5,s0
    80201b98:	dd07c783          	lbu	a5,-560(a5)
    80201b9c:	00078513          	mv	a0,a5
    80201ba0:	510000ef          	jal	ra,802020b0 <putchar>
    80201ba4:	fd442783          	lw	a5,-44(s0)
    80201ba8:	0017879b          	addiw	a5,a5,1
    80201bac:	fcf42a23          	sw	a5,-44(s0)
    80201bb0:	fd842783          	lw	a5,-40(s0)
    80201bb4:	0017879b          	addiw	a5,a5,1
    80201bb8:	fcf42c23          	sw	a5,-40(s0)
    80201bbc:	fd842783          	lw	a5,-40(s0)
    80201bc0:	00078713          	mv	a4,a5
    80201bc4:	fb042783          	lw	a5,-80(s0)
    80201bc8:	0007071b          	sext.w	a4,a4
    80201bcc:	0007879b          	sext.w	a5,a5
    80201bd0:	faf74ee3          	blt	a4,a5,80201b8c <printf+0x100>
    80201bd4:	1a80006f          	j	80201d7c <printf+0x2f0>
    80201bd8:	fdc42783          	lw	a5,-36(s0)
    80201bdc:	00178793          	addi	a5,a5,1
    80201be0:	da843703          	ld	a4,-600(s0)
    80201be4:	00f707b3          	add	a5,a4,a5
    80201be8:	0007c783          	lbu	a5,0(a5)
    80201bec:	00078713          	mv	a4,a5
    80201bf0:	07800793          	li	a5,120
    80201bf4:	08f71a63          	bne	a4,a5,80201c88 <printf+0x1fc>
    80201bf8:	fdc42783          	lw	a5,-36(s0)
    80201bfc:	0017879b          	addiw	a5,a5,1
    80201c00:	fcf42e23          	sw	a5,-36(s0)
    80201c04:	fa843783          	ld	a5,-88(s0)
    80201c08:	00878713          	addi	a4,a5,8
    80201c0c:	fae43423          	sd	a4,-88(s0)
    80201c10:	0007a783          	lw	a5,0(a5)
    80201c14:	faf42e23          	sw	a5,-68(s0)
    80201c18:	db040713          	addi	a4,s0,-592
    80201c1c:	fbc42783          	lw	a5,-68(s0)
    80201c20:	00070593          	mv	a1,a4
    80201c24:	00078513          	mv	a0,a5
    80201c28:	cb1ff0ef          	jal	ra,802018d8 <int2str_hex>
    80201c2c:	00050793          	mv	a5,a0
    80201c30:	faf42c23          	sw	a5,-72(s0)
    80201c34:	fc042c23          	sw	zero,-40(s0)
    80201c38:	0340006f          	j	80201c6c <printf+0x1e0>
    80201c3c:	fd842783          	lw	a5,-40(s0)
    80201c40:	fe078793          	addi	a5,a5,-32
    80201c44:	008787b3          	add	a5,a5,s0
    80201c48:	dd07c783          	lbu	a5,-560(a5)
    80201c4c:	00078513          	mv	a0,a5
    80201c50:	460000ef          	jal	ra,802020b0 <putchar>
    80201c54:	fd442783          	lw	a5,-44(s0)
    80201c58:	0017879b          	addiw	a5,a5,1
    80201c5c:	fcf42a23          	sw	a5,-44(s0)
    80201c60:	fd842783          	lw	a5,-40(s0)
    80201c64:	0017879b          	addiw	a5,a5,1
    80201c68:	fcf42c23          	sw	a5,-40(s0)
    80201c6c:	fd842783          	lw	a5,-40(s0)
    80201c70:	00078713          	mv	a4,a5
    80201c74:	fb842783          	lw	a5,-72(s0)
    80201c78:	0007071b          	sext.w	a4,a4
    80201c7c:	0007879b          	sext.w	a5,a5
    80201c80:	faf74ee3          	blt	a4,a5,80201c3c <printf+0x1b0>
    80201c84:	0f80006f          	j	80201d7c <printf+0x2f0>
    80201c88:	fdc42783          	lw	a5,-36(s0)
    80201c8c:	00178793          	addi	a5,a5,1
    80201c90:	da843703          	ld	a4,-600(s0)
    80201c94:	00f707b3          	add	a5,a4,a5
    80201c98:	0007c783          	lbu	a5,0(a5)
    80201c9c:	00078713          	mv	a4,a5
    80201ca0:	07300793          	li	a5,115
    80201ca4:	06f71a63          	bne	a4,a5,80201d18 <printf+0x28c>
    80201ca8:	fdc42783          	lw	a5,-36(s0)
    80201cac:	0017879b          	addiw	a5,a5,1
    80201cb0:	fcf42e23          	sw	a5,-36(s0)
    80201cb4:	fa843783          	ld	a5,-88(s0)
    80201cb8:	00878713          	addi	a4,a5,8
    80201cbc:	fae43423          	sd	a4,-88(s0)
    80201cc0:	0007b783          	ld	a5,0(a5)
    80201cc4:	fcf43023          	sd	a5,-64(s0)
    80201cc8:	fc042c23          	sw	zero,-40(s0)
    80201ccc:	0340006f          	j	80201d00 <printf+0x274>
    80201cd0:	fd842783          	lw	a5,-40(s0)
    80201cd4:	fc043703          	ld	a4,-64(s0)
    80201cd8:	00f707b3          	add	a5,a4,a5
    80201cdc:	0007c783          	lbu	a5,0(a5)
    80201ce0:	00078513          	mv	a0,a5
    80201ce4:	3cc000ef          	jal	ra,802020b0 <putchar>
    80201ce8:	fd842783          	lw	a5,-40(s0)
    80201cec:	0017879b          	addiw	a5,a5,1
    80201cf0:	fcf42c23          	sw	a5,-40(s0)
    80201cf4:	fd442783          	lw	a5,-44(s0)
    80201cf8:	0017879b          	addiw	a5,a5,1
    80201cfc:	fcf42a23          	sw	a5,-44(s0)
    80201d00:	fd842783          	lw	a5,-40(s0)
    80201d04:	fc043703          	ld	a4,-64(s0)
    80201d08:	00f707b3          	add	a5,a4,a5
    80201d0c:	0007c783          	lbu	a5,0(a5)
    80201d10:	fc0790e3          	bnez	a5,80201cd0 <printf+0x244>
    80201d14:	0680006f          	j	80201d7c <printf+0x2f0>
    80201d18:	fdc42783          	lw	a5,-36(s0)
    80201d1c:	00178793          	addi	a5,a5,1
    80201d20:	da843703          	ld	a4,-600(s0)
    80201d24:	00f707b3          	add	a5,a4,a5
    80201d28:	0007c783          	lbu	a5,0(a5)
    80201d2c:	00078713          	mv	a4,a5
    80201d30:	02500793          	li	a5,37
    80201d34:	00f71e63          	bne	a4,a5,80201d50 <printf+0x2c4>
    80201d38:	fdc42783          	lw	a5,-36(s0)
    80201d3c:	0017879b          	addiw	a5,a5,1
    80201d40:	fcf42e23          	sw	a5,-36(s0)
    80201d44:	02500513          	li	a0,37
    80201d48:	368000ef          	jal	ra,802020b0 <putchar>
    80201d4c:	0300006f          	j	80201d7c <printf+0x2f0>
    80201d50:	fff00793          	li	a5,-1
    80201d54:	0440006f          	j	80201d98 <printf+0x30c>
    80201d58:	fdc42783          	lw	a5,-36(s0)
    80201d5c:	da843703          	ld	a4,-600(s0)
    80201d60:	00f707b3          	add	a5,a4,a5
    80201d64:	0007c783          	lbu	a5,0(a5)
    80201d68:	00078513          	mv	a0,a5
    80201d6c:	344000ef          	jal	ra,802020b0 <putchar>
    80201d70:	fd442783          	lw	a5,-44(s0)
    80201d74:	0017879b          	addiw	a5,a5,1
    80201d78:	fcf42a23          	sw	a5,-44(s0)
    80201d7c:	fdc42783          	lw	a5,-36(s0)
    80201d80:	0017879b          	addiw	a5,a5,1
    80201d84:	fcf42e23          	sw	a5,-36(s0)
    80201d88:	fdc42783          	lw	a5,-36(s0)
    80201d8c:	fc843703          	ld	a4,-56(s0)
    80201d90:	d4e7eee3          	bltu	a5,a4,80201aec <printf+0x60>
    80201d94:	fd442783          	lw	a5,-44(s0)
    80201d98:	00078513          	mv	a0,a5
    80201d9c:	25813083          	ld	ra,600(sp)
    80201da0:	25013403          	ld	s0,592(sp)
    80201da4:	24813483          	ld	s1,584(sp)
    80201da8:	2a010113          	addi	sp,sp,672
    80201dac:	00008067          	ret

0000000080201db0 <sprintf>:
    80201db0:	d6010113          	addi	sp,sp,-672
    80201db4:	26113423          	sd	ra,616(sp)
    80201db8:	26813023          	sd	s0,608(sp)
    80201dbc:	24913c23          	sd	s1,600(sp)
    80201dc0:	27010413          	addi	s0,sp,624
    80201dc4:	daa43423          	sd	a0,-600(s0)
    80201dc8:	dab43023          	sd	a1,-608(s0)
    80201dcc:	00c43023          	sd	a2,0(s0)
    80201dd0:	00d43423          	sd	a3,8(s0)
    80201dd4:	00e43823          	sd	a4,16(s0)
    80201dd8:	00f43c23          	sd	a5,24(s0)
    80201ddc:	03043023          	sd	a6,32(s0)
    80201de0:	03143423          	sd	a7,40(s0)
    80201de4:	fc042a23          	sw	zero,-44(s0)
    80201de8:	03040793          	addi	a5,s0,48
    80201dec:	d8f43c23          	sd	a5,-616(s0)
    80201df0:	d9843783          	ld	a5,-616(s0)
    80201df4:	fd078793          	addi	a5,a5,-48
    80201df8:	faf43823          	sd	a5,-80(s0)
    80201dfc:	da043503          	ld	a0,-608(s0)
    80201e00:	264000ef          	jal	ra,80202064 <strlen>
    80201e04:	fca43423          	sd	a0,-56(s0)
    80201e08:	fc042e23          	sw	zero,-36(s0)
    80201e0c:	2200006f          	j	8020202c <sprintf+0x27c>
    80201e10:	fdc42783          	lw	a5,-36(s0)
    80201e14:	da043703          	ld	a4,-608(s0)
    80201e18:	00f707b3          	add	a5,a4,a5
    80201e1c:	0007c783          	lbu	a5,0(a5)
    80201e20:	00078713          	mv	a4,a5
    80201e24:	02500793          	li	a5,37
    80201e28:	1cf71663          	bne	a4,a5,80201ff4 <sprintf+0x244>
    80201e2c:	fdc42783          	lw	a5,-36(s0)
    80201e30:	0017879b          	addiw	a5,a5,1
    80201e34:	0007879b          	sext.w	a5,a5
    80201e38:	00078493          	mv	s1,a5
    80201e3c:	da043503          	ld	a0,-608(s0)
    80201e40:	224000ef          	jal	ra,80202064 <strlen>
    80201e44:	00050793          	mv	a5,a0
    80201e48:	1af4f663          	bgeu	s1,a5,80201ff4 <sprintf+0x244>
    80201e4c:	fdc42783          	lw	a5,-36(s0)
    80201e50:	00178793          	addi	a5,a5,1
    80201e54:	da043703          	ld	a4,-608(s0)
    80201e58:	00f707b3          	add	a5,a4,a5
    80201e5c:	0007c783          	lbu	a5,0(a5)
    80201e60:	00078713          	mv	a4,a5
    80201e64:	06400793          	li	a5,100
    80201e68:	08f71e63          	bne	a4,a5,80201f04 <sprintf+0x154>
    80201e6c:	fdc42783          	lw	a5,-36(s0)
    80201e70:	0017879b          	addiw	a5,a5,1
    80201e74:	fcf42e23          	sw	a5,-36(s0)
    80201e78:	fb043783          	ld	a5,-80(s0)
    80201e7c:	00878713          	addi	a4,a5,8
    80201e80:	fae43823          	sd	a4,-80(s0)
    80201e84:	0007a783          	lw	a5,0(a5)
    80201e88:	faf42e23          	sw	a5,-68(s0)
    80201e8c:	db840713          	addi	a4,s0,-584
    80201e90:	fbc42783          	lw	a5,-68(s0)
    80201e94:	00070593          	mv	a1,a4
    80201e98:	00078513          	mv	a0,a5
    80201e9c:	825ff0ef          	jal	ra,802016c0 <int2str>
    80201ea0:	00050793          	mv	a5,a0
    80201ea4:	faf42c23          	sw	a5,-72(s0)
    80201ea8:	fc042c23          	sw	zero,-40(s0)
    80201eac:	03c0006f          	j	80201ee8 <sprintf+0x138>
    80201eb0:	fd442783          	lw	a5,-44(s0)
    80201eb4:	da843703          	ld	a4,-600(s0)
    80201eb8:	00f707b3          	add	a5,a4,a5
    80201ebc:	fd842703          	lw	a4,-40(s0)
    80201ec0:	fe070713          	addi	a4,a4,-32
    80201ec4:	00870733          	add	a4,a4,s0
    80201ec8:	dd874703          	lbu	a4,-552(a4)
    80201ecc:	00e78023          	sb	a4,0(a5)
    80201ed0:	fd442783          	lw	a5,-44(s0)
    80201ed4:	0017879b          	addiw	a5,a5,1
    80201ed8:	fcf42a23          	sw	a5,-44(s0)
    80201edc:	fd842783          	lw	a5,-40(s0)
    80201ee0:	0017879b          	addiw	a5,a5,1
    80201ee4:	fcf42c23          	sw	a5,-40(s0)
    80201ee8:	fd842783          	lw	a5,-40(s0)
    80201eec:	00078713          	mv	a4,a5
    80201ef0:	fb842783          	lw	a5,-72(s0)
    80201ef4:	0007071b          	sext.w	a4,a4
    80201ef8:	0007879b          	sext.w	a5,a5
    80201efc:	faf74ae3          	blt	a4,a5,80201eb0 <sprintf+0x100>
    80201f00:	1200006f          	j	80202020 <sprintf+0x270>
    80201f04:	fdc42783          	lw	a5,-36(s0)
    80201f08:	00178793          	addi	a5,a5,1
    80201f0c:	da043703          	ld	a4,-608(s0)
    80201f10:	00f707b3          	add	a5,a4,a5
    80201f14:	0007c783          	lbu	a5,0(a5)
    80201f18:	00078713          	mv	a4,a5
    80201f1c:	07300793          	li	a5,115
    80201f20:	06f71e63          	bne	a4,a5,80201f9c <sprintf+0x1ec>
    80201f24:	fdc42783          	lw	a5,-36(s0)
    80201f28:	0017879b          	addiw	a5,a5,1
    80201f2c:	fcf42e23          	sw	a5,-36(s0)
    80201f30:	fb043783          	ld	a5,-80(s0)
    80201f34:	00878713          	addi	a4,a5,8
    80201f38:	fae43823          	sd	a4,-80(s0)
    80201f3c:	0007b783          	ld	a5,0(a5)
    80201f40:	fcf43023          	sd	a5,-64(s0)
    80201f44:	fc042c23          	sw	zero,-40(s0)
    80201f48:	03c0006f          	j	80201f84 <sprintf+0x1d4>
    80201f4c:	fd842783          	lw	a5,-40(s0)
    80201f50:	fc043703          	ld	a4,-64(s0)
    80201f54:	00f70733          	add	a4,a4,a5
    80201f58:	fd442783          	lw	a5,-44(s0)
    80201f5c:	da843683          	ld	a3,-600(s0)
    80201f60:	00f687b3          	add	a5,a3,a5
    80201f64:	00074703          	lbu	a4,0(a4)
    80201f68:	00e78023          	sb	a4,0(a5)
    80201f6c:	fd842783          	lw	a5,-40(s0)
    80201f70:	0017879b          	addiw	a5,a5,1
    80201f74:	fcf42c23          	sw	a5,-40(s0)
    80201f78:	fd442783          	lw	a5,-44(s0)
    80201f7c:	0017879b          	addiw	a5,a5,1
    80201f80:	fcf42a23          	sw	a5,-44(s0)
    80201f84:	fd842783          	lw	a5,-40(s0)
    80201f88:	fc043703          	ld	a4,-64(s0)
    80201f8c:	00f707b3          	add	a5,a4,a5
    80201f90:	0007c783          	lbu	a5,0(a5)
    80201f94:	fa079ce3          	bnez	a5,80201f4c <sprintf+0x19c>
    80201f98:	0880006f          	j	80202020 <sprintf+0x270>
    80201f9c:	fdc42783          	lw	a5,-36(s0)
    80201fa0:	00178793          	addi	a5,a5,1
    80201fa4:	da043703          	ld	a4,-608(s0)
    80201fa8:	00f707b3          	add	a5,a4,a5
    80201fac:	0007c783          	lbu	a5,0(a5)
    80201fb0:	00078713          	mv	a4,a5
    80201fb4:	02500793          	li	a5,37
    80201fb8:	02f71a63          	bne	a4,a5,80201fec <sprintf+0x23c>
    80201fbc:	fdc42783          	lw	a5,-36(s0)
    80201fc0:	0017879b          	addiw	a5,a5,1
    80201fc4:	fcf42e23          	sw	a5,-36(s0)
    80201fc8:	fd442783          	lw	a5,-44(s0)
    80201fcc:	0017871b          	addiw	a4,a5,1
    80201fd0:	fce42a23          	sw	a4,-44(s0)
    80201fd4:	00078713          	mv	a4,a5
    80201fd8:	da843783          	ld	a5,-600(s0)
    80201fdc:	00e787b3          	add	a5,a5,a4
    80201fe0:	02500713          	li	a4,37
    80201fe4:	00e78023          	sb	a4,0(a5)
    80201fe8:	0380006f          	j	80202020 <sprintf+0x270>
    80201fec:	fff00793          	li	a5,-1
    80201ff0:	05c0006f          	j	8020204c <sprintf+0x29c>
    80201ff4:	fdc42783          	lw	a5,-36(s0)
    80201ff8:	da043703          	ld	a4,-608(s0)
    80201ffc:	00f70733          	add	a4,a4,a5
    80202000:	fd442783          	lw	a5,-44(s0)
    80202004:	da843683          	ld	a3,-600(s0)
    80202008:	00f687b3          	add	a5,a3,a5
    8020200c:	00074703          	lbu	a4,0(a4)
    80202010:	00e78023          	sb	a4,0(a5)
    80202014:	fd442783          	lw	a5,-44(s0)
    80202018:	0017879b          	addiw	a5,a5,1
    8020201c:	fcf42a23          	sw	a5,-44(s0)
    80202020:	fdc42783          	lw	a5,-36(s0)
    80202024:	0017879b          	addiw	a5,a5,1
    80202028:	fcf42e23          	sw	a5,-36(s0)
    8020202c:	fdc42783          	lw	a5,-36(s0)
    80202030:	fc843703          	ld	a4,-56(s0)
    80202034:	dce7eee3          	bltu	a5,a4,80201e10 <sprintf+0x60>
    80202038:	fd442783          	lw	a5,-44(s0)
    8020203c:	da843703          	ld	a4,-600(s0)
    80202040:	00f707b3          	add	a5,a4,a5
    80202044:	00078023          	sb	zero,0(a5)
    80202048:	fd442783          	lw	a5,-44(s0)
    8020204c:	00078513          	mv	a0,a5
    80202050:	26813083          	ld	ra,616(sp)
    80202054:	26013403          	ld	s0,608(sp)
    80202058:	25813483          	ld	s1,600(sp)
    8020205c:	2a010113          	addi	sp,sp,672
    80202060:	00008067          	ret

0000000080202064 <strlen>:
    80202064:	fd010113          	addi	sp,sp,-48
    80202068:	02813423          	sd	s0,40(sp)
    8020206c:	03010413          	addi	s0,sp,48
    80202070:	fca43c23          	sd	a0,-40(s0)
    80202074:	fe043423          	sd	zero,-24(s0)
    80202078:	0100006f          	j	80202088 <strlen+0x24>
    8020207c:	fe843783          	ld	a5,-24(s0)
    80202080:	00178793          	addi	a5,a5,1
    80202084:	fef43423          	sd	a5,-24(s0)
    80202088:	fd843703          	ld	a4,-40(s0)
    8020208c:	fe843783          	ld	a5,-24(s0)
    80202090:	00f707b3          	add	a5,a4,a5
    80202094:	0007c783          	lbu	a5,0(a5)
    80202098:	fe0792e3          	bnez	a5,8020207c <strlen+0x18>
    8020209c:	fe843783          	ld	a5,-24(s0)
    802020a0:	00078513          	mv	a0,a5
    802020a4:	02813403          	ld	s0,40(sp)
    802020a8:	03010113          	addi	sp,sp,48
    802020ac:	00008067          	ret

00000000802020b0 <putchar>:
    802020b0:	fe010113          	addi	sp,sp,-32
    802020b4:	00813c23          	sd	s0,24(sp)
    802020b8:	02010413          	addi	s0,sp,32
    802020bc:	00050793          	mv	a5,a0
    802020c0:	fef407a3          	sb	a5,-17(s0)
    802020c4:	00500793          	li	a5,5
    802020c8:	01d79793          	slli	a5,a5,0x1d
    802020cc:	3f878793          	addi	a5,a5,1016
    802020d0:	fef44703          	lbu	a4,-17(s0)
    802020d4:	00e78023          	sb	a4,0(a5)
    802020d8:	00000013          	nop
    802020dc:	01813403          	ld	s0,24(sp)
    802020e0:	02010113          	addi	sp,sp,32
    802020e4:	00008067          	ret

00000000802020e8 <putstr>:
    802020e8:	fd010113          	addi	sp,sp,-48
    802020ec:	02813423          	sd	s0,40(sp)
    802020f0:	03010413          	addi	s0,sp,48
    802020f4:	fca43c23          	sd	a0,-40(s0)
    802020f8:	fe042623          	sw	zero,-20(s0)
    802020fc:	0300006f          	j	8020212c <putstr+0x44>
    80202100:	fec42783          	lw	a5,-20(s0)
    80202104:	fd843703          	ld	a4,-40(s0)
    80202108:	00f70733          	add	a4,a4,a5
    8020210c:	00500793          	li	a5,5
    80202110:	01d79793          	slli	a5,a5,0x1d
    80202114:	3f878793          	addi	a5,a5,1016
    80202118:	00074703          	lbu	a4,0(a4)
    8020211c:	00e78023          	sb	a4,0(a5)
    80202120:	fec42783          	lw	a5,-20(s0)
    80202124:	0017879b          	addiw	a5,a5,1
    80202128:	fef42623          	sw	a5,-20(s0)
    8020212c:	fec42783          	lw	a5,-20(s0)
    80202130:	fd843703          	ld	a4,-40(s0)
    80202134:	00f707b3          	add	a5,a4,a5
    80202138:	0007c783          	lbu	a5,0(a5)
    8020213c:	fc0792e3          	bnez	a5,80202100 <putstr+0x18>
    80202140:	00000013          	nop
    80202144:	00000013          	nop
    80202148:	02813403          	ld	s0,40(sp)
    8020214c:	03010113          	addi	sp,sp,48
    80202150:	00008067          	ret
