
/home/porterlu/academic/sustemu/litenes/build/litenes-riscv64-nemu.elf:     file format elf64-littleriscv


Disassembly of section .text:

0000000080000000 <_start>:
    80000000:	00000413          	li	s0,0
    80000004:	00183117          	auipc	sp,0x183
    80000008:	ffc10113          	addi	sp,sp,-4 # 80183000 <_end>
    8000000c:	0d0040ef          	jal	ra,800040dc <_trm_init>

0000000080000010 <psgio_read>:
    80000010:	000047b7          	lui	a5,0x4
    80000014:	01678793          	addi	a5,a5,22 # 4016 <_entry_offset+0x4016>
    80000018:	00f50663          	beq	a0,a5,80000024 <psgio_read+0x14>
    8000001c:	00000513          	li	a0,0
    80000020:	00008067          	ret
    80000024:	00005717          	auipc	a4,0x5
    80000028:	18870713          	addi	a4,a4,392 # 800051ac <p>
    8000002c:	00072783          	lw	a5,0(a4)
    80000030:	0017869b          	addiw	a3,a5,1
    80000034:	0006861b          	sext.w	a2,a3
    80000038:	00d72023          	sw	a3,0(a4)
    8000003c:	00800713          	li	a4,8
    80000040:	00000513          	li	a0,0
    80000044:	fcf74ee3          	blt	a4,a5,80000020 <psgio_read+0x10>
    80000048:	00261613          	slli	a2,a2,0x2
    8000004c:	00005797          	auipc	a5,0x5
    80000050:	87478793          	addi	a5,a5,-1932 # 800048c0 <MAP>
    80000054:	00c787b3          	add	a5,a5,a2
    80000058:	0007a703          	lw	a4,0(a5)
    8000005c:	00271713          	slli	a4,a4,0x2
    80000060:	0000f797          	auipc	a5,0xf
    80000064:	57078793          	addi	a5,a5,1392 # 8000f5d0 <key_state>
    80000068:	00e787b3          	add	a5,a5,a4
    8000006c:	0007c503          	lbu	a0,0(a5)
    80000070:	00008067          	ret

0000000080000074 <psgio_write>:
    80000074:	000047b7          	lui	a5,0x4
    80000078:	01678793          	addi	a5,a5,22 # 4016 <_entry_offset+0x4016>
    8000007c:	00f50a63          	beq	a0,a5,80000090 <psgio_write+0x1c>
    80000080:	0015f593          	andi	a1,a1,1
    80000084:	0017b797          	auipc	a5,0x17b
    80000088:	e4b78223          	sb	a1,-444(a5) # 8017aec8 <prev_write.0>
    8000008c:	00008067          	ret
    80000090:	0015f793          	andi	a5,a1,1
    80000094:	fe0796e3          	bnez	a5,80000080 <psgio_write+0xc>
    80000098:	0017b717          	auipc	a4,0x17b
    8000009c:	e3074703          	lbu	a4,-464(a4) # 8017aec8 <prev_write.0>
    800000a0:	00100793          	li	a5,1
    800000a4:	fcf71ee3          	bne	a4,a5,80000080 <psgio_write+0xc>
    800000a8:	00005797          	auipc	a5,0x5
    800000ac:	1007a223          	sw	zero,260(a5) # 800051ac <p>
    800000b0:	fd1ff06f          	j	80000080 <psgio_write+0xc>

00000000800000b4 <psg_detect_key>:
    800000b4:	fe010113          	addi	sp,sp,-32
    800000b8:	00113c23          	sd	ra,24(sp)
    800000bc:	00813823          	sd	s0,16(sp)
    800000c0:	0000f417          	auipc	s0,0xf
    800000c4:	51040413          	addi	s0,s0,1296 # 8000f5d0 <key_state>
    800000c8:	0100006f          	j	800000d8 <psg_detect_key+0x24>
    800000cc:	00279793          	slli	a5,a5,0x2
    800000d0:	00f407b3          	add	a5,s0,a5
    800000d4:	00e7a023          	sw	a4,0(a5)
    800000d8:	00810593          	addi	a1,sp,8
    800000dc:	00800513          	li	a0,8
    800000e0:	108040ef          	jal	ra,800041e8 <ioe_read>
    800000e4:	00814703          	lbu	a4,8(sp)
    800000e8:	00c12783          	lw	a5,12(sp)
    800000ec:	fe0790e3          	bnez	a5,800000cc <psg_detect_key+0x18>
    800000f0:	01813083          	ld	ra,24(sp)
    800000f4:	01013403          	ld	s0,16(sp)
    800000f8:	02010113          	addi	sp,sp,32
    800000fc:	00008067          	ret

0000000080000100 <cpu_address_implied>:
    80000100:	00008067          	ret

0000000080000104 <cpu_address_immediate>:
    80000104:	ff010113          	addi	sp,sp,-16
    80000108:	00113423          	sd	ra,8(sp)
    8000010c:	00813023          	sd	s0,0(sp)
    80000110:	0017b417          	auipc	s0,0x17b
    80000114:	de840413          	addi	s0,s0,-536 # 8017aef8 <cpu>
    80000118:	00045503          	lhu	a0,0(s0)
    8000011c:	22d000ef          	jal	ra,80000b48 <memory_readb>
    80000120:	0017b797          	auipc	a5,0x17b
    80000124:	dea7aa23          	sw	a0,-524(a5) # 8017af14 <op_value>
    80000128:	00045783          	lhu	a5,0(s0)
    8000012c:	0017879b          	addiw	a5,a5,1
    80000130:	00f41023          	sh	a5,0(s0)
    80000134:	00813083          	ld	ra,8(sp)
    80000138:	00013403          	ld	s0,0(sp)
    8000013c:	01010113          	addi	sp,sp,16
    80000140:	00008067          	ret

0000000080000144 <cpu_address_zero_page>:
    80000144:	ff010113          	addi	sp,sp,-16
    80000148:	00113423          	sd	ra,8(sp)
    8000014c:	00813023          	sd	s0,0(sp)
    80000150:	0017b417          	auipc	s0,0x17b
    80000154:	da840413          	addi	s0,s0,-600 # 8017aef8 <cpu>
    80000158:	00045503          	lhu	a0,0(s0)
    8000015c:	1ed000ef          	jal	ra,80000b48 <memory_readb>
    80000160:	0005051b          	sext.w	a0,a0
    80000164:	0017b797          	auipc	a5,0x17b
    80000168:	daa7a223          	sw	a0,-604(a5) # 8017af08 <op_address>
    8000016c:	00172797          	auipc	a5,0x172
    80000170:	94c78793          	addi	a5,a5,-1716 # 80171ab8 <CPU_RAM>
    80000174:	00a787b3          	add	a5,a5,a0
    80000178:	0007c783          	lbu	a5,0(a5)
    8000017c:	0017b717          	auipc	a4,0x17b
    80000180:	d8f72c23          	sw	a5,-616(a4) # 8017af14 <op_value>
    80000184:	00045783          	lhu	a5,0(s0)
    80000188:	0017879b          	addiw	a5,a5,1
    8000018c:	00f41023          	sh	a5,0(s0)
    80000190:	00813083          	ld	ra,8(sp)
    80000194:	00013403          	ld	s0,0(sp)
    80000198:	01010113          	addi	sp,sp,16
    8000019c:	00008067          	ret

00000000800001a0 <cpu_address_zero_page_x>:
    800001a0:	ff010113          	addi	sp,sp,-16
    800001a4:	00113423          	sd	ra,8(sp)
    800001a8:	00813023          	sd	s0,0(sp)
    800001ac:	0017b417          	auipc	s0,0x17b
    800001b0:	d4c40413          	addi	s0,s0,-692 # 8017aef8 <cpu>
    800001b4:	00045503          	lhu	a0,0(s0)
    800001b8:	191000ef          	jal	ra,80000b48 <memory_readb>
    800001bc:	00444783          	lbu	a5,4(s0)
    800001c0:	00a7853b          	addw	a0,a5,a0
    800001c4:	0ff57793          	zext.b	a5,a0
    800001c8:	0ff57513          	zext.b	a0,a0
    800001cc:	0017b717          	auipc	a4,0x17b
    800001d0:	d2f72e23          	sw	a5,-708(a4) # 8017af08 <op_address>
    800001d4:	00172797          	auipc	a5,0x172
    800001d8:	8e478793          	addi	a5,a5,-1820 # 80171ab8 <CPU_RAM>
    800001dc:	00a787b3          	add	a5,a5,a0
    800001e0:	0007c783          	lbu	a5,0(a5)
    800001e4:	0017b717          	auipc	a4,0x17b
    800001e8:	d2f72823          	sw	a5,-720(a4) # 8017af14 <op_value>
    800001ec:	00045783          	lhu	a5,0(s0)
    800001f0:	0017879b          	addiw	a5,a5,1
    800001f4:	00f41023          	sh	a5,0(s0)
    800001f8:	00813083          	ld	ra,8(sp)
    800001fc:	00013403          	ld	s0,0(sp)
    80000200:	01010113          	addi	sp,sp,16
    80000204:	00008067          	ret

0000000080000208 <cpu_address_zero_page_y>:
    80000208:	ff010113          	addi	sp,sp,-16
    8000020c:	00113423          	sd	ra,8(sp)
    80000210:	00813023          	sd	s0,0(sp)
    80000214:	0017b417          	auipc	s0,0x17b
    80000218:	ce440413          	addi	s0,s0,-796 # 8017aef8 <cpu>
    8000021c:	00045503          	lhu	a0,0(s0)
    80000220:	129000ef          	jal	ra,80000b48 <memory_readb>
    80000224:	00544783          	lbu	a5,5(s0)
    80000228:	00a7853b          	addw	a0,a5,a0
    8000022c:	0ff57793          	zext.b	a5,a0
    80000230:	0ff57513          	zext.b	a0,a0
    80000234:	0017b717          	auipc	a4,0x17b
    80000238:	ccf72a23          	sw	a5,-812(a4) # 8017af08 <op_address>
    8000023c:	00172797          	auipc	a5,0x172
    80000240:	87c78793          	addi	a5,a5,-1924 # 80171ab8 <CPU_RAM>
    80000244:	00a787b3          	add	a5,a5,a0
    80000248:	0007c783          	lbu	a5,0(a5)
    8000024c:	0017b717          	auipc	a4,0x17b
    80000250:	ccf72423          	sw	a5,-824(a4) # 8017af14 <op_value>
    80000254:	00045783          	lhu	a5,0(s0)
    80000258:	0017879b          	addiw	a5,a5,1
    8000025c:	00f41023          	sh	a5,0(s0)
    80000260:	00813083          	ld	ra,8(sp)
    80000264:	00013403          	ld	s0,0(sp)
    80000268:	01010113          	addi	sp,sp,16
    8000026c:	00008067          	ret

0000000080000270 <cpu_address_absolute>:
    80000270:	ff010113          	addi	sp,sp,-16
    80000274:	00113423          	sd	ra,8(sp)
    80000278:	00813023          	sd	s0,0(sp)
    8000027c:	0017b417          	auipc	s0,0x17b
    80000280:	c7c40413          	addi	s0,s0,-900 # 8017aef8 <cpu>
    80000284:	00045503          	lhu	a0,0(s0)
    80000288:	209000ef          	jal	ra,80000c90 <memory_readw>
    8000028c:	0017b717          	auipc	a4,0x17b
    80000290:	c6a72e23          	sw	a0,-900(a4) # 8017af08 <op_address>
    80000294:	0b5000ef          	jal	ra,80000b48 <memory_readb>
    80000298:	0017b797          	auipc	a5,0x17b
    8000029c:	c6a7ae23          	sw	a0,-900(a5) # 8017af14 <op_value>
    800002a0:	00045783          	lhu	a5,0(s0)
    800002a4:	0027879b          	addiw	a5,a5,2
    800002a8:	00f41023          	sh	a5,0(s0)
    800002ac:	00813083          	ld	ra,8(sp)
    800002b0:	00013403          	ld	s0,0(sp)
    800002b4:	01010113          	addi	sp,sp,16
    800002b8:	00008067          	ret

00000000800002bc <cpu_address_absolute_x>:
    800002bc:	fe010113          	addi	sp,sp,-32
    800002c0:	00113c23          	sd	ra,24(sp)
    800002c4:	00813823          	sd	s0,16(sp)
    800002c8:	00913423          	sd	s1,8(sp)
    800002cc:	0017b417          	auipc	s0,0x17b
    800002d0:	c2c40413          	addi	s0,s0,-980 # 8017aef8 <cpu>
    800002d4:	00045503          	lhu	a0,0(s0)
    800002d8:	1b9000ef          	jal	ra,80000c90 <memory_readw>
    800002dc:	00444783          	lbu	a5,4(s0)
    800002e0:	00a7853b          	addw	a0,a5,a0
    800002e4:	0017b497          	auipc	s1,0x17b
    800002e8:	c2448493          	addi	s1,s1,-988 # 8017af08 <op_address>
    800002ec:	00a4a023          	sw	a0,0(s1)
    800002f0:	03051513          	slli	a0,a0,0x30
    800002f4:	03055513          	srli	a0,a0,0x30
    800002f8:	051000ef          	jal	ra,80000b48 <memory_readb>
    800002fc:	0017b797          	auipc	a5,0x17b
    80000300:	c0a7ac23          	sw	a0,-1000(a5) # 8017af14 <op_value>
    80000304:	00045783          	lhu	a5,0(s0)
    80000308:	0027879b          	addiw	a5,a5,2
    8000030c:	03079793          	slli	a5,a5,0x30
    80000310:	0307d793          	srli	a5,a5,0x30
    80000314:	00f41023          	sh	a5,0(s0)
    80000318:	0004a703          	lw	a4,0(s1)
    8000031c:	4087571b          	sraiw	a4,a4,0x8
    80000320:	0087d793          	srli	a5,a5,0x8
    80000324:	00f70c63          	beq	a4,a5,8000033c <cpu_address_absolute_x+0x80>
    80000328:	0017b717          	auipc	a4,0x17b
    8000032c:	be870713          	addi	a4,a4,-1048 # 8017af10 <op_cycles>
    80000330:	00072783          	lw	a5,0(a4)
    80000334:	0017879b          	addiw	a5,a5,1
    80000338:	00f72023          	sw	a5,0(a4)
    8000033c:	01813083          	ld	ra,24(sp)
    80000340:	01013403          	ld	s0,16(sp)
    80000344:	00813483          	ld	s1,8(sp)
    80000348:	02010113          	addi	sp,sp,32
    8000034c:	00008067          	ret

0000000080000350 <cpu_address_absolute_y>:
    80000350:	fe010113          	addi	sp,sp,-32
    80000354:	00113c23          	sd	ra,24(sp)
    80000358:	00813823          	sd	s0,16(sp)
    8000035c:	00913423          	sd	s1,8(sp)
    80000360:	0017b417          	auipc	s0,0x17b
    80000364:	b9840413          	addi	s0,s0,-1128 # 8017aef8 <cpu>
    80000368:	00045503          	lhu	a0,0(s0)
    8000036c:	125000ef          	jal	ra,80000c90 <memory_readw>
    80000370:	00544783          	lbu	a5,5(s0)
    80000374:	00a7853b          	addw	a0,a5,a0
    80000378:	0017b497          	auipc	s1,0x17b
    8000037c:	b9048493          	addi	s1,s1,-1136 # 8017af08 <op_address>
    80000380:	03051793          	slli	a5,a0,0x30
    80000384:	0307d793          	srli	a5,a5,0x30
    80000388:	00f4a023          	sw	a5,0(s1)
    8000038c:	00078513          	mv	a0,a5
    80000390:	7b8000ef          	jal	ra,80000b48 <memory_readb>
    80000394:	0017b797          	auipc	a5,0x17b
    80000398:	b8a7a023          	sw	a0,-1152(a5) # 8017af14 <op_value>
    8000039c:	00045783          	lhu	a5,0(s0)
    800003a0:	0027879b          	addiw	a5,a5,2
    800003a4:	03079793          	slli	a5,a5,0x30
    800003a8:	0307d793          	srli	a5,a5,0x30
    800003ac:	00f41023          	sh	a5,0(s0)
    800003b0:	0004a703          	lw	a4,0(s1)
    800003b4:	4087571b          	sraiw	a4,a4,0x8
    800003b8:	0087d793          	srli	a5,a5,0x8
    800003bc:	00f70c63          	beq	a4,a5,800003d4 <cpu_address_absolute_y+0x84>
    800003c0:	0017b717          	auipc	a4,0x17b
    800003c4:	b5070713          	addi	a4,a4,-1200 # 8017af10 <op_cycles>
    800003c8:	00072783          	lw	a5,0(a4)
    800003cc:	0017879b          	addiw	a5,a5,1
    800003d0:	00f72023          	sw	a5,0(a4)
    800003d4:	01813083          	ld	ra,24(sp)
    800003d8:	01013403          	ld	s0,16(sp)
    800003dc:	00813483          	ld	s1,8(sp)
    800003e0:	02010113          	addi	sp,sp,32
    800003e4:	00008067          	ret

00000000800003e8 <cpu_address_relative>:
    800003e8:	ff010113          	addi	sp,sp,-16
    800003ec:	00113423          	sd	ra,8(sp)
    800003f0:	00813023          	sd	s0,0(sp)
    800003f4:	0017b417          	auipc	s0,0x17b
    800003f8:	b0440413          	addi	s0,s0,-1276 # 8017aef8 <cpu>
    800003fc:	00045503          	lhu	a0,0(s0)
    80000400:	748000ef          	jal	ra,80000b48 <memory_readb>
    80000404:	0005071b          	sext.w	a4,a0
    80000408:	0017b797          	auipc	a5,0x17b
    8000040c:	b0e7a023          	sw	a4,-1280(a5) # 8017af08 <op_address>
    80000410:	00045783          	lhu	a5,0(s0)
    80000414:	0017879b          	addiw	a5,a5,1
    80000418:	03079793          	slli	a5,a5,0x30
    8000041c:	0307d793          	srli	a5,a5,0x30
    80000420:	00f41023          	sh	a5,0(s0)
    80000424:	0185151b          	slliw	a0,a0,0x18
    80000428:	4185551b          	sraiw	a0,a0,0x18
    8000042c:	00055863          	bgez	a0,8000043c <cpu_address_relative+0x54>
    80000430:	f007071b          	addiw	a4,a4,-256
    80000434:	0017b697          	auipc	a3,0x17b
    80000438:	ace6aa23          	sw	a4,-1324(a3) # 8017af08 <op_address>
    8000043c:	0017b697          	auipc	a3,0x17b
    80000440:	acc68693          	addi	a3,a3,-1332 # 8017af08 <op_address>
    80000444:	0006a703          	lw	a4,0(a3)
    80000448:	00f7073b          	addw	a4,a4,a5
    8000044c:	00e6a023          	sw	a4,0(a3)
    80000450:	4087571b          	sraiw	a4,a4,0x8
    80000454:	0087d793          	srli	a5,a5,0x8
    80000458:	00f70c63          	beq	a4,a5,80000470 <cpu_address_relative+0x88>
    8000045c:	0017b717          	auipc	a4,0x17b
    80000460:	ab470713          	addi	a4,a4,-1356 # 8017af10 <op_cycles>
    80000464:	00072783          	lw	a5,0(a4)
    80000468:	0017879b          	addiw	a5,a5,1
    8000046c:	00f72023          	sw	a5,0(a4)
    80000470:	00813083          	ld	ra,8(sp)
    80000474:	00013403          	ld	s0,0(sp)
    80000478:	01010113          	addi	sp,sp,16
    8000047c:	00008067          	ret

0000000080000480 <cpu_address_indirect>:
    80000480:	fe010113          	addi	sp,sp,-32
    80000484:	00113c23          	sd	ra,24(sp)
    80000488:	00813823          	sd	s0,16(sp)
    8000048c:	00913423          	sd	s1,8(sp)
    80000490:	0017b517          	auipc	a0,0x17b
    80000494:	a6855503          	lhu	a0,-1432(a0) # 8017aef8 <cpu>
    80000498:	7f8000ef          	jal	ra,80000c90 <memory_readw>
    8000049c:	00050493          	mv	s1,a0
    800004a0:	0ff57713          	zext.b	a4,a0
    800004a4:	0ff00793          	li	a5,255
    800004a8:	02f70e63          	beq	a4,a5,800004e4 <cpu_address_indirect+0x64>
    800004ac:	7e4000ef          	jal	ra,80000c90 <memory_readw>
    800004b0:	0005051b          	sext.w	a0,a0
    800004b4:	0017b797          	auipc	a5,0x17b
    800004b8:	a4a7aa23          	sw	a0,-1452(a5) # 8017af08 <op_address>
    800004bc:	0017b717          	auipc	a4,0x17b
    800004c0:	a3c70713          	addi	a4,a4,-1476 # 8017aef8 <cpu>
    800004c4:	00075783          	lhu	a5,0(a4)
    800004c8:	0027879b          	addiw	a5,a5,2
    800004cc:	00f71023          	sh	a5,0(a4)
    800004d0:	01813083          	ld	ra,24(sp)
    800004d4:	01013403          	ld	s0,16(sp)
    800004d8:	00813483          	ld	s1,8(sp)
    800004dc:	02010113          	addi	sp,sp,32
    800004e0:	00008067          	ret
    800004e4:	f0057513          	andi	a0,a0,-256
    800004e8:	03051513          	slli	a0,a0,0x30
    800004ec:	03055513          	srli	a0,a0,0x30
    800004f0:	658000ef          	jal	ra,80000b48 <memory_readb>
    800004f4:	00050413          	mv	s0,a0
    800004f8:	00048513          	mv	a0,s1
    800004fc:	64c000ef          	jal	ra,80000b48 <memory_readb>
    80000500:	0084141b          	slliw	s0,s0,0x8
    80000504:	00a4053b          	addw	a0,s0,a0
    80000508:	fadff06f          	j	800004b4 <cpu_address_indirect+0x34>

000000008000050c <cpu_address_indirect_x>:
    8000050c:	fe010113          	addi	sp,sp,-32
    80000510:	00113c23          	sd	ra,24(sp)
    80000514:	00813823          	sd	s0,16(sp)
    80000518:	00913423          	sd	s1,8(sp)
    8000051c:	01213023          	sd	s2,0(sp)
    80000520:	0017b417          	auipc	s0,0x17b
    80000524:	9d840413          	addi	s0,s0,-1576 # 8017aef8 <cpu>
    80000528:	00045503          	lhu	a0,0(s0)
    8000052c:	61c000ef          	jal	ra,80000b48 <memory_readb>
    80000530:	00050913          	mv	s2,a0
    80000534:	00444783          	lbu	a5,4(s0)
    80000538:	0017879b          	addiw	a5,a5,1
    8000053c:	00a787bb          	addw	a5,a5,a0
    80000540:	0ff7f513          	zext.b	a0,a5
    80000544:	604000ef          	jal	ra,80000b48 <memory_readb>
    80000548:	00050493          	mv	s1,a0
    8000054c:	00444503          	lbu	a0,4(s0)
    80000550:	0125053b          	addw	a0,a0,s2
    80000554:	0ff57513          	zext.b	a0,a0
    80000558:	5f0000ef          	jal	ra,80000b48 <memory_readb>
    8000055c:	0084949b          	slliw	s1,s1,0x8
    80000560:	00956533          	or	a0,a0,s1
    80000564:	0005051b          	sext.w	a0,a0
    80000568:	0017b797          	auipc	a5,0x17b
    8000056c:	9aa7a023          	sw	a0,-1632(a5) # 8017af08 <op_address>
    80000570:	03051513          	slli	a0,a0,0x30
    80000574:	03055513          	srli	a0,a0,0x30
    80000578:	5d0000ef          	jal	ra,80000b48 <memory_readb>
    8000057c:	0017b797          	auipc	a5,0x17b
    80000580:	98a7ac23          	sw	a0,-1640(a5) # 8017af14 <op_value>
    80000584:	00045783          	lhu	a5,0(s0)
    80000588:	0017879b          	addiw	a5,a5,1
    8000058c:	00f41023          	sh	a5,0(s0)
    80000590:	01813083          	ld	ra,24(sp)
    80000594:	01013403          	ld	s0,16(sp)
    80000598:	00813483          	ld	s1,8(sp)
    8000059c:	00013903          	ld	s2,0(sp)
    800005a0:	02010113          	addi	sp,sp,32
    800005a4:	00008067          	ret

00000000800005a8 <cpu_address_indirect_y>:
    800005a8:	fe010113          	addi	sp,sp,-32
    800005ac:	00113c23          	sd	ra,24(sp)
    800005b0:	00813823          	sd	s0,16(sp)
    800005b4:	00913423          	sd	s1,8(sp)
    800005b8:	01213023          	sd	s2,0(sp)
    800005bc:	0017b497          	auipc	s1,0x17b
    800005c0:	93c48493          	addi	s1,s1,-1732 # 8017aef8 <cpu>
    800005c4:	0004d503          	lhu	a0,0(s1)
    800005c8:	580000ef          	jal	ra,80000b48 <memory_readb>
    800005cc:	03051913          	slli	s2,a0,0x30
    800005d0:	03095913          	srli	s2,s2,0x30
    800005d4:	0019051b          	addiw	a0,s2,1
    800005d8:	0ff57513          	zext.b	a0,a0
    800005dc:	56c000ef          	jal	ra,80000b48 <memory_readb>
    800005e0:	00050413          	mv	s0,a0
    800005e4:	00090513          	mv	a0,s2
    800005e8:	560000ef          	jal	ra,80000b48 <memory_readb>
    800005ec:	0084141b          	slliw	s0,s0,0x8
    800005f0:	008567b3          	or	a5,a0,s0
    800005f4:	0054c503          	lbu	a0,5(s1)
    800005f8:	00f5053b          	addw	a0,a0,a5
    800005fc:	0017b417          	auipc	s0,0x17b
    80000600:	90c40413          	addi	s0,s0,-1780 # 8017af08 <op_address>
    80000604:	03051793          	slli	a5,a0,0x30
    80000608:	0307d793          	srli	a5,a5,0x30
    8000060c:	00f42023          	sw	a5,0(s0)
    80000610:	00078513          	mv	a0,a5
    80000614:	534000ef          	jal	ra,80000b48 <memory_readb>
    80000618:	0017b797          	auipc	a5,0x17b
    8000061c:	8ea7ae23          	sw	a0,-1796(a5) # 8017af14 <op_value>
    80000620:	0004d783          	lhu	a5,0(s1)
    80000624:	0017879b          	addiw	a5,a5,1
    80000628:	03079793          	slli	a5,a5,0x30
    8000062c:	0307d793          	srli	a5,a5,0x30
    80000630:	00f49023          	sh	a5,0(s1)
    80000634:	00042703          	lw	a4,0(s0)
    80000638:	4087571b          	sraiw	a4,a4,0x8
    8000063c:	0087d793          	srli	a5,a5,0x8
    80000640:	00f70c63          	beq	a4,a5,80000658 <cpu_address_indirect_y+0xb0>
    80000644:	0017b717          	auipc	a4,0x17b
    80000648:	8cc70713          	addi	a4,a4,-1844 # 8017af10 <op_cycles>
    8000064c:	00072783          	lw	a5,0(a4)
    80000650:	0017879b          	addiw	a5,a5,1
    80000654:	00f72023          	sw	a5,0(a4)
    80000658:	01813083          	ld	ra,24(sp)
    8000065c:	01013403          	ld	s0,16(sp)
    80000660:	00813483          	ld	s1,8(sp)
    80000664:	00013903          	ld	s2,0(sp)
    80000668:	02010113          	addi	sp,sp,32
    8000066c:	00008067          	ret

0000000080000670 <draw>:
    80000670:	0ff00793          	li	a5,255
    80000674:	04a7e863          	bltu	a5,a0,800006c4 <draw+0x54>
    80000678:	0005879b          	sext.w	a5,a1
    8000067c:	0ef00693          	li	a3,239
    80000680:	04f6e263          	bltu	a3,a5,800006c4 <draw+0x54>
    80000684:	0017b797          	auipc	a5,0x17b
    80000688:	85c7a783          	lw	a5,-1956(a5) # 8017aee0 <frame_cnt>
    8000068c:	0017f793          	andi	a5,a5,1
    80000690:	02079a63          	bnez	a5,800006c4 <draw+0x54>
    80000694:	0085959b          	slliw	a1,a1,0x8
    80000698:	00a585bb          	addw	a1,a1,a0
    8000069c:	00259593          	slli	a1,a1,0x2
    800006a0:	0000f797          	auipc	a5,0xf
    800006a4:	33078793          	addi	a5,a5,816 # 8000f9d0 <canvas>
    800006a8:	00b787b3          	add	a5,a5,a1
    800006ac:	00261613          	slli	a2,a2,0x2
    800006b0:	00004717          	auipc	a4,0x4
    800006b4:	6b070713          	addi	a4,a4,1712 # 80004d60 <palette>
    800006b8:	00c70733          	add	a4,a4,a2
    800006bc:	00072703          	lw	a4,0(a4)
    800006c0:	00e7a023          	sw	a4,0(a5)
    800006c4:	00008067          	ret

00000000800006c8 <fce_load_rom>:
    800006c8:	fc010113          	addi	sp,sp,-64
    800006cc:	02113c23          	sd	ra,56(sp)
    800006d0:	02813823          	sd	s0,48(sp)
    800006d4:	02913423          	sd	s1,40(sp)
    800006d8:	03213023          	sd	s2,32(sp)
    800006dc:	01313c23          	sd	s3,24(sp)
    800006e0:	01413823          	sd	s4,16(sp)
    800006e4:	01513423          	sd	s5,8(sp)
    800006e8:	01050713          	addi	a4,a0,16
    800006ec:	0017a697          	auipc	a3,0x17a
    800006f0:	7ee6b223          	sd	a4,2020(a3) # 8017aed0 <buf>
    800006f4:	0017a717          	auipc	a4,0x17a
    800006f8:	7ea73223          	sd	a0,2020(a4) # 8017aed8 <fce_rom_header>
    800006fc:	00400613          	li	a2,4
    80000700:	00004597          	auipc	a1,0x4
    80000704:	5c058593          	addi	a1,a1,1472 # 80004cc0 <MAP+0x400>
    80000708:	0d0040ef          	jal	ra,800047d8 <memcmp>
    8000070c:	0e051a63          	bnez	a0,80000800 <fce_load_rom+0x138>
    80000710:	00050a93          	mv	s5,a0
    80000714:	0017a717          	auipc	a4,0x17a
    80000718:	7c473703          	ld	a4,1988(a4) # 8017aed8 <fce_rom_header>
    8000071c:	00675783          	lhu	a5,6(a4)
    80000720:	4047d79b          	sraiw	a5,a5,0x4
    80000724:	00f7f793          	andi	a5,a5,15
    80000728:	0017a697          	auipc	a3,0x17a
    8000072c:	7cf68423          	sb	a5,1992(a3) # 8017aef0 <mmc_id>
    80000730:	00474603          	lbu	a2,4(a4)
    80000734:	0017a697          	auipc	a3,0x17a
    80000738:	79c68693          	addi	a3,a3,1948 # 8017aed0 <buf>
    8000073c:	0006b403          	ld	s0,0(a3)
    80000740:	00e61713          	slli	a4,a2,0xe
    80000744:	00e40733          	add	a4,s0,a4
    80000748:	00e6b023          	sd	a4,0(a3)
    8000074c:	00900713          	li	a4,9
    80000750:	00f757b3          	srl	a5,a4,a5
    80000754:	0017f793          	andi	a5,a5,1
    80000758:	0a078863          	beqz	a5,80000808 <fce_load_rom+0x140>
    8000075c:	00100793          	li	a5,1
    80000760:	04f60063          	beq	a2,a5,800007a0 <fce_load_rom+0xd8>
    80000764:	00008637          	lui	a2,0x8
    80000768:	00040593          	mv	a1,s0
    8000076c:	00008537          	lui	a0,0x8
    80000770:	310010ef          	jal	ra,80001a80 <mmc_copy>
    80000774:	0017a797          	auipc	a5,0x17a
    80000778:	7647b783          	ld	a5,1892(a5) # 8017aed8 <fce_rom_header>
    8000077c:	0057c783          	lbu	a5,5(a5)
    80000780:	08078663          	beqz	a5,8000080c <fce_load_rom+0x144>
    80000784:	000a8413          	mv	s0,s5
    80000788:	0017a917          	auipc	s2,0x17a
    8000078c:	74890913          	addi	s2,s2,1864 # 8017aed0 <buf>
    80000790:	000029b7          	lui	s3,0x2
    80000794:	0017aa17          	auipc	s4,0x17a
    80000798:	744a0a13          	addi	s4,s4,1860 # 8017aed8 <fce_rom_header>
    8000079c:	0380006f          	j	800007d4 <fce_load_rom+0x10c>
    800007a0:	00004637          	lui	a2,0x4
    800007a4:	00040593          	mv	a1,s0
    800007a8:	00008537          	lui	a0,0x8
    800007ac:	2d4010ef          	jal	ra,80001a80 <mmc_copy>
    800007b0:	00004637          	lui	a2,0x4
    800007b4:	00040593          	mv	a1,s0
    800007b8:	0000c537          	lui	a0,0xc
    800007bc:	2c4010ef          	jal	ra,80001a80 <mmc_copy>
    800007c0:	fb5ff06f          	j	80000774 <fce_load_rom+0xac>
    800007c4:	0014041b          	addiw	s0,s0,1
    800007c8:	000a3783          	ld	a5,0(s4)
    800007cc:	0057c783          	lbu	a5,5(a5)
    800007d0:	02f45e63          	bge	s0,a5,8000080c <fce_load_rom+0x144>
    800007d4:	00093483          	ld	s1,0(s2)
    800007d8:	013487b3          	add	a5,s1,s3
    800007dc:	00f93023          	sd	a5,0(s2)
    800007e0:	00048513          	mv	a0,s1
    800007e4:	2c0010ef          	jal	ra,80001aa4 <mmc_append_chr_rom_page>
    800007e8:	fc041ee3          	bnez	s0,800007c4 <fce_load_rom+0xfc>
    800007ec:	00098613          	mv	a2,s3
    800007f0:	00048593          	mv	a1,s1
    800007f4:	00000513          	li	a0,0
    800007f8:	60d000ef          	jal	ra,80001604 <ppu_copy>
    800007fc:	fc9ff06f          	j	800007c4 <fce_load_rom+0xfc>
    80000800:	fff00a93          	li	s5,-1
    80000804:	0080006f          	j	8000080c <fce_load_rom+0x144>
    80000808:	fff00a93          	li	s5,-1
    8000080c:	000a8513          	mv	a0,s5
    80000810:	03813083          	ld	ra,56(sp)
    80000814:	03013403          	ld	s0,48(sp)
    80000818:	02813483          	ld	s1,40(sp)
    8000081c:	02013903          	ld	s2,32(sp)
    80000820:	01813983          	ld	s3,24(sp)
    80000824:	01013a03          	ld	s4,16(sp)
    80000828:	00813a83          	ld	s5,8(sp)
    8000082c:	04010113          	addi	sp,sp,64
    80000830:	00008067          	ret

0000000080000834 <fce_init>:
    80000834:	ff010113          	addi	sp,sp,-16
    80000838:	00113423          	sd	ra,8(sp)
    8000083c:	728020ef          	jal	ra,80002f64 <cpu_init>
    80000840:	074010ef          	jal	ra,800018b4 <ppu_init>
    80000844:	0017a797          	auipc	a5,0x17a
    80000848:	6947b783          	ld	a5,1684(a5) # 8017aed8 <fce_rom_header>
    8000084c:	0067d503          	lhu	a0,6(a5)
    80000850:	00157513          	andi	a0,a0,1
    80000854:	18c010ef          	jal	ra,800019e0 <ppu_set_mirroring>
    80000858:	598030ef          	jal	ra,80003df0 <cpu_reset>
    8000085c:	00813083          	ld	ra,8(sp)
    80000860:	01010113          	addi	sp,sp,16
    80000864:	00008067          	ret

0000000080000868 <wait_for_frame>:
    80000868:	fd010113          	addi	sp,sp,-48
    8000086c:	02113423          	sd	ra,40(sp)
    80000870:	02813023          	sd	s0,32(sp)
    80000874:	00913c23          	sd	s1,24(sp)
    80000878:	01213823          	sd	s2,16(sp)
    8000087c:	00810593          	addi	a1,sp,8
    80000880:	00600513          	li	a0,6
    80000884:	165030ef          	jal	ra,800041e8 <ioe_read>
    80000888:	00813783          	ld	a5,8(sp)
    8000088c:	3e800713          	li	a4,1000
    80000890:	02e7d7b3          	divu	a5,a5,a4
    80000894:	0007869b          	sext.w	a3,a5
    80000898:	0017a717          	auipc	a4,0x17a
    8000089c:	64c72703          	lw	a4,1612(a4) # 8017aee4 <gtime>
    800008a0:	40e787bb          	subw	a5,a5,a4
    800008a4:	00f00713          	li	a4,15
    800008a8:	02f74c63          	blt	a4,a5,800008e0 <wait_for_frame+0x78>
    800008ac:	3e800913          	li	s2,1000
    800008b0:	0017a497          	auipc	s1,0x17a
    800008b4:	63448493          	addi	s1,s1,1588 # 8017aee4 <gtime>
    800008b8:	00f00413          	li	s0,15
    800008bc:	00810593          	addi	a1,sp,8
    800008c0:	00600513          	li	a0,6
    800008c4:	125030ef          	jal	ra,800041e8 <ioe_read>
    800008c8:	00813783          	ld	a5,8(sp)
    800008cc:	0327d7b3          	divu	a5,a5,s2
    800008d0:	0007869b          	sext.w	a3,a5
    800008d4:	0004a703          	lw	a4,0(s1)
    800008d8:	40e787bb          	subw	a5,a5,a4
    800008dc:	fef450e3          	bge	s0,a5,800008bc <wait_for_frame+0x54>
    800008e0:	0017a797          	auipc	a5,0x17a
    800008e4:	60d7a223          	sw	a3,1540(a5) # 8017aee4 <gtime>
    800008e8:	02813083          	ld	ra,40(sp)
    800008ec:	02013403          	ld	s0,32(sp)
    800008f0:	01813483          	ld	s1,24(sp)
    800008f4:	01013903          	ld	s2,16(sp)
    800008f8:	03010113          	addi	sp,sp,48
    800008fc:	00008067          	ret

0000000080000900 <fce_run>:
    80000900:	f9010113          	addi	sp,sp,-112
    80000904:	06113423          	sd	ra,104(sp)
    80000908:	06813023          	sd	s0,96(sp)
    8000090c:	04913c23          	sd	s1,88(sp)
    80000910:	05213823          	sd	s2,80(sp)
    80000914:	05313423          	sd	s3,72(sp)
    80000918:	05413023          	sd	s4,64(sp)
    8000091c:	03513c23          	sd	s5,56(sp)
    80000920:	03613823          	sd	s6,48(sp)
    80000924:	03713423          	sd	s7,40(sp)
    80000928:	03813023          	sd	s8,32(sp)
    8000092c:	01913c23          	sd	s9,24(sp)
    80000930:	01a13823          	sd	s10,16(sp)
    80000934:	00810593          	addi	a1,sp,8
    80000938:	00600513          	li	a0,6
    8000093c:	0ad030ef          	jal	ra,800041e8 <ioe_read>
    80000940:	00813b03          	ld	s6,8(sp)
    80000944:	3e800793          	li	a5,1000
    80000948:	02fb5b33          	divu	s6,s6,a5
    8000094c:	0017a797          	auipc	a5,0x17a
    80000950:	5967ac23          	sw	s6,1432(a5) # 8017aee4 <gtime>
    80000954:	000b0b1b          	sext.w	s6,s6
    80000958:	00000d13          	li	s10,0
    8000095c:	10600a13          	li	s4,262
    80000960:	3e800993          	li	s3,1000
    80000964:	05000c93          	li	s9,80
    80000968:	3e800a93          	li	s5,1000
    8000096c:	00004c17          	auipc	s8,0x4
    80000970:	35cc0c13          	addi	s8,s8,860 # 80004cc8 <MAP+0x408>
    80000974:	0180006f          	j	8000098c <fce_run+0x8c>
    80000978:	00090613          	mv	a2,s2
    8000097c:	0354c5bb          	divw	a1,s1,s5
    80000980:	000c0513          	mv	a0,s8
    80000984:	3c5030ef          	jal	ra,80004548 <printf>
    80000988:	000b8b13          	mv	s6,s7
    8000098c:	000d0913          	mv	s2,s10
    80000990:	ed9ff0ef          	jal	ra,80000868 <wait_for_frame>
    80000994:	000a0413          	mv	s0,s4
    80000998:	365000ef          	jal	ra,800014fc <ppu_cycle>
    8000099c:	f18ff0ef          	jal	ra,800000b4 <psg_detect_key>
    800009a0:	fff4041b          	addiw	s0,s0,-1
    800009a4:	fe041ae3          	bnez	s0,80000998 <fce_run+0x98>
    800009a8:	0019091b          	addiw	s2,s2,1
    800009ac:	00810593          	addi	a1,sp,8
    800009b0:	00600513          	li	a0,6
    800009b4:	035030ef          	jal	ra,800041e8 <ioe_read>
    800009b8:	00813483          	ld	s1,8(sp)
    800009bc:	0334d4b3          	divu	s1,s1,s3
    800009c0:	00048b9b          	sext.w	s7,s1
    800009c4:	416487bb          	subw	a5,s1,s6
    800009c8:	fcf9f4e3          	bgeu	s3,a5,80000990 <fce_run+0x90>
    800009cc:	000c8413          	mv	s0,s9
    800009d0:	00800513          	li	a0,8
    800009d4:	6ec030ef          	jal	ra,800040c0 <putch>
    800009d8:	fff4041b          	addiw	s0,s0,-1
    800009dc:	fe041ae3          	bnez	s0,800009d0 <fce_run+0xd0>
    800009e0:	f99ff06f          	j	80000978 <fce_run+0x78>

00000000800009e4 <fce_update_screen>:
    800009e4:	0017a717          	auipc	a4,0x17a
    800009e8:	4fc70713          	addi	a4,a4,1276 # 8017aee0 <frame_cnt>
    800009ec:	00072783          	lw	a5,0(a4)
    800009f0:	0017879b          	addiw	a5,a5,1
    800009f4:	00f72023          	sw	a5,0(a4)
    800009f8:	0017f793          	andi	a5,a5,1
    800009fc:	00078463          	beqz	a5,80000a04 <fce_update_screen+0x20>
    80000a00:	00008067          	ret
    80000a04:	fc010113          	addi	sp,sp,-64
    80000a08:	02113c23          	sd	ra,56(sp)
    80000a0c:	02813823          	sd	s0,48(sp)
    80000a10:	02913423          	sd	s1,40(sp)
    80000a14:	00004537          	lui	a0,0x4
    80000a18:	f0050513          	addi	a0,a0,-256 # 3f00 <_entry_offset+0x3f00>
    80000a1c:	588000ef          	jal	ra,80000fa4 <ppu_ram_read>
    80000a20:	0005079b          	sext.w	a5,a0
    80000a24:	00279793          	slli	a5,a5,0x2
    80000a28:	00004717          	auipc	a4,0x4
    80000a2c:	33870713          	addi	a4,a4,824 # 80004d60 <palette>
    80000a30:	00f707b3          	add	a5,a4,a5
    80000a34:	0007a483          	lw	s1,0(a5)
    80000a38:	00010593          	mv	a1,sp
    80000a3c:	00900513          	li	a0,9
    80000a40:	7a8030ef          	jal	ra,800041e8 <ioe_read>
    80000a44:	00412603          	lw	a2,4(sp)
    80000a48:	00812683          	lw	a3,8(sp)
    80000a4c:	f006079b          	addiw	a5,a2,-256 # 3f00 <_entry_offset+0x3f00>
    80000a50:	01f7d71b          	srliw	a4,a5,0x1f
    80000a54:	00f7073b          	addw	a4,a4,a5
    80000a58:	4017571b          	sraiw	a4,a4,0x1
    80000a5c:	f106859b          	addiw	a1,a3,-240
    80000a60:	01f5d79b          	srliw	a5,a1,0x1f
    80000a64:	00b787bb          	addw	a5,a5,a1
    80000a68:	4017d79b          	sraiw	a5,a5,0x1
    80000a6c:	0fe00593          	li	a1,254
    80000a70:	06c5de63          	bge	a1,a2,80000aec <fce_update_screen+0x108>
    80000a74:	0ee00613          	li	a2,238
    80000a78:	00004417          	auipc	s0,0x4
    80000a7c:	27040413          	addi	s0,s0,624 # 80004ce8 <MAP+0x428>
    80000a80:	04100513          	li	a0,65
    80000a84:	06d65a63          	bge	a2,a3,80000af8 <fce_update_screen+0x114>
    80000a88:	00e12023          	sw	a4,0(sp)
    80000a8c:	00f12223          	sw	a5,4(sp)
    80000a90:	0000f417          	auipc	s0,0xf
    80000a94:	f4040413          	addi	s0,s0,-192 # 8000f9d0 <canvas>
    80000a98:	00813423          	sd	s0,8(sp)
    80000a9c:	10000793          	li	a5,256
    80000aa0:	00f12823          	sw	a5,16(sp)
    80000aa4:	0f000793          	li	a5,240
    80000aa8:	00f12a23          	sw	a5,20(sp)
    80000aac:	00100793          	li	a5,1
    80000ab0:	00f10c23          	sb	a5,24(sp)
    80000ab4:	00010593          	mv	a1,sp
    80000ab8:	00b00513          	li	a0,11
    80000abc:	75c030ef          	jal	ra,80004218 <ioe_write>
    80000ac0:	00040793          	mv	a5,s0
    80000ac4:	0004b717          	auipc	a4,0x4b
    80000ac8:	f0c70713          	addi	a4,a4,-244 # 8004b9d0 <PPU_RAM>
    80000acc:	0097a023          	sw	s1,0(a5)
    80000ad0:	00478793          	addi	a5,a5,4
    80000ad4:	fef71ce3          	bne	a4,a5,80000acc <fce_update_screen+0xe8>
    80000ad8:	03813083          	ld	ra,56(sp)
    80000adc:	03013403          	ld	s0,48(sp)
    80000ae0:	02813483          	ld	s1,40(sp)
    80000ae4:	04010113          	addi	sp,sp,64
    80000ae8:	00008067          	ret
    80000aec:	00004417          	auipc	s0,0x4
    80000af0:	1fc40413          	addi	s0,s0,508 # 80004ce8 <MAP+0x428>
    80000af4:	04100513          	li	a0,65
    80000af8:	5c8030ef          	jal	ra,800040c0 <putch>
    80000afc:	00140413          	addi	s0,s0,1
    80000b00:	00044503          	lbu	a0,0(s0)
    80000b04:	fe051ae3          	bnez	a0,80000af8 <fce_update_screen+0x114>
    80000b08:	00004417          	auipc	s0,0x4
    80000b0c:	1f040413          	addi	s0,s0,496 # 80004cf8 <MAP+0x438>
    80000b10:	07300513          	li	a0,115
    80000b14:	5ac030ef          	jal	ra,800040c0 <putch>
    80000b18:	00140413          	addi	s0,s0,1
    80000b1c:	00044503          	lbu	a0,0(s0)
    80000b20:	fe051ae3          	bnez	a0,80000b14 <fce_update_screen+0x130>
    80000b24:	00004417          	auipc	s0,0x4
    80000b28:	1ec40413          	addi	s0,s0,492 # 80004d10 <MAP+0x450>
    80000b2c:	02000513          	li	a0,32
    80000b30:	590030ef          	jal	ra,800040c0 <putch>
    80000b34:	00140413          	addi	s0,s0,1
    80000b38:	00044503          	lbu	a0,0(s0)
    80000b3c:	fe051ae3          	bnez	a0,80000b30 <fce_update_screen+0x14c>
    80000b40:	00100513          	li	a0,1
    80000b44:	58c030ef          	jal	ra,800040d0 <halt>

0000000080000b48 <memory_readb>:
    80000b48:	ff010113          	addi	sp,sp,-16
    80000b4c:	00113423          	sd	ra,8(sp)
    80000b50:	00d55793          	srli	a5,a0,0xd
    80000b54:	00200713          	li	a4,2
    80000b58:	04e78c63          	beq	a5,a4,80000bb0 <memory_readb+0x68>
    80000b5c:	0007871b          	sext.w	a4,a5
    80000b60:	00200693          	li	a3,2
    80000b64:	00e6ee63          	bltu	a3,a4,80000b80 <memory_readb+0x38>
    80000b68:	02078a63          	beqz	a5,80000b9c <memory_readb+0x54>
    80000b6c:	00070793          	mv	a5,a4
    80000b70:	00100713          	li	a4,1
    80000b74:	04e79263          	bne	a5,a4,80000bb8 <memory_readb+0x70>
    80000b78:	2b1000ef          	jal	ra,80001628 <ppuio_read>
    80000b7c:	0280006f          	j	80000ba4 <memory_readb+0x5c>
    80000b80:	0007879b          	sext.w	a5,a5
    80000b84:	00300713          	li	a4,3
    80000b88:	02e79863          	bne	a5,a4,80000bb8 <memory_readb+0x70>
    80000b8c:	03351513          	slli	a0,a0,0x33
    80000b90:	03355513          	srli	a0,a0,0x33
    80000b94:	0d8020ef          	jal	ra,80002c6c <cpu_ram_read>
    80000b98:	00c0006f          	j	80000ba4 <memory_readb+0x5c>
    80000b9c:	7ff57513          	andi	a0,a0,2047
    80000ba0:	0cc020ef          	jal	ra,80002c6c <cpu_ram_read>
    80000ba4:	00813083          	ld	ra,8(sp)
    80000ba8:	01010113          	addi	sp,sp,16
    80000bac:	00008067          	ret
    80000bb0:	c60ff0ef          	jal	ra,80000010 <psgio_read>
    80000bb4:	ff1ff06f          	j	80000ba4 <memory_readb+0x5c>
    80000bb8:	645000ef          	jal	ra,800019fc <mmc_read>
    80000bbc:	fe9ff06f          	j	80000ba4 <memory_readb+0x5c>

0000000080000bc0 <memory_writeb>:
    80000bc0:	fe010113          	addi	sp,sp,-32
    80000bc4:	00113c23          	sd	ra,24(sp)
    80000bc8:	00813823          	sd	s0,16(sp)
    80000bcc:	00913423          	sd	s1,8(sp)
    80000bd0:	000047b7          	lui	a5,0x4
    80000bd4:	01478793          	addi	a5,a5,20 # 4014 <_entry_offset+0x4014>
    80000bd8:	02f50a63          	beq	a0,a5,80000c0c <memory_writeb+0x4c>
    80000bdc:	00050713          	mv	a4,a0
    80000be0:	00d55793          	srli	a5,a0,0xd
    80000be4:	00200613          	li	a2,2
    80000be8:	08c78a63          	beq	a5,a2,80000c7c <memory_writeb+0xbc>
    80000bec:	0007869b          	sext.w	a3,a5
    80000bf0:	06d66263          	bltu	a2,a3,80000c54 <memory_writeb+0x94>
    80000bf4:	06078e63          	beqz	a5,80000c70 <memory_writeb+0xb0>
    80000bf8:	00068793          	mv	a5,a3
    80000bfc:	00100693          	li	a3,1
    80000c00:	08d79263          	bne	a5,a3,80000c84 <memory_writeb+0xc4>
    80000c04:	345000ef          	jal	ra,80001748 <ppuio_write>
    80000c08:	0380006f          	j	80000c40 <memory_writeb+0x80>
    80000c0c:	00859413          	slli	s0,a1,0x8
    80000c10:	1004049b          	addiw	s1,s0,256
    80000c14:	03049493          	slli	s1,s1,0x30
    80000c18:	0304d493          	srli	s1,s1,0x30
    80000c1c:	0004849b          	sext.w	s1,s1
    80000c20:	00040513          	mv	a0,s0
    80000c24:	048020ef          	jal	ra,80002c6c <cpu_ram_read>
    80000c28:	591000ef          	jal	ra,800019b8 <ppu_sprram_write>
    80000c2c:	0014041b          	addiw	s0,s0,1
    80000c30:	03041413          	slli	s0,s0,0x30
    80000c34:	03045413          	srli	s0,s0,0x30
    80000c38:	0004079b          	sext.w	a5,s0
    80000c3c:	fe9792e3          	bne	a5,s1,80000c20 <memory_writeb+0x60>
    80000c40:	01813083          	ld	ra,24(sp)
    80000c44:	01013403          	ld	s0,16(sp)
    80000c48:	00813483          	ld	s1,8(sp)
    80000c4c:	02010113          	addi	sp,sp,32
    80000c50:	00008067          	ret
    80000c54:	0007879b          	sext.w	a5,a5
    80000c58:	00300693          	li	a3,3
    80000c5c:	02d79463          	bne	a5,a3,80000c84 <memory_writeb+0xc4>
    80000c60:	03351713          	slli	a4,a0,0x33
    80000c64:	03375513          	srli	a0,a4,0x33
    80000c68:	01c020ef          	jal	ra,80002c84 <cpu_ram_write>
    80000c6c:	fd5ff06f          	j	80000c40 <memory_writeb+0x80>
    80000c70:	7ff57513          	andi	a0,a0,2047
    80000c74:	010020ef          	jal	ra,80002c84 <cpu_ram_write>
    80000c78:	fc9ff06f          	j	80000c40 <memory_writeb+0x80>
    80000c7c:	bf8ff0ef          	jal	ra,80000074 <psgio_write>
    80000c80:	fc1ff06f          	j	80000c40 <memory_writeb+0x80>
    80000c84:	00070513          	mv	a0,a4
    80000c88:	589000ef          	jal	ra,80001a10 <mmc_write>
    80000c8c:	fb5ff06f          	j	80000c40 <memory_writeb+0x80>

0000000080000c90 <memory_readw>:
    80000c90:	fe010113          	addi	sp,sp,-32
    80000c94:	00113c23          	sd	ra,24(sp)
    80000c98:	00813823          	sd	s0,16(sp)
    80000c9c:	00913423          	sd	s1,8(sp)
    80000ca0:	00050413          	mv	s0,a0
    80000ca4:	ea5ff0ef          	jal	ra,80000b48 <memory_readb>
    80000ca8:	00050493          	mv	s1,a0
    80000cac:	0014041b          	addiw	s0,s0,1
    80000cb0:	03041513          	slli	a0,s0,0x30
    80000cb4:	03055513          	srli	a0,a0,0x30
    80000cb8:	e91ff0ef          	jal	ra,80000b48 <memory_readb>
    80000cbc:	0085179b          	slliw	a5,a0,0x8
    80000cc0:	0097853b          	addw	a0,a5,s1
    80000cc4:	03051513          	slli	a0,a0,0x30
    80000cc8:	03055513          	srli	a0,a0,0x30
    80000ccc:	01813083          	ld	ra,24(sp)
    80000cd0:	01013403          	ld	s0,16(sp)
    80000cd4:	00813483          	ld	s1,8(sp)
    80000cd8:	02010113          	addi	sp,sp,32
    80000cdc:	00008067          	ret

0000000080000ce0 <memory_writew>:
    80000ce0:	fe010113          	addi	sp,sp,-32
    80000ce4:	00113c23          	sd	ra,24(sp)
    80000ce8:	00813823          	sd	s0,16(sp)
    80000cec:	00913423          	sd	s1,8(sp)
    80000cf0:	00050413          	mv	s0,a0
    80000cf4:	00058493          	mv	s1,a1
    80000cf8:	0ff5f593          	zext.b	a1,a1
    80000cfc:	ec5ff0ef          	jal	ra,80000bc0 <memory_writeb>
    80000d00:	0014051b          	addiw	a0,s0,1
    80000d04:	0084d593          	srli	a1,s1,0x8
    80000d08:	03051513          	slli	a0,a0,0x30
    80000d0c:	03055513          	srli	a0,a0,0x30
    80000d10:	eb1ff0ef          	jal	ra,80000bc0 <memory_writeb>
    80000d14:	01813083          	ld	ra,24(sp)
    80000d18:	01013403          	ld	s0,16(sp)
    80000d1c:	00813483          	ld	s1,8(sp)
    80000d20:	02010113          	addi	sp,sp,32
    80000d24:	00008067          	ret

0000000080000d28 <ppu_base_nametable_address>:
    80000d28:	0004f797          	auipc	a5,0x4f
    80000d2c:	da87c783          	lbu	a5,-600(a5) # 8004fad0 <ppu>
    80000d30:	0037f793          	andi	a5,a5,3
    80000d34:	00179793          	slli	a5,a5,0x1
    80000d38:	00004717          	auipc	a4,0x4
    80000d3c:	46870713          	addi	a4,a4,1128 # 800051a0 <ppu_base_nametable_addresses>
    80000d40:	00f707b3          	add	a5,a4,a5
    80000d44:	0007d503          	lhu	a0,0(a5)
    80000d48:	00008067          	ret

0000000080000d4c <ppu_vram_address_increment>:
    80000d4c:	ff010113          	addi	sp,sp,-16
    80000d50:	00113423          	sd	ra,8(sp)
    80000d54:	00200593          	li	a1,2
    80000d58:	0004f517          	auipc	a0,0x4f
    80000d5c:	d7854503          	lbu	a0,-648(a0) # 8004fad0 <ppu>
    80000d60:	24c030ef          	jal	ra,80003fac <common_bit_set>
    80000d64:	02000793          	li	a5,32
    80000d68:	00051463          	bnez	a0,80000d70 <ppu_vram_address_increment+0x24>
    80000d6c:	00100793          	li	a5,1
    80000d70:	00078513          	mv	a0,a5
    80000d74:	00813083          	ld	ra,8(sp)
    80000d78:	01010113          	addi	sp,sp,16
    80000d7c:	00008067          	ret

0000000080000d80 <ppu_sprite_pattern_table_address>:
    80000d80:	ff010113          	addi	sp,sp,-16
    80000d84:	00113423          	sd	ra,8(sp)
    80000d88:	00300593          	li	a1,3
    80000d8c:	0004f517          	auipc	a0,0x4f
    80000d90:	d4454503          	lbu	a0,-700(a0) # 8004fad0 <ppu>
    80000d94:	218030ef          	jal	ra,80003fac <common_bit_set>
    80000d98:	00c5151b          	slliw	a0,a0,0xc
    80000d9c:	03051513          	slli	a0,a0,0x30
    80000da0:	03055513          	srli	a0,a0,0x30
    80000da4:	00813083          	ld	ra,8(sp)
    80000da8:	01010113          	addi	sp,sp,16
    80000dac:	00008067          	ret

0000000080000db0 <ppu_background_pattern_table_address>:
    80000db0:	ff010113          	addi	sp,sp,-16
    80000db4:	00113423          	sd	ra,8(sp)
    80000db8:	00400593          	li	a1,4
    80000dbc:	0004f517          	auipc	a0,0x4f
    80000dc0:	d1454503          	lbu	a0,-748(a0) # 8004fad0 <ppu>
    80000dc4:	1e8030ef          	jal	ra,80003fac <common_bit_set>
    80000dc8:	00c5151b          	slliw	a0,a0,0xc
    80000dcc:	03051513          	slli	a0,a0,0x30
    80000dd0:	03055513          	srli	a0,a0,0x30
    80000dd4:	00813083          	ld	ra,8(sp)
    80000dd8:	01010113          	addi	sp,sp,16
    80000ddc:	00008067          	ret

0000000080000de0 <ppu_sprite_height>:
    80000de0:	ff010113          	addi	sp,sp,-16
    80000de4:	00113423          	sd	ra,8(sp)
    80000de8:	00500593          	li	a1,5
    80000dec:	0004f517          	auipc	a0,0x4f
    80000df0:	ce454503          	lbu	a0,-796(a0) # 8004fad0 <ppu>
    80000df4:	1b8030ef          	jal	ra,80003fac <common_bit_set>
    80000df8:	01000793          	li	a5,16
    80000dfc:	00051463          	bnez	a0,80000e04 <ppu_sprite_height+0x24>
    80000e00:	00800793          	li	a5,8
    80000e04:	00078513          	mv	a0,a5
    80000e08:	00813083          	ld	ra,8(sp)
    80000e0c:	01010113          	addi	sp,sp,16
    80000e10:	00008067          	ret

0000000080000e14 <ppu_generates_nmi>:
    80000e14:	ff010113          	addi	sp,sp,-16
    80000e18:	00113423          	sd	ra,8(sp)
    80000e1c:	00700593          	li	a1,7
    80000e20:	0004f517          	auipc	a0,0x4f
    80000e24:	cb054503          	lbu	a0,-848(a0) # 8004fad0 <ppu>
    80000e28:	184030ef          	jal	ra,80003fac <common_bit_set>
    80000e2c:	00813083          	ld	ra,8(sp)
    80000e30:	01010113          	addi	sp,sp,16
    80000e34:	00008067          	ret

0000000080000e38 <ppu_shows_background_in_leftmost_8px>:
    80000e38:	ff010113          	addi	sp,sp,-16
    80000e3c:	00113423          	sd	ra,8(sp)
    80000e40:	00100593          	li	a1,1
    80000e44:	0004f517          	auipc	a0,0x4f
    80000e48:	c8d54503          	lbu	a0,-883(a0) # 8004fad1 <ppu+0x1>
    80000e4c:	160030ef          	jal	ra,80003fac <common_bit_set>
    80000e50:	00813083          	ld	ra,8(sp)
    80000e54:	01010113          	addi	sp,sp,16
    80000e58:	00008067          	ret

0000000080000e5c <ppu_shows_background>:
    80000e5c:	ff010113          	addi	sp,sp,-16
    80000e60:	00113423          	sd	ra,8(sp)
    80000e64:	00300593          	li	a1,3
    80000e68:	0004f517          	auipc	a0,0x4f
    80000e6c:	c6954503          	lbu	a0,-919(a0) # 8004fad1 <ppu+0x1>
    80000e70:	13c030ef          	jal	ra,80003fac <common_bit_set>
    80000e74:	00813083          	ld	ra,8(sp)
    80000e78:	01010113          	addi	sp,sp,16
    80000e7c:	00008067          	ret

0000000080000e80 <ppu_shows_sprites>:
    80000e80:	ff010113          	addi	sp,sp,-16
    80000e84:	00113423          	sd	ra,8(sp)
    80000e88:	00400593          	li	a1,4
    80000e8c:	0004f517          	auipc	a0,0x4f
    80000e90:	c4554503          	lbu	a0,-955(a0) # 8004fad1 <ppu+0x1>
    80000e94:	118030ef          	jal	ra,80003fac <common_bit_set>
    80000e98:	00813083          	ld	ra,8(sp)
    80000e9c:	01010113          	addi	sp,sp,16
    80000ea0:	00008067          	ret

0000000080000ea4 <ppu_set_sprite_overflow>:
    80000ea4:	ff010113          	addi	sp,sp,-16
    80000ea8:	00113423          	sd	ra,8(sp)
    80000eac:	00050613          	mv	a2,a0
    80000eb0:	00500593          	li	a1,5
    80000eb4:	0004f517          	auipc	a0,0x4f
    80000eb8:	c1e50513          	addi	a0,a0,-994 # 8004fad2 <ppu+0x2>
    80000ebc:	138030ef          	jal	ra,80003ff4 <common_modify_bitb>
    80000ec0:	00813083          	ld	ra,8(sp)
    80000ec4:	01010113          	addi	sp,sp,16
    80000ec8:	00008067          	ret

0000000080000ecc <ppu_set_sprite_0_hit>:
    80000ecc:	ff010113          	addi	sp,sp,-16
    80000ed0:	00113423          	sd	ra,8(sp)
    80000ed4:	00050613          	mv	a2,a0
    80000ed8:	00600593          	li	a1,6
    80000edc:	0004f517          	auipc	a0,0x4f
    80000ee0:	bf650513          	addi	a0,a0,-1034 # 8004fad2 <ppu+0x2>
    80000ee4:	110030ef          	jal	ra,80003ff4 <common_modify_bitb>
    80000ee8:	00813083          	ld	ra,8(sp)
    80000eec:	01010113          	addi	sp,sp,16
    80000ef0:	00008067          	ret

0000000080000ef4 <ppu_set_in_vblank>:
    80000ef4:	ff010113          	addi	sp,sp,-16
    80000ef8:	00113423          	sd	ra,8(sp)
    80000efc:	00050613          	mv	a2,a0
    80000f00:	00700593          	li	a1,7
    80000f04:	0004f517          	auipc	a0,0x4f
    80000f08:	bce50513          	addi	a0,a0,-1074 # 8004fad2 <ppu+0x2>
    80000f0c:	0e8030ef          	jal	ra,80003ff4 <common_modify_bitb>
    80000f10:	00813083          	ld	ra,8(sp)
    80000f14:	01010113          	addi	sp,sp,16
    80000f18:	00008067          	ret

0000000080000f1c <ppu_get_real_ram_address>:
    80000f1c:	00050793          	mv	a5,a0
    80000f20:	00004737          	lui	a4,0x4
    80000f24:	eff70713          	addi	a4,a4,-257 # 3eff <_entry_offset+0x3eff>
    80000f28:	00a76663          	bltu	a4,a0,80000f34 <ppu_get_real_ram_address+0x18>
    80000f2c:	00078513          	mv	a0,a5
    80000f30:	00008067          	ret
    80000f34:	0005071b          	sext.w	a4,a0
    80000f38:	000046b7          	lui	a3,0x4
    80000f3c:	00d76863          	bltu	a4,a3,80000f4c <ppu_get_real_ram_address+0x30>
    80000f40:	000107b7          	lui	a5,0x10
    80000f44:	fff78793          	addi	a5,a5,-1 # ffff <_entry_offset+0xffff>
    80000f48:	fe5ff06f          	j	80000f2c <ppu_get_real_ram_address+0x10>
    80000f4c:	01f57793          	andi	a5,a0,31
    80000f50:	00004737          	lui	a4,0x4
    80000f54:	f0070693          	addi	a3,a4,-256 # 3f00 <_entry_offset+0x3f00>
    80000f58:	00d7e7b3          	or	a5,a5,a3
    80000f5c:	0107979b          	slliw	a5,a5,0x10
    80000f60:	4107d79b          	sraiw	a5,a5,0x10
    80000f64:	03079793          	slli	a5,a5,0x30
    80000f68:	0307d793          	srli	a5,a5,0x30
    80000f6c:	0007869b          	sext.w	a3,a5
    80000f70:	f1070713          	addi	a4,a4,-240
    80000f74:	02e68063          	beq	a3,a4,80000f94 <ppu_get_real_ram_address+0x78>
    80000f78:	ffffc6b7          	lui	a3,0xffffc
    80000f7c:	1006869b          	addiw	a3,a3,256 # ffffffffffffc100 <_end+0xffffffff7fe79100>
    80000f80:	00d786bb          	addw	a3,a5,a3
    80000f84:	11100737          	lui	a4,0x11100
    80000f88:	00d75733          	srl	a4,a4,a3
    80000f8c:	00177713          	andi	a4,a4,1
    80000f90:	f8070ee3          	beqz	a4,80000f2c <ppu_get_real_ram_address+0x10>
    80000f94:	ff07879b          	addiw	a5,a5,-16
    80000f98:	03079793          	slli	a5,a5,0x30
    80000f9c:	0307d793          	srli	a5,a5,0x30
    80000fa0:	f8dff06f          	j	80000f2c <ppu_get_real_ram_address+0x10>

0000000080000fa4 <ppu_ram_read>:
    80000fa4:	ff010113          	addi	sp,sp,-16
    80000fa8:	00113423          	sd	ra,8(sp)
    80000fac:	f71ff0ef          	jal	ra,80000f1c <ppu_get_real_ram_address>
    80000fb0:	0005051b          	sext.w	a0,a0
    80000fb4:	0004b797          	auipc	a5,0x4b
    80000fb8:	a1c78793          	addi	a5,a5,-1508 # 8004b9d0 <PPU_RAM>
    80000fbc:	00a787b3          	add	a5,a5,a0
    80000fc0:	0007c503          	lbu	a0,0(a5)
    80000fc4:	00813083          	ld	ra,8(sp)
    80000fc8:	01010113          	addi	sp,sp,16
    80000fcc:	00008067          	ret

0000000080000fd0 <ppu_ram_write>:
    80000fd0:	ff010113          	addi	sp,sp,-16
    80000fd4:	00113423          	sd	ra,8(sp)
    80000fd8:	00813023          	sd	s0,0(sp)
    80000fdc:	00058413          	mv	s0,a1
    80000fe0:	f3dff0ef          	jal	ra,80000f1c <ppu_get_real_ram_address>
    80000fe4:	0005051b          	sext.w	a0,a0
    80000fe8:	0004b797          	auipc	a5,0x4b
    80000fec:	9e878793          	addi	a5,a5,-1560 # 8004b9d0 <PPU_RAM>
    80000ff0:	00a787b3          	add	a5,a5,a0
    80000ff4:	00878023          	sb	s0,0(a5)
    80000ff8:	00813083          	ld	ra,8(sp)
    80000ffc:	00013403          	ld	s0,0(sp)
    80001000:	01010113          	addi	sp,sp,16
    80001004:	00008067          	ret

0000000080001008 <ppu_draw_background_scanline>:
    80001008:	f8010113          	addi	sp,sp,-128
    8000100c:	06113c23          	sd	ra,120(sp)
    80001010:	06813823          	sd	s0,112(sp)
    80001014:	06913423          	sd	s1,104(sp)
    80001018:	07213023          	sd	s2,96(sp)
    8000101c:	05313c23          	sd	s3,88(sp)
    80001020:	05413823          	sd	s4,80(sp)
    80001024:	05513423          	sd	s5,72(sp)
    80001028:	05613023          	sd	s6,64(sp)
    8000102c:	03713c23          	sd	s7,56(sp)
    80001030:	03813823          	sd	s8,48(sp)
    80001034:	03913423          	sd	s9,40(sp)
    80001038:	03a13023          	sd	s10,32(sp)
    8000103c:	01b13c23          	sd	s11,24(sp)
    80001040:	00050c93          	mv	s9,a0
    80001044:	df5ff0ef          	jal	ra,80000e38 <ppu_shows_background_in_leftmost_8px>
    80001048:	00154a93          	xori	s5,a0,1
    8000104c:	0ffafa93          	zext.b	s5,s5
    80001050:	008c9d93          	slli	s11,s9,0x8
    80001054:	00ac9c9b          	slliw	s9,s9,0xa
    80001058:	030c9c93          	slli	s9,s9,0x30
    8000105c:	030cdc93          	srli	s9,s9,0x30
    80001060:	003a9c13          	slli	s8,s5,0x3
    80001064:	001a8a1b          	addiw	s4,s5,1
    80001068:	003a1a1b          	slliw	s4,s4,0x3
    8000106c:	0004fb17          	auipc	s6,0x4f
    80001070:	a64b0b13          	addi	s6,s6,-1436 # 8004fad0 <ppu>
    80001074:	000047b7          	lui	a5,0x4
    80001078:	f007879b          	addiw	a5,a5,-256 # 3f00 <_entry_offset+0x3f00>
    8000107c:	00f12623          	sw	a5,12(sp)
    80001080:	0f00006f          	j	80001170 <ppu_draw_background_scanline+0x168>
    80001084:	00100793          	li	a5,1
    80001088:	0177d663          	bge	a5,s7,80001094 <ppu_draw_background_scanline+0x8c>
    8000108c:	0025551b          	srliw	a0,a0,0x2
    80001090:	0ff57513          	zext.b	a0,a0
    80001094:	00357513          	andi	a0,a0,3
    80001098:	0ff57513          	zext.b	a0,a0
    8000109c:	0025151b          	slliw	a0,a0,0x2
    800010a0:	00c12783          	lw	a5,12(sp)
    800010a4:	013787bb          	addw	a5,a5,s3
    800010a8:	00f5053b          	addw	a0,a0,a5
    800010ac:	03051513          	slli	a0,a0,0x30
    800010b0:	03055513          	srli	a0,a0,0x30
    800010b4:	ef1ff0ef          	jal	ra,80000fa4 <ppu_ram_read>
    800010b8:	0004871b          	sext.w	a4,s1
    800010bc:	00571793          	slli	a5,a4,0x5
    800010c0:	40e787b3          	sub	a5,a5,a4
    800010c4:	00379793          	slli	a5,a5,0x3
    800010c8:	0014f697          	auipc	a3,0x14f
    800010cc:	a3068693          	addi	a3,a3,-1488 # 8014faf8 <ppu_screen_background>
    800010d0:	00f687b3          	add	a5,a3,a5
    800010d4:	012787b3          	add	a5,a5,s2
    800010d8:	01378023          	sb	s3,0(a5)
    800010dc:	008b4783          	lbu	a5,8(s6)
    800010e0:	40f7073b          	subw	a4,a4,a5
    800010e4:	0005061b          	sext.w	a2,a0
    800010e8:	0019059b          	addiw	a1,s2,1
    800010ec:	01b7053b          	addw	a0,a4,s11
    800010f0:	d80ff0ef          	jal	ra,80000670 <draw>
    800010f4:	00140413          	addi	s0,s0,1
    800010f8:	0014849b          	addiw	s1,s1,1
    800010fc:	07448063          	beq	s1,s4,8000115c <ppu_draw_background_scanline+0x154>
    80001100:	00044983          	lbu	s3,0(s0)
    80001104:	fe0988e3          	beqz	s3,800010f4 <ppu_draw_background_scanline+0xec>
    80001108:	c21ff0ef          	jal	ra,80000d28 <ppu_base_nametable_address>
    8000110c:	020b2903          	lw	s2,32(s6)
    80001110:	4059579b          	sraiw	a5,s2,0x5
    80001114:	0037979b          	slliw	a5,a5,0x3
    80001118:	3c07879b          	addiw	a5,a5,960
    8000111c:	019787bb          	addw	a5,a5,s9
    80001120:	01a787bb          	addw	a5,a5,s10
    80001124:	00a7853b          	addw	a0,a5,a0
    80001128:	03051513          	slli	a0,a0,0x30
    8000112c:	03055513          	srli	a0,a0,0x30
    80001130:	e75ff0ef          	jal	ra,80000fa4 <ppu_ram_read>
    80001134:	41f9571b          	sraiw	a4,s2,0x1f
    80001138:	01b7571b          	srliw	a4,a4,0x1b
    8000113c:	012707bb          	addw	a5,a4,s2
    80001140:	01f7f793          	andi	a5,a5,31
    80001144:	40e787bb          	subw	a5,a5,a4
    80001148:	00f00713          	li	a4,15
    8000114c:	f2f75ce3          	bge	a4,a5,80001084 <ppu_draw_background_scanline+0x7c>
    80001150:	0045551b          	srliw	a0,a0,0x4
    80001154:	0ff57513          	zext.b	a0,a0
    80001158:	f2dff06f          	j	80001084 <ppu_draw_background_scanline+0x7c>
    8000115c:	001a8a9b          	addiw	s5,s5,1
    80001160:	008c0c1b          	addiw	s8,s8,8
    80001164:	008a0a1b          	addiw	s4,s4,8
    80001168:	02000793          	li	a5,32
    8000116c:	0cfa8063          	beq	s5,a5,8000122c <ppu_draw_background_scanline+0x224>
    80001170:	008b4783          	lbu	a5,8(s6)
    80001174:	40fc07bb          	subw	a5,s8,a5
    80001178:	01b787bb          	addw	a5,a5,s11
    8000117c:	10000713          	li	a4,256
    80001180:	fcf74ee3          	blt	a4,a5,8000115c <ppu_draw_background_scanline+0x154>
    80001184:	ba5ff0ef          	jal	ra,80000d28 <ppu_base_nametable_address>
    80001188:	020b2783          	lw	a5,32(s6)
    8000118c:	4037d79b          	sraiw	a5,a5,0x3
    80001190:	0057979b          	slliw	a5,a5,0x5
    80001194:	019787bb          	addw	a5,a5,s9
    80001198:	015787bb          	addw	a5,a5,s5
    8000119c:	00a7853b          	addw	a0,a5,a0
    800011a0:	03051513          	slli	a0,a0,0x30
    800011a4:	03055513          	srli	a0,a0,0x30
    800011a8:	dfdff0ef          	jal	ra,80000fa4 <ppu_ram_read>
    800011ac:	00050413          	mv	s0,a0
    800011b0:	c01ff0ef          	jal	ra,80000db0 <ppu_background_pattern_table_address>
    800011b4:	020b2483          	lw	s1,32(s6)
    800011b8:	0074f493          	andi	s1,s1,7
    800011bc:	00a484bb          	addw	s1,s1,a0
    800011c0:	0044141b          	slliw	s0,s0,0x4
    800011c4:	008484bb          	addw	s1,s1,s0
    800011c8:	03049493          	slli	s1,s1,0x30
    800011cc:	0304d493          	srli	s1,s1,0x30
    800011d0:	00048513          	mv	a0,s1
    800011d4:	dd1ff0ef          	jal	ra,80000fa4 <ppu_ram_read>
    800011d8:	00050413          	mv	s0,a0
    800011dc:	0084851b          	addiw	a0,s1,8
    800011e0:	03051513          	slli	a0,a0,0x30
    800011e4:	03055513          	srli	a0,a0,0x30
    800011e8:	dbdff0ef          	jal	ra,80000fa4 <ppu_ram_read>
    800011ec:	402add1b          	sraiw	s10,s5,0x2
    800011f0:	030d1d13          	slli	s10,s10,0x30
    800011f4:	030d5d13          	srli	s10,s10,0x30
    800011f8:	41fad79b          	sraiw	a5,s5,0x1f
    800011fc:	01e7d79b          	srliw	a5,a5,0x1e
    80001200:	01578bbb          	addw	s7,a5,s5
    80001204:	003bfb93          	andi	s7,s7,3
    80001208:	40fb8bbb          	subw	s7,s7,a5
    8000120c:	00841413          	slli	s0,s0,0x8
    80001210:	00a40433          	add	s0,s0,a0
    80001214:	00341413          	slli	s0,s0,0x3
    80001218:	000cf797          	auipc	a5,0xcf
    8000121c:	8e078793          	addi	a5,a5,-1824 # 800cfaf8 <ppu_l_h_addition_table>
    80001220:	00f40433          	add	s0,s0,a5
    80001224:	000c0493          	mv	s1,s8
    80001228:	ed9ff06f          	j	80001100 <ppu_draw_background_scanline+0xf8>
    8000122c:	07813083          	ld	ra,120(sp)
    80001230:	07013403          	ld	s0,112(sp)
    80001234:	06813483          	ld	s1,104(sp)
    80001238:	06013903          	ld	s2,96(sp)
    8000123c:	05813983          	ld	s3,88(sp)
    80001240:	05013a03          	ld	s4,80(sp)
    80001244:	04813a83          	ld	s5,72(sp)
    80001248:	04013b03          	ld	s6,64(sp)
    8000124c:	03813b83          	ld	s7,56(sp)
    80001250:	03013c03          	ld	s8,48(sp)
    80001254:	02813c83          	ld	s9,40(sp)
    80001258:	02013d03          	ld	s10,32(sp)
    8000125c:	01813d83          	ld	s11,24(sp)
    80001260:	08010113          	addi	sp,sp,128
    80001264:	00008067          	ret

0000000080001268 <ppu_draw_sprite_scanline>:
    80001268:	f7010113          	addi	sp,sp,-144
    8000126c:	08113423          	sd	ra,136(sp)
    80001270:	08813023          	sd	s0,128(sp)
    80001274:	06913c23          	sd	s1,120(sp)
    80001278:	07213823          	sd	s2,112(sp)
    8000127c:	07313423          	sd	s3,104(sp)
    80001280:	07413023          	sd	s4,96(sp)
    80001284:	05513c23          	sd	s5,88(sp)
    80001288:	05613823          	sd	s6,80(sp)
    8000128c:	05713423          	sd	s7,72(sp)
    80001290:	05813023          	sd	s8,64(sp)
    80001294:	03913c23          	sd	s9,56(sp)
    80001298:	03a13823          	sd	s10,48(sp)
    8000129c:	03b13423          	sd	s11,40(sp)
    800012a0:	0004e917          	auipc	s2,0x4e
    800012a4:	73090913          	addi	s2,s2,1840 # 8004f9d0 <PPU_SPRRAM>
    800012a8:	00000a93          	li	s5,0
    800012ac:	00013423          	sd	zero,8(sp)
    800012b0:	0004fd97          	auipc	s11,0x4f
    800012b4:	820d8d93          	addi	s11,s11,-2016 # 8004fad0 <ppu>
    800012b8:	000047b7          	lui	a5,0x4
    800012bc:	f107879b          	addiw	a5,a5,-240 # 3f10 <_entry_offset+0x3f10>
    800012c0:	00f12e23          	sw	a5,28(sp)
    800012c4:	0f80006f          	j	800013bc <ppu_draw_sprite_scanline+0x154>
    800012c8:	00100513          	li	a0,1
    800012cc:	bd9ff0ef          	jal	ra,80000ea4 <ppu_set_sprite_overflow>
    800012d0:	12c0006f          	j	800013fc <ppu_draw_sprite_scanline+0x194>
    800012d4:	00700493          	li	s1,7
    800012d8:	41a484bb          	subw	s1,s1,s10
    800012dc:	03049493          	slli	s1,s1,0x30
    800012e0:	0304d493          	srli	s1,s1,0x30
    800012e4:	1500006f          	j	80001434 <ppu_draw_sprite_scanline+0x1cc>
    800012e8:	00044a03          	lbu	s4,0(s0)
    800012ec:	02c0006f          	j	80001318 <ppu_draw_sprite_scanline+0xb0>
    800012f0:	00013583          	ld	a1,0(sp)
    800012f4:	000d0513          	mv	a0,s10
    800012f8:	b78ff0ef          	jal	ra,80000670 <draw>
    800012fc:	0500006f          	j	8000134c <ppu_draw_sprite_scanline+0xe4>
    80001300:	0014849b          	addiw	s1,s1,1
    80001304:	00198993          	addi	s3,s3,1 # 2001 <_entry_offset+0x2001>
    80001308:	00140413          	addi	s0,s0,1
    8000130c:	0b748063          	beq	s1,s7,800013ac <ppu_draw_sprite_scanline+0x144>
    80001310:	fc0c8ce3          	beqz	s9,800012e8 <ppu_draw_sprite_scanline+0x80>
    80001314:	0009ca03          	lbu	s4,0(s3)
    80001318:	fe0a04e3          	beqz	s4,80001300 <ppu_draw_sprite_scanline+0x98>
    8000131c:	00048d1b          	sext.w	s10,s1
    80001320:	016a053b          	addw	a0,s4,s6
    80001324:	03051513          	slli	a0,a0,0x30
    80001328:	03055513          	srli	a0,a0,0x30
    8000132c:	c79ff0ef          	jal	ra,80000fa4 <ppu_ram_read>
    80001330:	0005061b          	sext.w	a2,a0
    80001334:	002c4783          	lbu	a5,2(s8)
    80001338:	0207f793          	andi	a5,a5,32
    8000133c:	fa078ae3          	beqz	a5,800012f0 <ppu_draw_sprite_scanline+0x88>
    80001340:	00013583          	ld	a1,0(sp)
    80001344:	000d0513          	mv	a0,s10
    80001348:	b28ff0ef          	jal	ra,80000670 <draw>
    8000134c:	b11ff0ef          	jal	ra,80000e5c <ppu_shows_background>
    80001350:	fa0508e3          	beqz	a0,80001300 <ppu_draw_sprite_scanline+0x98>
    80001354:	0017a797          	auipc	a5,0x17a
    80001358:	b9678793          	addi	a5,a5,-1130 # 8017aeea <ppu_sprite_hit_occured>
    8000135c:	0007c783          	lbu	a5,0(a5)
    80001360:	fa0790e3          	bnez	a5,80001300 <ppu_draw_sprite_scanline+0x98>
    80001364:	f80a9ee3          	bnez	s5,80001300 <ppu_draw_sprite_scanline+0x98>
    80001368:	005d1793          	slli	a5,s10,0x5
    8000136c:	41a787b3          	sub	a5,a5,s10
    80001370:	00379793          	slli	a5,a5,0x3
    80001374:	0014e717          	auipc	a4,0x14e
    80001378:	78470713          	addi	a4,a4,1924 # 8014faf8 <ppu_screen_background>
    8000137c:	00f707b3          	add	a5,a4,a5
    80001380:	01013703          	ld	a4,16(sp)
    80001384:	00e787b3          	add	a5,a5,a4
    80001388:	0007c783          	lbu	a5,0(a5)
    8000138c:	f7479ae3          	bne	a5,s4,80001300 <ppu_draw_sprite_scanline+0x98>
    80001390:	00100513          	li	a0,1
    80001394:	b39ff0ef          	jal	ra,80000ecc <ppu_set_sprite_0_hit>
    80001398:	00100793          	li	a5,1
    8000139c:	0017a717          	auipc	a4,0x17a
    800013a0:	b4e70713          	addi	a4,a4,-1202 # 8017aeea <ppu_sprite_hit_occured>
    800013a4:	00f70023          	sb	a5,0(a4)
    800013a8:	f59ff06f          	j	80001300 <ppu_draw_sprite_scanline+0x98>
    800013ac:	004a8a9b          	addiw	s5,s5,4
    800013b0:	00490913          	addi	s2,s2,4
    800013b4:	10000793          	li	a5,256
    800013b8:	10fa8463          	beq	s5,a5,800014c0 <ppu_draw_sprite_scanline+0x258>
    800013bc:	00090c13          	mv	s8,s2
    800013c0:	00094403          	lbu	s0,0(s2)
    800013c4:	00040a1b          	sext.w	s4,s0
    800013c8:	020da783          	lw	a5,32(s11)
    800013cc:	ff47c0e3          	blt	a5,s4,800013ac <ppu_draw_sprite_scanline+0x144>
    800013d0:	00394b83          	lbu	s7,3(s2)
    800013d4:	a0dff0ef          	jal	ra,80000de0 <ppu_sprite_height>
    800013d8:	00a4043b          	addw	s0,s0,a0
    800013dc:	020da783          	lw	a5,32(s11)
    800013e0:	fcf446e3          	blt	s0,a5,800013ac <ppu_draw_sprite_scanline+0x144>
    800013e4:	00813783          	ld	a5,8(sp)
    800013e8:	0017879b          	addiw	a5,a5,1
    800013ec:	00078713          	mv	a4,a5
    800013f0:	00f13423          	sd	a5,8(sp)
    800013f4:	00800793          	li	a5,8
    800013f8:	ece7c8e3          	blt	a5,a4,800012c8 <ppu_draw_sprite_scanline+0x60>
    800013fc:	002c4403          	lbu	s0,2(s8)
    80001400:	04047c93          	andi	s9,s0,64
    80001404:	97dff0ef          	jal	ra,80000d80 <ppu_sprite_pattern_table_address>
    80001408:	001c4783          	lbu	a5,1(s8)
    8000140c:	0047979b          	slliw	a5,a5,0x4
    80001410:	00a787bb          	addw	a5,a5,a0
    80001414:	03079793          	slli	a5,a5,0x30
    80001418:	0307d793          	srli	a5,a5,0x30
    8000141c:	020da483          	lw	s1,32(s11)
    80001420:	0074fd13          	andi	s10,s1,7
    80001424:	0184141b          	slliw	s0,s0,0x18
    80001428:	4184541b          	sraiw	s0,s0,0x18
    8000142c:	000d0493          	mv	s1,s10
    80001430:	ea0442e3          	bltz	s0,800012d4 <ppu_draw_sprite_scanline+0x6c>
    80001434:	00f484bb          	addw	s1,s1,a5
    80001438:	03049493          	slli	s1,s1,0x30
    8000143c:	0304d493          	srli	s1,s1,0x30
    80001440:	00048513          	mv	a0,s1
    80001444:	b61ff0ef          	jal	ra,80000fa4 <ppu_ram_read>
    80001448:	00050413          	mv	s0,a0
    8000144c:	0084851b          	addiw	a0,s1,8
    80001450:	03051513          	slli	a0,a0,0x30
    80001454:	03055513          	srli	a0,a0,0x30
    80001458:	b4dff0ef          	jal	ra,80000fa4 <ppu_ram_read>
    8000145c:	002c4b03          	lbu	s6,2(s8)
    80001460:	003b7b13          	andi	s6,s6,3
    80001464:	0ffb7b13          	zext.b	s6,s6
    80001468:	002b1b1b          	slliw	s6,s6,0x2
    8000146c:	01c12783          	lw	a5,28(sp)
    80001470:	00fb0b3b          	addw	s6,s6,a5
    80001474:	030b1b13          	slli	s6,s6,0x30
    80001478:	030b5b13          	srli	s6,s6,0x30
    8000147c:	000b849b          	sext.w	s1,s7
    80001480:	00841413          	slli	s0,s0,0x8
    80001484:	00a40433          	add	s0,s0,a0
    80001488:	00341413          	slli	s0,s0,0x3
    8000148c:	0004e797          	auipc	a5,0x4e
    80001490:	66c78793          	addi	a5,a5,1644 # 8004faf8 <ppu_l_h_addition_flip_table>
    80001494:	00f409b3          	add	s3,s0,a5
    80001498:	000ce797          	auipc	a5,0xce
    8000149c:	66078793          	addi	a5,a5,1632 # 800cfaf8 <ppu_l_h_addition_table>
    800014a0:	00f40433          	add	s0,s0,a5
    800014a4:	008b8b93          	addi	s7,s7,8
    800014a8:	01aa07bb          	addw	a5,s4,s10
    800014ac:	01aa0733          	add	a4,s4,s10
    800014b0:	00e13823          	sd	a4,16(sp)
    800014b4:	0017879b          	addiw	a5,a5,1
    800014b8:	00f13023          	sd	a5,0(sp)
    800014bc:	e55ff06f          	j	80001310 <ppu_draw_sprite_scanline+0xa8>
    800014c0:	08813083          	ld	ra,136(sp)
    800014c4:	08013403          	ld	s0,128(sp)
    800014c8:	07813483          	ld	s1,120(sp)
    800014cc:	07013903          	ld	s2,112(sp)
    800014d0:	06813983          	ld	s3,104(sp)
    800014d4:	06013a03          	ld	s4,96(sp)
    800014d8:	05813a83          	ld	s5,88(sp)
    800014dc:	05013b03          	ld	s6,80(sp)
    800014e0:	04813b83          	ld	s7,72(sp)
    800014e4:	04013c03          	ld	s8,64(sp)
    800014e8:	03813c83          	ld	s9,56(sp)
    800014ec:	03013d03          	ld	s10,48(sp)
    800014f0:	02813d83          	ld	s11,40(sp)
    800014f4:	09010113          	addi	sp,sp,144
    800014f8:	00008067          	ret

00000000800014fc <ppu_cycle>:
    800014fc:	ff010113          	addi	sp,sp,-16
    80001500:	00113423          	sd	ra,8(sp)
    80001504:	0004e797          	auipc	a5,0x4e
    80001508:	5dc7c783          	lbu	a5,1500(a5) # 8004fae0 <ppu+0x10>
    8000150c:	06078863          	beqz	a5,8000157c <ppu_cycle+0x80>
    80001510:	10000513          	li	a0,256
    80001514:	189020ef          	jal	ra,80003e9c <cpu_run>
    80001518:	0004e717          	auipc	a4,0x4e
    8000151c:	5b870713          	addi	a4,a4,1464 # 8004fad0 <ppu>
    80001520:	02072783          	lw	a5,32(a4)
    80001524:	0017879b          	addiw	a5,a5,1
    80001528:	0007869b          	sext.w	a3,a5
    8000152c:	02f72023          	sw	a5,32(a4)
    80001530:	0ef00793          	li	a5,239
    80001534:	06d7d463          	bge	a5,a3,8000159c <ppu_cycle+0xa0>
    80001538:	04500513          	li	a0,69
    8000153c:	161020ef          	jal	ra,80003e9c <cpu_run>
    80001540:	0004e717          	auipc	a4,0x4e
    80001544:	5b072703          	lw	a4,1456(a4) # 8004faf0 <ppu+0x20>
    80001548:	0ef00793          	li	a5,239
    8000154c:	06e7d663          	bge	a5,a4,800015b8 <ppu_cycle+0xbc>
    80001550:	01000513          	li	a0,16
    80001554:	149020ef          	jal	ra,80003e9c <cpu_run>
    80001558:	0004e797          	auipc	a5,0x4e
    8000155c:	5987a783          	lw	a5,1432(a5) # 8004faf0 <ppu+0x20>
    80001560:	0f100713          	li	a4,241
    80001564:	06e78263          	beq	a5,a4,800015c8 <ppu_cycle+0xcc>
    80001568:	10600713          	li	a4,262
    8000156c:	06e78a63          	beq	a5,a4,800015e0 <ppu_cycle+0xe4>
    80001570:	00813083          	ld	ra,8(sp)
    80001574:	01010113          	addi	sp,sp,16
    80001578:	00008067          	ret
    8000157c:	115020ef          	jal	ra,80003e90 <cpu_clock>
    80001580:	000077b7          	lui	a5,0x7
    80001584:	3da78793          	addi	a5,a5,986 # 73da <_entry_offset+0x73da>
    80001588:	f8a7f4e3          	bgeu	a5,a0,80001510 <ppu_cycle+0x14>
    8000158c:	00100793          	li	a5,1
    80001590:	0004e717          	auipc	a4,0x4e
    80001594:	54f70823          	sb	a5,1360(a4) # 8004fae0 <ppu+0x10>
    80001598:	f79ff06f          	j	80001510 <ppu_cycle+0x14>
    8000159c:	8c1ff0ef          	jal	ra,80000e5c <ppu_shows_background>
    800015a0:	f8050ce3          	beqz	a0,80001538 <ppu_cycle+0x3c>
    800015a4:	00000513          	li	a0,0
    800015a8:	a61ff0ef          	jal	ra,80001008 <ppu_draw_background_scanline>
    800015ac:	00100513          	li	a0,1
    800015b0:	a59ff0ef          	jal	ra,80001008 <ppu_draw_background_scanline>
    800015b4:	f85ff06f          	j	80001538 <ppu_cycle+0x3c>
    800015b8:	8c9ff0ef          	jal	ra,80000e80 <ppu_shows_sprites>
    800015bc:	f8050ae3          	beqz	a0,80001550 <ppu_cycle+0x54>
    800015c0:	ca9ff0ef          	jal	ra,80001268 <ppu_draw_sprite_scanline>
    800015c4:	f8dff06f          	j	80001550 <ppu_cycle+0x54>
    800015c8:	00100513          	li	a0,1
    800015cc:	929ff0ef          	jal	ra,80000ef4 <ppu_set_in_vblank>
    800015d0:	00000513          	li	a0,0
    800015d4:	8f9ff0ef          	jal	ra,80000ecc <ppu_set_sprite_0_hit>
    800015d8:	055020ef          	jal	ra,80003e2c <cpu_interrupt>
    800015dc:	f95ff06f          	j	80001570 <ppu_cycle+0x74>
    800015e0:	fff00793          	li	a5,-1
    800015e4:	0004e717          	auipc	a4,0x4e
    800015e8:	50f72623          	sw	a5,1292(a4) # 8004faf0 <ppu+0x20>
    800015ec:	0017a797          	auipc	a5,0x17a
    800015f0:	8e078f23          	sb	zero,-1794(a5) # 8017aeea <ppu_sprite_hit_occured>
    800015f4:	00000513          	li	a0,0
    800015f8:	8fdff0ef          	jal	ra,80000ef4 <ppu_set_in_vblank>
    800015fc:	be8ff0ef          	jal	ra,800009e4 <fce_update_screen>
    80001600:	f71ff06f          	j	80001570 <ppu_cycle+0x74>

0000000080001604 <ppu_copy>:
    80001604:	ff010113          	addi	sp,sp,-16
    80001608:	00113423          	sd	ra,8(sp)
    8000160c:	0004a797          	auipc	a5,0x4a
    80001610:	3c478793          	addi	a5,a5,964 # 8004b9d0 <PPU_RAM>
    80001614:	00a78533          	add	a0,a5,a0
    80001618:	1a8030ef          	jal	ra,800047c0 <memcpy>
    8000161c:	00813083          	ld	ra,8(sp)
    80001620:	01010113          	addi	sp,sp,16
    80001624:	00008067          	ret

0000000080001628 <ppuio_read>:
    80001628:	fe010113          	addi	sp,sp,-32
    8000162c:	00113c23          	sd	ra,24(sp)
    80001630:	00813823          	sd	s0,16(sp)
    80001634:	00913423          	sd	s1,8(sp)
    80001638:	0004e717          	auipc	a4,0x4e
    8000163c:	49870713          	addi	a4,a4,1176 # 8004fad0 <ppu>
    80001640:	00a75783          	lhu	a5,10(a4)
    80001644:	03279793          	slli	a5,a5,0x32
    80001648:	0327d793          	srli	a5,a5,0x32
    8000164c:	00f71523          	sh	a5,10(a4)
    80001650:	00757713          	andi	a4,a0,7
    80001654:	00400693          	li	a3,4
    80001658:	06d70a63          	beq	a4,a3,800016cc <ppuio_read+0xa4>
    8000165c:	0007069b          	sext.w	a3,a4
    80001660:	00700613          	li	a2,7
    80001664:	08c68263          	beq	a3,a2,800016e8 <ppuio_read+0xc0>
    80001668:	00200793          	li	a5,2
    8000166c:	0ff00413          	li	s0,255
    80001670:	00f68e63          	beq	a3,a5,8000168c <ppuio_read+0x64>
    80001674:	00040513          	mv	a0,s0
    80001678:	01813083          	ld	ra,24(sp)
    8000167c:	01013403          	ld	s0,16(sp)
    80001680:	00813483          	ld	s1,8(sp)
    80001684:	02010113          	addi	sp,sp,32
    80001688:	00008067          	ret
    8000168c:	0004e497          	auipc	s1,0x4e
    80001690:	44448493          	addi	s1,s1,1092 # 8004fad0 <ppu>
    80001694:	0024c403          	lbu	s0,2(s1)
    80001698:	00000513          	li	a0,0
    8000169c:	859ff0ef          	jal	ra,80000ef4 <ppu_set_in_vblank>
    800016a0:	00000513          	li	a0,0
    800016a4:	829ff0ef          	jal	ra,80000ecc <ppu_set_sprite_0_hit>
    800016a8:	00048723          	sb	zero,14(s1)
    800016ac:	00049323          	sh	zero,6(s1)
    800016b0:	000487a3          	sb	zero,15(s1)
    800016b4:	0017a797          	auipc	a5,0x17a
    800016b8:	82078aa3          	sb	zero,-1995(a5) # 8017aee9 <ppu_addr_latch>
    800016bc:	00100793          	li	a5,1
    800016c0:	0017a717          	auipc	a4,0x17a
    800016c4:	82f70423          	sb	a5,-2008(a4) # 8017aee8 <ppu_2007_first_read>
    800016c8:	fadff06f          	j	80001674 <ppuio_read+0x4c>
    800016cc:	0004e717          	auipc	a4,0x4e
    800016d0:	40774703          	lbu	a4,1031(a4) # 8004fad3 <ppu+0x3>
    800016d4:	0004e797          	auipc	a5,0x4e
    800016d8:	2fc78793          	addi	a5,a5,764 # 8004f9d0 <PPU_SPRRAM>
    800016dc:	00e787b3          	add	a5,a5,a4
    800016e0:	0007c403          	lbu	s0,0(a5)
    800016e4:	f91ff06f          	j	80001674 <ppuio_read+0x4c>
    800016e8:	0007869b          	sext.w	a3,a5
    800016ec:	00004737          	lui	a4,0x4
    800016f0:	eff70713          	addi	a4,a4,-257 # 3eff <_entry_offset+0x3eff>
    800016f4:	02d76463          	bltu	a4,a3,8000171c <ppuio_read+0xf4>
    800016f8:	00078513          	mv	a0,a5
    800016fc:	8a9ff0ef          	jal	ra,80000fa4 <ppu_ram_read>
    80001700:	00050413          	mv	s0,a0
    80001704:	00179797          	auipc	a5,0x179
    80001708:	7e47c783          	lbu	a5,2020(a5) # 8017aee8 <ppu_2007_first_read>
    8000170c:	02078063          	beqz	a5,8000172c <ppuio_read+0x104>
    80001710:	00179797          	auipc	a5,0x179
    80001714:	7c078c23          	sb	zero,2008(a5) # 8017aee8 <ppu_2007_first_read>
    80001718:	f5dff06f          	j	80001674 <ppuio_read+0x4c>
    8000171c:	00078513          	mv	a0,a5
    80001720:	885ff0ef          	jal	ra,80000fa4 <ppu_ram_read>
    80001724:	00050413          	mv	s0,a0
    80001728:	fddff06f          	j	80001704 <ppuio_read+0xdc>
    8000172c:	e20ff0ef          	jal	ra,80000d4c <ppu_vram_address_increment>
    80001730:	0004e717          	auipc	a4,0x4e
    80001734:	3a070713          	addi	a4,a4,928 # 8004fad0 <ppu>
    80001738:	00a75783          	lhu	a5,10(a4)
    8000173c:	00a787bb          	addw	a5,a5,a0
    80001740:	00f71523          	sh	a5,10(a4)
    80001744:	f31ff06f          	j	80001674 <ppuio_read+0x4c>

0000000080001748 <ppuio_write>:
    80001748:	fe010113          	addi	sp,sp,-32
    8000174c:	00113c23          	sd	ra,24(sp)
    80001750:	00813823          	sd	s0,16(sp)
    80001754:	00913423          	sd	s1,8(sp)
    80001758:	00058413          	mv	s0,a1
    8000175c:	0004e797          	auipc	a5,0x4e
    80001760:	37478793          	addi	a5,a5,884 # 8004fad0 <ppu>
    80001764:	00a7d703          	lhu	a4,10(a5)
    80001768:	03271713          	slli	a4,a4,0x32
    8000176c:	03275713          	srli	a4,a4,0x32
    80001770:	00e79523          	sh	a4,10(a5)
    80001774:	00757793          	andi	a5,a0,7
    80001778:	00279793          	slli	a5,a5,0x2
    8000177c:	00003697          	auipc	a3,0x3
    80001780:	6e468693          	addi	a3,a3,1764 # 80004e60 <palette+0x100>
    80001784:	00d787b3          	add	a5,a5,a3
    80001788:	0007a783          	lw	a5,0(a5)
    8000178c:	00d787b3          	add	a5,a5,a3
    80001790:	00078067          	jr	a5
    80001794:	0004e797          	auipc	a5,0x4e
    80001798:	34c7c783          	lbu	a5,844(a5) # 8004fae0 <ppu+0x10>
    8000179c:	02078863          	beqz	a5,800017cc <ppuio_write+0x84>
    800017a0:	0004e797          	auipc	a5,0x4e
    800017a4:	32b78823          	sb	a1,816(a5) # 8004fad0 <ppu>
    800017a8:	0240006f          	j	800017cc <ppuio_write+0x84>
    800017ac:	0004e797          	auipc	a5,0x4e
    800017b0:	3347c783          	lbu	a5,820(a5) # 8004fae0 <ppu+0x10>
    800017b4:	00078c63          	beqz	a5,800017cc <ppuio_write+0x84>
    800017b8:	0004e797          	auipc	a5,0x4e
    800017bc:	30b78ca3          	sb	a1,793(a5) # 8004fad1 <ppu+0x1>
    800017c0:	00c0006f          	j	800017cc <ppuio_write+0x84>
    800017c4:	0004e797          	auipc	a5,0x4e
    800017c8:	30b787a3          	sb	a1,783(a5) # 8004fad3 <ppu+0x3>
    800017cc:	01813083          	ld	ra,24(sp)
    800017d0:	01013403          	ld	s0,16(sp)
    800017d4:	00813483          	ld	s1,8(sp)
    800017d8:	02010113          	addi	sp,sp,32
    800017dc:	00008067          	ret
    800017e0:	0004e797          	auipc	a5,0x4e
    800017e4:	2f078793          	addi	a5,a5,752 # 8004fad0 <ppu>
    800017e8:	0037c703          	lbu	a4,3(a5)
    800017ec:	0017069b          	addiw	a3,a4,1
    800017f0:	00d781a3          	sb	a3,3(a5)
    800017f4:	0004e797          	auipc	a5,0x4e
    800017f8:	1dc78793          	addi	a5,a5,476 # 8004f9d0 <PPU_SPRRAM>
    800017fc:	00e787b3          	add	a5,a5,a4
    80001800:	00b78023          	sb	a1,0(a5)
    80001804:	fc9ff06f          	j	800017cc <ppuio_write+0x84>
    80001808:	0004e797          	auipc	a5,0x4e
    8000180c:	2d67c783          	lbu	a5,726(a5) # 8004fade <ppu+0xe>
    80001810:	00078e63          	beqz	a5,8000182c <ppuio_write+0xe4>
    80001814:	0004e717          	auipc	a4,0x4e
    80001818:	2cb702a3          	sb	a1,709(a4) # 8004fad9 <ppu+0x9>
    8000181c:	0017c793          	xori	a5,a5,1
    80001820:	0004e717          	auipc	a4,0x4e
    80001824:	2af70f23          	sb	a5,702(a4) # 8004fade <ppu+0xe>
    80001828:	fa5ff06f          	j	800017cc <ppuio_write+0x84>
    8000182c:	0004e717          	auipc	a4,0x4e
    80001830:	2ab70623          	sb	a1,684(a4) # 8004fad8 <ppu+0x8>
    80001834:	fe9ff06f          	j	8000181c <ppuio_write+0xd4>
    80001838:	0004e797          	auipc	a5,0x4e
    8000183c:	2a87c783          	lbu	a5,680(a5) # 8004fae0 <ppu+0x10>
    80001840:	f80786e3          	beqz	a5,800017cc <ppuio_write+0x84>
    80001844:	0004e797          	auipc	a5,0x4e
    80001848:	29b7c783          	lbu	a5,667(a5) # 8004fadf <ppu+0xf>
    8000184c:	02078c63          	beqz	a5,80001884 <ppuio_write+0x13c>
    80001850:	00179717          	auipc	a4,0x179
    80001854:	69974703          	lbu	a4,1689(a4) # 8017aee9 <ppu_addr_latch>
    80001858:	0087171b          	slliw	a4,a4,0x8
    8000185c:	00b7073b          	addw	a4,a4,a1
    80001860:	0004e697          	auipc	a3,0x4e
    80001864:	26e69d23          	sh	a4,634(a3) # 8004fada <ppu+0xa>
    80001868:	0017c793          	xori	a5,a5,1
    8000186c:	0004e717          	auipc	a4,0x4e
    80001870:	26f709a3          	sb	a5,627(a4) # 8004fadf <ppu+0xf>
    80001874:	00100793          	li	a5,1
    80001878:	00179717          	auipc	a4,0x179
    8000187c:	66f70823          	sb	a5,1648(a4) # 8017aee8 <ppu_2007_first_read>
    80001880:	f4dff06f          	j	800017cc <ppuio_write+0x84>
    80001884:	00179717          	auipc	a4,0x179
    80001888:	66b702a3          	sb	a1,1637(a4) # 8017aee9 <ppu_addr_latch>
    8000188c:	fddff06f          	j	80001868 <ppuio_write+0x120>
    80001890:	0004e497          	auipc	s1,0x4e
    80001894:	24048493          	addi	s1,s1,576 # 8004fad0 <ppu>
    80001898:	0184d503          	lhu	a0,24(s1)
    8000189c:	00a74533          	xor	a0,a4,a0
    800018a0:	f30ff0ef          	jal	ra,80000fd0 <ppu_ram_write>
    800018a4:	00040593          	mv	a1,s0
    800018a8:	00a4d503          	lhu	a0,10(s1)
    800018ac:	f24ff0ef          	jal	ra,80000fd0 <ppu_ram_write>
    800018b0:	f1dff06f          	j	800017cc <ppuio_write+0x84>

00000000800018b4 <ppu_init>:
    800018b4:	ff010113          	addi	sp,sp,-16
    800018b8:	00813423          	sd	s0,8(sp)
    800018bc:	0004e797          	auipc	a5,0x4e
    800018c0:	21478793          	addi	a5,a5,532 # 8004fad0 <ppu>
    800018c4:	00079523          	sh	zero,10(a5)
    800018c8:	000784a3          	sb	zero,9(a5)
    800018cc:	00078423          	sb	zero,8(a5)
    800018d0:	000781a3          	sb	zero,3(a5)
    800018d4:	000780a3          	sb	zero,1(a5)
    800018d8:	00078023          	sb	zero,0(a5)
    800018dc:	fa000713          	li	a4,-96
    800018e0:	00e78123          	sb	a4,2(a5)
    800018e4:	00079623          	sh	zero,12(a5)
    800018e8:	00100793          	li	a5,1
    800018ec:	00179717          	auipc	a4,0x179
    800018f0:	5ef70e23          	sb	a5,1532(a4) # 8017aee8 <ppu_2007_first_read>
    800018f4:	000ce397          	auipc	t2,0xce
    800018f8:	20438393          	addi	t2,t2,516 # 800cfaf8 <ppu_l_h_addition_table>
    800018fc:	0004e297          	auipc	t0,0x4e
    80001900:	1fc28293          	addi	t0,t0,508 # 8004faf8 <ppu_l_h_addition_flip_table>
    80001904:	00000f93          	li	t6,0
    80001908:	00000413          	li	s0,0
    8000190c:	00700e13          	li	t3,7
    80001910:	00800313          	li	t1,8
    80001914:	00001eb7          	lui	t4,0x1
    80001918:	800e8e93          	addi	t4,t4,-2048 # 800 <_entry_offset+0x800>
    8000191c:	10000f13          	li	t5,256
    80001920:	0780006f          	j	80001998 <ppu_init+0xe4>
    80001924:	0016061b          	addiw	a2,a2,1
    80001928:	01d80833          	add	a6,a6,t4
    8000192c:	01d888b3          	add	a7,a7,t4
    80001930:	05e60c63          	beq	a2,t5,80001988 <ppu_init+0xd4>
    80001934:	00000793          	li	a5,0
    80001938:	40fe06bb          	subw	a3,t3,a5
    8000193c:	00f80533          	add	a0,a6,a5
    80001940:	40d5d73b          	sraw	a4,a1,a3
    80001944:	0017171b          	slliw	a4,a4,0x1
    80001948:	00277713          	andi	a4,a4,2
    8000194c:	40d656bb          	sraw	a3,a2,a3
    80001950:	0016f693          	andi	a3,a3,1
    80001954:	00d76733          	or	a4,a4,a3
    80001958:	00e50023          	sb	a4,0(a0)
    8000195c:	00f88533          	add	a0,a7,a5
    80001960:	40f5d73b          	sraw	a4,a1,a5
    80001964:	0017171b          	slliw	a4,a4,0x1
    80001968:	00277713          	andi	a4,a4,2
    8000196c:	40f656bb          	sraw	a3,a2,a5
    80001970:	0016f693          	andi	a3,a3,1
    80001974:	00d76733          	or	a4,a4,a3
    80001978:	00e50023          	sb	a4,0(a0)
    8000197c:	00178793          	addi	a5,a5,1
    80001980:	fa679ce3          	bne	a5,t1,80001938 <ppu_init+0x84>
    80001984:	fa1ff06f          	j	80001924 <ppu_init+0x70>
    80001988:	001f8f93          	addi	t6,t6,1
    8000198c:	00838393          	addi	t2,t2,8
    80001990:	00828293          	addi	t0,t0,8
    80001994:	01ef8c63          	beq	t6,t5,800019ac <ppu_init+0xf8>
    80001998:	000f859b          	sext.w	a1,t6
    8000199c:	00028893          	mv	a7,t0
    800019a0:	00038813          	mv	a6,t2
    800019a4:	00040613          	mv	a2,s0
    800019a8:	f8dff06f          	j	80001934 <ppu_init+0x80>
    800019ac:	00813403          	ld	s0,8(sp)
    800019b0:	01010113          	addi	sp,sp,16
    800019b4:	00008067          	ret

00000000800019b8 <ppu_sprram_write>:
    800019b8:	0004e797          	auipc	a5,0x4e
    800019bc:	11878793          	addi	a5,a5,280 # 8004fad0 <ppu>
    800019c0:	0037c703          	lbu	a4,3(a5)
    800019c4:	0017069b          	addiw	a3,a4,1
    800019c8:	00d781a3          	sb	a3,3(a5)
    800019cc:	0004e797          	auipc	a5,0x4e
    800019d0:	00478793          	addi	a5,a5,4 # 8004f9d0 <PPU_SPRRAM>
    800019d4:	00e787b3          	add	a5,a5,a4
    800019d8:	00a78023          	sb	a0,0(a5)
    800019dc:	00008067          	ret

00000000800019e0 <ppu_set_mirroring>:
    800019e0:	0004e717          	auipc	a4,0x4e
    800019e4:	0f070713          	addi	a4,a4,240 # 8004fad0 <ppu>
    800019e8:	00a72a23          	sw	a0,20(a4)
    800019ec:	40000793          	li	a5,1024
    800019f0:	00a797bb          	sllw	a5,a5,a0
    800019f4:	00f72c23          	sw	a5,24(a4)
    800019f8:	00008067          	ret

00000000800019fc <mmc_read>:
    800019fc:	0015e797          	auipc	a5,0x15e
    80001a00:	0bc78793          	addi	a5,a5,188 # 8015fab8 <memory>
    80001a04:	00a787b3          	add	a5,a5,a0
    80001a08:	0007c503          	lbu	a0,0(a5)
    80001a0c:	00008067          	ret

0000000080001a10 <mmc_write>:
    80001a10:	fe010113          	addi	sp,sp,-32
    80001a14:	00113c23          	sd	ra,24(sp)
    80001a18:	00813823          	sd	s0,16(sp)
    80001a1c:	00913423          	sd	s1,8(sp)
    80001a20:	00050493          	mv	s1,a0
    80001a24:	00058413          	mv	s0,a1
    80001a28:	00179717          	auipc	a4,0x179
    80001a2c:	4c874703          	lbu	a4,1224(a4) # 8017aef0 <mmc_id>
    80001a30:	00300793          	li	a5,3
    80001a34:	02f70463          	beq	a4,a5,80001a5c <mmc_write+0x4c>
    80001a38:	0015e797          	auipc	a5,0x15e
    80001a3c:	08078793          	addi	a5,a5,128 # 8015fab8 <memory>
    80001a40:	00978533          	add	a0,a5,s1
    80001a44:	00850023          	sb	s0,0(a0)
    80001a48:	01813083          	ld	ra,24(sp)
    80001a4c:	01013403          	ld	s0,16(sp)
    80001a50:	00813483          	ld	s1,8(sp)
    80001a54:	02010113          	addi	sp,sp,32
    80001a58:	00008067          	ret
    80001a5c:	0035f793          	andi	a5,a1,3
    80001a60:	00d79793          	slli	a5,a5,0xd
    80001a64:	00002637          	lui	a2,0x2
    80001a68:	0016e597          	auipc	a1,0x16e
    80001a6c:	05058593          	addi	a1,a1,80 # 8016fab8 <mmc_chr_pages>
    80001a70:	00f585b3          	add	a1,a1,a5
    80001a74:	00000513          	li	a0,0
    80001a78:	b8dff0ef          	jal	ra,80001604 <ppu_copy>
    80001a7c:	fbdff06f          	j	80001a38 <mmc_write+0x28>

0000000080001a80 <mmc_copy>:
    80001a80:	ff010113          	addi	sp,sp,-16
    80001a84:	00113423          	sd	ra,8(sp)
    80001a88:	0015e797          	auipc	a5,0x15e
    80001a8c:	03078793          	addi	a5,a5,48 # 8015fab8 <memory>
    80001a90:	00a78533          	add	a0,a5,a0
    80001a94:	52d020ef          	jal	ra,800047c0 <memcpy>
    80001a98:	00813083          	ld	ra,8(sp)
    80001a9c:	01010113          	addi	sp,sp,16
    80001aa0:	00008067          	ret

0000000080001aa4 <mmc_append_chr_rom_page>:
    80001aa4:	ff010113          	addi	sp,sp,-16
    80001aa8:	00113423          	sd	ra,8(sp)
    80001aac:	00179797          	auipc	a5,0x179
    80001ab0:	4407a783          	lw	a5,1088(a5) # 8017aeec <mmc_chr_pages_number>
    80001ab4:	02f04c63          	bgtz	a5,80001aec <mmc_append_chr_rom_page+0x48>
    80001ab8:	00050593          	mv	a1,a0
    80001abc:	0017871b          	addiw	a4,a5,1
    80001ac0:	00179697          	auipc	a3,0x179
    80001ac4:	42e6a623          	sw	a4,1068(a3) # 8017aeec <mmc_chr_pages_number>
    80001ac8:	00d79793          	slli	a5,a5,0xd
    80001acc:	00002637          	lui	a2,0x2
    80001ad0:	0016e517          	auipc	a0,0x16e
    80001ad4:	fe850513          	addi	a0,a0,-24 # 8016fab8 <mmc_chr_pages>
    80001ad8:	00f50533          	add	a0,a0,a5
    80001adc:	4e5020ef          	jal	ra,800047c0 <memcpy>
    80001ae0:	00813083          	ld	ra,8(sp)
    80001ae4:	01010113          	addi	sp,sp,16
    80001ae8:	00008067          	ret
    80001aec:	01d00613          	li	a2,29
    80001af0:	00003597          	auipc	a1,0x3
    80001af4:	39058593          	addi	a1,a1,912 # 80004e80 <palette+0x120>
    80001af8:	00003517          	auipc	a0,0x3
    80001afc:	3d050513          	addi	a0,a0,976 # 80004ec8 <palette+0x168>
    80001b00:	249020ef          	jal	ra,80004548 <printf>
    80001b04:	00100513          	li	a0,1
    80001b08:	5c8020ef          	jal	ra,800040d0 <halt>

0000000080001b0c <____FE____>:
    80001b0c:	00008067          	ret

0000000080001b10 <cpu_op_nop>:
    80001b10:	00008067          	ret

0000000080001b14 <cpu_op_and>:
    80001b14:	00179797          	auipc	a5,0x179
    80001b18:	3e478793          	addi	a5,a5,996 # 8017aef8 <cpu>
    80001b1c:	0067c683          	lbu	a3,6(a5)
    80001b20:	07d6f693          	andi	a3,a3,125
    80001b24:	00179617          	auipc	a2,0x179
    80001b28:	3f062603          	lw	a2,1008(a2) # 8017af14 <op_value>
    80001b2c:	0037c703          	lbu	a4,3(a5)
    80001b30:	00c77733          	and	a4,a4,a2
    80001b34:	00e781a3          	sb	a4,3(a5)
    80001b38:	00003617          	auipc	a2,0x3
    80001b3c:	3b060613          	addi	a2,a2,944 # 80004ee8 <cpu_zn_flag_table>
    80001b40:	00e60733          	add	a4,a2,a4
    80001b44:	00074703          	lbu	a4,0(a4)
    80001b48:	00d76733          	or	a4,a4,a3
    80001b4c:	00e78323          	sb	a4,6(a5)
    80001b50:	00008067          	ret

0000000080001b54 <cpu_op_eor>:
    80001b54:	00179797          	auipc	a5,0x179
    80001b58:	3a478793          	addi	a5,a5,932 # 8017aef8 <cpu>
    80001b5c:	0067c683          	lbu	a3,6(a5)
    80001b60:	07d6f693          	andi	a3,a3,125
    80001b64:	0037c703          	lbu	a4,3(a5)
    80001b68:	00179617          	auipc	a2,0x179
    80001b6c:	3ac64603          	lbu	a2,940(a2) # 8017af14 <op_value>
    80001b70:	00c74733          	xor	a4,a4,a2
    80001b74:	00e781a3          	sb	a4,3(a5)
    80001b78:	00003617          	auipc	a2,0x3
    80001b7c:	37060613          	addi	a2,a2,880 # 80004ee8 <cpu_zn_flag_table>
    80001b80:	00e60733          	add	a4,a2,a4
    80001b84:	00074703          	lbu	a4,0(a4)
    80001b88:	00d76733          	or	a4,a4,a3
    80001b8c:	00e78323          	sb	a4,6(a5)
    80001b90:	00008067          	ret

0000000080001b94 <cpu_op_ora>:
    80001b94:	00179797          	auipc	a5,0x179
    80001b98:	36478793          	addi	a5,a5,868 # 8017aef8 <cpu>
    80001b9c:	0067c683          	lbu	a3,6(a5)
    80001ba0:	07d6f693          	andi	a3,a3,125
    80001ba4:	0037c703          	lbu	a4,3(a5)
    80001ba8:	00179617          	auipc	a2,0x179
    80001bac:	36c64603          	lbu	a2,876(a2) # 8017af14 <op_value>
    80001bb0:	00c76733          	or	a4,a4,a2
    80001bb4:	00e781a3          	sb	a4,3(a5)
    80001bb8:	00003617          	auipc	a2,0x3
    80001bbc:	33060613          	addi	a2,a2,816 # 80004ee8 <cpu_zn_flag_table>
    80001bc0:	00e60733          	add	a4,a2,a4
    80001bc4:	00074703          	lbu	a4,0(a4)
    80001bc8:	00d76733          	or	a4,a4,a3
    80001bcc:	00e78323          	sb	a4,6(a5)
    80001bd0:	00008067          	ret

0000000080001bd4 <cpu_op_lda>:
    80001bd4:	00179717          	auipc	a4,0x179
    80001bd8:	32470713          	addi	a4,a4,804 # 8017aef8 <cpu>
    80001bdc:	00674683          	lbu	a3,6(a4)
    80001be0:	07d6f693          	andi	a3,a3,125
    80001be4:	00179797          	auipc	a5,0x179
    80001be8:	3307a783          	lw	a5,816(a5) # 8017af14 <op_value>
    80001bec:	00f701a3          	sb	a5,3(a4)
    80001bf0:	0ff7f793          	zext.b	a5,a5
    80001bf4:	00003617          	auipc	a2,0x3
    80001bf8:	2f460613          	addi	a2,a2,756 # 80004ee8 <cpu_zn_flag_table>
    80001bfc:	00f607b3          	add	a5,a2,a5
    80001c00:	0007c783          	lbu	a5,0(a5)
    80001c04:	00d7e7b3          	or	a5,a5,a3
    80001c08:	00f70323          	sb	a5,6(a4)
    80001c0c:	00008067          	ret

0000000080001c10 <cpu_op_ldx>:
    80001c10:	00179717          	auipc	a4,0x179
    80001c14:	2e870713          	addi	a4,a4,744 # 8017aef8 <cpu>
    80001c18:	00674683          	lbu	a3,6(a4)
    80001c1c:	07d6f693          	andi	a3,a3,125
    80001c20:	00179797          	auipc	a5,0x179
    80001c24:	2f47a783          	lw	a5,756(a5) # 8017af14 <op_value>
    80001c28:	00f70223          	sb	a5,4(a4)
    80001c2c:	0ff7f793          	zext.b	a5,a5
    80001c30:	00003617          	auipc	a2,0x3
    80001c34:	2b860613          	addi	a2,a2,696 # 80004ee8 <cpu_zn_flag_table>
    80001c38:	00f607b3          	add	a5,a2,a5
    80001c3c:	0007c783          	lbu	a5,0(a5)
    80001c40:	00d7e7b3          	or	a5,a5,a3
    80001c44:	00f70323          	sb	a5,6(a4)
    80001c48:	00008067          	ret

0000000080001c4c <cpu_op_ldy>:
    80001c4c:	00179717          	auipc	a4,0x179
    80001c50:	2ac70713          	addi	a4,a4,684 # 8017aef8 <cpu>
    80001c54:	00674683          	lbu	a3,6(a4)
    80001c58:	07d6f693          	andi	a3,a3,125
    80001c5c:	00179797          	auipc	a5,0x179
    80001c60:	2b87a783          	lw	a5,696(a5) # 8017af14 <op_value>
    80001c64:	00f702a3          	sb	a5,5(a4)
    80001c68:	0ff7f793          	zext.b	a5,a5
    80001c6c:	00003617          	auipc	a2,0x3
    80001c70:	27c60613          	addi	a2,a2,636 # 80004ee8 <cpu_zn_flag_table>
    80001c74:	00f607b3          	add	a5,a2,a5
    80001c78:	0007c783          	lbu	a5,0(a5)
    80001c7c:	00d7e7b3          	or	a5,a5,a3
    80001c80:	00f70323          	sb	a5,6(a4)
    80001c84:	00008067          	ret

0000000080001c88 <cpu_op_tax>:
    80001c88:	00179797          	auipc	a5,0x179
    80001c8c:	27078793          	addi	a5,a5,624 # 8017aef8 <cpu>
    80001c90:	0067c683          	lbu	a3,6(a5)
    80001c94:	07d6f693          	andi	a3,a3,125
    80001c98:	0037c603          	lbu	a2,3(a5)
    80001c9c:	00c78223          	sb	a2,4(a5)
    80001ca0:	00003717          	auipc	a4,0x3
    80001ca4:	24870713          	addi	a4,a4,584 # 80004ee8 <cpu_zn_flag_table>
    80001ca8:	00c70733          	add	a4,a4,a2
    80001cac:	00074703          	lbu	a4,0(a4)
    80001cb0:	00d76733          	or	a4,a4,a3
    80001cb4:	00e78323          	sb	a4,6(a5)
    80001cb8:	00008067          	ret

0000000080001cbc <cpu_op_txa>:
    80001cbc:	00179797          	auipc	a5,0x179
    80001cc0:	23c78793          	addi	a5,a5,572 # 8017aef8 <cpu>
    80001cc4:	0067c683          	lbu	a3,6(a5)
    80001cc8:	07d6f693          	andi	a3,a3,125
    80001ccc:	0047c603          	lbu	a2,4(a5)
    80001cd0:	00c781a3          	sb	a2,3(a5)
    80001cd4:	00003717          	auipc	a4,0x3
    80001cd8:	21470713          	addi	a4,a4,532 # 80004ee8 <cpu_zn_flag_table>
    80001cdc:	00c70733          	add	a4,a4,a2
    80001ce0:	00074703          	lbu	a4,0(a4)
    80001ce4:	00d76733          	or	a4,a4,a3
    80001ce8:	00e78323          	sb	a4,6(a5)
    80001cec:	00008067          	ret

0000000080001cf0 <cpu_op_tay>:
    80001cf0:	00179797          	auipc	a5,0x179
    80001cf4:	20878793          	addi	a5,a5,520 # 8017aef8 <cpu>
    80001cf8:	0067c683          	lbu	a3,6(a5)
    80001cfc:	07d6f693          	andi	a3,a3,125
    80001d00:	0037c603          	lbu	a2,3(a5)
    80001d04:	00c782a3          	sb	a2,5(a5)
    80001d08:	00003717          	auipc	a4,0x3
    80001d0c:	1e070713          	addi	a4,a4,480 # 80004ee8 <cpu_zn_flag_table>
    80001d10:	00c70733          	add	a4,a4,a2
    80001d14:	00074703          	lbu	a4,0(a4)
    80001d18:	00d76733          	or	a4,a4,a3
    80001d1c:	00e78323          	sb	a4,6(a5)
    80001d20:	00008067          	ret

0000000080001d24 <cpu_op_tya>:
    80001d24:	00179797          	auipc	a5,0x179
    80001d28:	1d478793          	addi	a5,a5,468 # 8017aef8 <cpu>
    80001d2c:	0067c683          	lbu	a3,6(a5)
    80001d30:	07d6f693          	andi	a3,a3,125
    80001d34:	0057c603          	lbu	a2,5(a5)
    80001d38:	00c781a3          	sb	a2,3(a5)
    80001d3c:	00003717          	auipc	a4,0x3
    80001d40:	1ac70713          	addi	a4,a4,428 # 80004ee8 <cpu_zn_flag_table>
    80001d44:	00c70733          	add	a4,a4,a2
    80001d48:	00074703          	lbu	a4,0(a4)
    80001d4c:	00d76733          	or	a4,a4,a3
    80001d50:	00e78323          	sb	a4,6(a5)
    80001d54:	00008067          	ret

0000000080001d58 <cpu_op_tsx>:
    80001d58:	00179797          	auipc	a5,0x179
    80001d5c:	1a078793          	addi	a5,a5,416 # 8017aef8 <cpu>
    80001d60:	0067c683          	lbu	a3,6(a5)
    80001d64:	07d6f693          	andi	a3,a3,125
    80001d68:	0027c603          	lbu	a2,2(a5)
    80001d6c:	00c78223          	sb	a2,4(a5)
    80001d70:	00003717          	auipc	a4,0x3
    80001d74:	17870713          	addi	a4,a4,376 # 80004ee8 <cpu_zn_flag_table>
    80001d78:	00c70733          	add	a4,a4,a2
    80001d7c:	00074703          	lbu	a4,0(a4)
    80001d80:	00d76733          	or	a4,a4,a3
    80001d84:	00e78323          	sb	a4,6(a5)
    80001d88:	00008067          	ret

0000000080001d8c <cpu_op_txs>:
    80001d8c:	00179797          	auipc	a5,0x179
    80001d90:	16c78793          	addi	a5,a5,364 # 8017aef8 <cpu>
    80001d94:	0047c703          	lbu	a4,4(a5)
    80001d98:	00e78123          	sb	a4,2(a5)
    80001d9c:	00008067          	ret

0000000080001da0 <cpu_op_jmp>:
    80001da0:	00179797          	auipc	a5,0x179
    80001da4:	1687a783          	lw	a5,360(a5) # 8017af08 <op_address>
    80001da8:	00179717          	auipc	a4,0x179
    80001dac:	14f71823          	sh	a5,336(a4) # 8017aef8 <cpu>
    80001db0:	00008067          	ret

0000000080001db4 <cpu_op_inx>:
    80001db4:	00179717          	auipc	a4,0x179
    80001db8:	14470713          	addi	a4,a4,324 # 8017aef8 <cpu>
    80001dbc:	00674683          	lbu	a3,6(a4)
    80001dc0:	07d6f693          	andi	a3,a3,125
    80001dc4:	00474783          	lbu	a5,4(a4)
    80001dc8:	0017879b          	addiw	a5,a5,1
    80001dcc:	0ff7f793          	zext.b	a5,a5
    80001dd0:	00f70223          	sb	a5,4(a4)
    80001dd4:	00003617          	auipc	a2,0x3
    80001dd8:	11460613          	addi	a2,a2,276 # 80004ee8 <cpu_zn_flag_table>
    80001ddc:	00f607b3          	add	a5,a2,a5
    80001de0:	0007c783          	lbu	a5,0(a5)
    80001de4:	00d7e7b3          	or	a5,a5,a3
    80001de8:	00f70323          	sb	a5,6(a4)
    80001dec:	00008067          	ret

0000000080001df0 <cpu_op_iny>:
    80001df0:	00179717          	auipc	a4,0x179
    80001df4:	10870713          	addi	a4,a4,264 # 8017aef8 <cpu>
    80001df8:	00674683          	lbu	a3,6(a4)
    80001dfc:	07d6f693          	andi	a3,a3,125
    80001e00:	00574783          	lbu	a5,5(a4)
    80001e04:	0017879b          	addiw	a5,a5,1
    80001e08:	0ff7f793          	zext.b	a5,a5
    80001e0c:	00f702a3          	sb	a5,5(a4)
    80001e10:	00003617          	auipc	a2,0x3
    80001e14:	0d860613          	addi	a2,a2,216 # 80004ee8 <cpu_zn_flag_table>
    80001e18:	00f607b3          	add	a5,a2,a5
    80001e1c:	0007c783          	lbu	a5,0(a5)
    80001e20:	00d7e7b3          	or	a5,a5,a3
    80001e24:	00f70323          	sb	a5,6(a4)
    80001e28:	00008067          	ret

0000000080001e2c <cpu_op_dex>:
    80001e2c:	00179717          	auipc	a4,0x179
    80001e30:	0cc70713          	addi	a4,a4,204 # 8017aef8 <cpu>
    80001e34:	00674683          	lbu	a3,6(a4)
    80001e38:	07d6f693          	andi	a3,a3,125
    80001e3c:	00474783          	lbu	a5,4(a4)
    80001e40:	fff7879b          	addiw	a5,a5,-1
    80001e44:	0ff7f793          	zext.b	a5,a5
    80001e48:	00f70223          	sb	a5,4(a4)
    80001e4c:	00003617          	auipc	a2,0x3
    80001e50:	09c60613          	addi	a2,a2,156 # 80004ee8 <cpu_zn_flag_table>
    80001e54:	00f607b3          	add	a5,a2,a5
    80001e58:	0007c783          	lbu	a5,0(a5)
    80001e5c:	00d7e7b3          	or	a5,a5,a3
    80001e60:	00f70323          	sb	a5,6(a4)
    80001e64:	00008067          	ret

0000000080001e68 <cpu_op_dey>:
    80001e68:	00179717          	auipc	a4,0x179
    80001e6c:	09070713          	addi	a4,a4,144 # 8017aef8 <cpu>
    80001e70:	00674683          	lbu	a3,6(a4)
    80001e74:	07d6f693          	andi	a3,a3,125
    80001e78:	00574783          	lbu	a5,5(a4)
    80001e7c:	fff7879b          	addiw	a5,a5,-1
    80001e80:	0ff7f793          	zext.b	a5,a5
    80001e84:	00f702a3          	sb	a5,5(a4)
    80001e88:	00003617          	auipc	a2,0x3
    80001e8c:	06060613          	addi	a2,a2,96 # 80004ee8 <cpu_zn_flag_table>
    80001e90:	00f607b3          	add	a5,a2,a5
    80001e94:	0007c783          	lbu	a5,0(a5)
    80001e98:	00d7e7b3          	or	a5,a5,a3
    80001e9c:	00f70323          	sb	a5,6(a4)
    80001ea0:	00008067          	ret

0000000080001ea4 <cpu_op_lax>:
    80001ea4:	00179797          	auipc	a5,0x179
    80001ea8:	05478793          	addi	a5,a5,84 # 8017aef8 <cpu>
    80001eac:	0067c683          	lbu	a3,6(a5)
    80001eb0:	07d6f693          	andi	a3,a3,125
    80001eb4:	00179717          	auipc	a4,0x179
    80001eb8:	06072703          	lw	a4,96(a4) # 8017af14 <op_value>
    80001ebc:	0ff77613          	zext.b	a2,a4
    80001ec0:	00c78223          	sb	a2,4(a5)
    80001ec4:	00c781a3          	sb	a2,3(a5)
    80001ec8:	00060713          	mv	a4,a2
    80001ecc:	00003617          	auipc	a2,0x3
    80001ed0:	01c60613          	addi	a2,a2,28 # 80004ee8 <cpu_zn_flag_table>
    80001ed4:	00e60733          	add	a4,a2,a4
    80001ed8:	00074703          	lbu	a4,0(a4)
    80001edc:	00d76733          	or	a4,a4,a3
    80001ee0:	00e78323          	sb	a4,6(a5)
    80001ee4:	00008067          	ret

0000000080001ee8 <cpu_op_sta>:
    80001ee8:	ff010113          	addi	sp,sp,-16
    80001eec:	00113423          	sd	ra,8(sp)
    80001ef0:	00179597          	auipc	a1,0x179
    80001ef4:	00b5c583          	lbu	a1,11(a1) # 8017aefb <cpu+0x3>
    80001ef8:	00179517          	auipc	a0,0x179
    80001efc:	01055503          	lhu	a0,16(a0) # 8017af08 <op_address>
    80001f00:	cc1fe0ef          	jal	ra,80000bc0 <memory_writeb>
    80001f04:	00813083          	ld	ra,8(sp)
    80001f08:	01010113          	addi	sp,sp,16
    80001f0c:	00008067          	ret

0000000080001f10 <cpu_op_stx>:
    80001f10:	ff010113          	addi	sp,sp,-16
    80001f14:	00113423          	sd	ra,8(sp)
    80001f18:	00179597          	auipc	a1,0x179
    80001f1c:	fe45c583          	lbu	a1,-28(a1) # 8017aefc <cpu+0x4>
    80001f20:	00179517          	auipc	a0,0x179
    80001f24:	fe855503          	lhu	a0,-24(a0) # 8017af08 <op_address>
    80001f28:	c99fe0ef          	jal	ra,80000bc0 <memory_writeb>
    80001f2c:	00813083          	ld	ra,8(sp)
    80001f30:	01010113          	addi	sp,sp,16
    80001f34:	00008067          	ret

0000000080001f38 <cpu_op_sty>:
    80001f38:	ff010113          	addi	sp,sp,-16
    80001f3c:	00113423          	sd	ra,8(sp)
    80001f40:	00179597          	auipc	a1,0x179
    80001f44:	fbd5c583          	lbu	a1,-67(a1) # 8017aefd <cpu+0x5>
    80001f48:	00179517          	auipc	a0,0x179
    80001f4c:	fc055503          	lhu	a0,-64(a0) # 8017af08 <op_address>
    80001f50:	c71fe0ef          	jal	ra,80000bc0 <memory_writeb>
    80001f54:	00813083          	ld	ra,8(sp)
    80001f58:	01010113          	addi	sp,sp,16
    80001f5c:	00008067          	ret

0000000080001f60 <cpu_op_inc>:
    80001f60:	ff010113          	addi	sp,sp,-16
    80001f64:	00113423          	sd	ra,8(sp)
    80001f68:	00813023          	sd	s0,0(sp)
    80001f6c:	00179417          	auipc	s0,0x179
    80001f70:	fa842403          	lw	s0,-88(s0) # 8017af14 <op_value>
    80001f74:	0014041b          	addiw	s0,s0,1
    80001f78:	0ff47413          	zext.b	s0,s0
    80001f7c:	00040593          	mv	a1,s0
    80001f80:	00179517          	auipc	a0,0x179
    80001f84:	f8855503          	lhu	a0,-120(a0) # 8017af08 <op_address>
    80001f88:	c39fe0ef          	jal	ra,80000bc0 <memory_writeb>
    80001f8c:	00179697          	auipc	a3,0x179
    80001f90:	f6c68693          	addi	a3,a3,-148 # 8017aef8 <cpu>
    80001f94:	0066c783          	lbu	a5,6(a3)
    80001f98:	07d7f793          	andi	a5,a5,125
    80001f9c:	00003717          	auipc	a4,0x3
    80001fa0:	f4c70713          	addi	a4,a4,-180 # 80004ee8 <cpu_zn_flag_table>
    80001fa4:	00870733          	add	a4,a4,s0
    80001fa8:	00074703          	lbu	a4,0(a4)
    80001fac:	00e7e7b3          	or	a5,a5,a4
    80001fb0:	00f68323          	sb	a5,6(a3)
    80001fb4:	00813083          	ld	ra,8(sp)
    80001fb8:	00013403          	ld	s0,0(sp)
    80001fbc:	01010113          	addi	sp,sp,16
    80001fc0:	00008067          	ret

0000000080001fc4 <cpu_op_dec>:
    80001fc4:	ff010113          	addi	sp,sp,-16
    80001fc8:	00113423          	sd	ra,8(sp)
    80001fcc:	00813023          	sd	s0,0(sp)
    80001fd0:	00179417          	auipc	s0,0x179
    80001fd4:	f4442403          	lw	s0,-188(s0) # 8017af14 <op_value>
    80001fd8:	fff4041b          	addiw	s0,s0,-1
    80001fdc:	0ff47413          	zext.b	s0,s0
    80001fe0:	00040593          	mv	a1,s0
    80001fe4:	00179517          	auipc	a0,0x179
    80001fe8:	f2455503          	lhu	a0,-220(a0) # 8017af08 <op_address>
    80001fec:	bd5fe0ef          	jal	ra,80000bc0 <memory_writeb>
    80001ff0:	00179697          	auipc	a3,0x179
    80001ff4:	f0868693          	addi	a3,a3,-248 # 8017aef8 <cpu>
    80001ff8:	0066c783          	lbu	a5,6(a3)
    80001ffc:	07d7f793          	andi	a5,a5,125
    80002000:	00003717          	auipc	a4,0x3
    80002004:	ee870713          	addi	a4,a4,-280 # 80004ee8 <cpu_zn_flag_table>
    80002008:	00870733          	add	a4,a4,s0
    8000200c:	00074703          	lbu	a4,0(a4)
    80002010:	00e7e7b3          	or	a5,a5,a4
    80002014:	00f68323          	sb	a5,6(a3)
    80002018:	00813083          	ld	ra,8(sp)
    8000201c:	00013403          	ld	s0,0(sp)
    80002020:	01010113          	addi	sp,sp,16
    80002024:	00008067          	ret

0000000080002028 <cpu_op_axa>:
    80002028:	ff010113          	addi	sp,sp,-16
    8000202c:	00113423          	sd	ra,8(sp)
    80002030:	00179517          	auipc	a0,0x179
    80002034:	ed852503          	lw	a0,-296(a0) # 8017af08 <op_address>
    80002038:	00179717          	auipc	a4,0x179
    8000203c:	ec070713          	addi	a4,a4,-320 # 8017aef8 <cpu>
    80002040:	00374783          	lbu	a5,3(a4)
    80002044:	00474703          	lbu	a4,4(a4)
    80002048:	00e7f7b3          	and	a5,a5,a4
    8000204c:	4085559b          	sraiw	a1,a0,0x8
    80002050:	00b7f5b3          	and	a1,a5,a1
    80002054:	03051513          	slli	a0,a0,0x30
    80002058:	03055513          	srli	a0,a0,0x30
    8000205c:	b65fe0ef          	jal	ra,80000bc0 <memory_writeb>
    80002060:	00813083          	ld	ra,8(sp)
    80002064:	01010113          	addi	sp,sp,16
    80002068:	00008067          	ret

000000008000206c <cpu_op_axs>:
    8000206c:	ff010113          	addi	sp,sp,-16
    80002070:	00113423          	sd	ra,8(sp)
    80002074:	00179797          	auipc	a5,0x179
    80002078:	e8478793          	addi	a5,a5,-380 # 8017aef8 <cpu>
    8000207c:	0037c583          	lbu	a1,3(a5)
    80002080:	0047c783          	lbu	a5,4(a5)
    80002084:	00f5f5b3          	and	a1,a1,a5
    80002088:	00179517          	auipc	a0,0x179
    8000208c:	e8055503          	lhu	a0,-384(a0) # 8017af08 <op_address>
    80002090:	b31fe0ef          	jal	ra,80000bc0 <memory_writeb>
    80002094:	00813083          	ld	ra,8(sp)
    80002098:	01010113          	addi	sp,sp,16
    8000209c:	00008067          	ret

00000000800020a0 <cpu_op_bcs>:
    800020a0:	ff010113          	addi	sp,sp,-16
    800020a4:	00113423          	sd	ra,8(sp)
    800020a8:	00000593          	li	a1,0
    800020ac:	00179517          	auipc	a0,0x179
    800020b0:	e5254503          	lbu	a0,-430(a0) # 8017aefe <cpu+0x6>
    800020b4:	6f9010ef          	jal	ra,80003fac <common_bit_set>
    800020b8:	00050a63          	beqz	a0,800020cc <cpu_op_bcs+0x2c>
    800020bc:	00179797          	auipc	a5,0x179
    800020c0:	e4c7a783          	lw	a5,-436(a5) # 8017af08 <op_address>
    800020c4:	00179717          	auipc	a4,0x179
    800020c8:	e2f71a23          	sh	a5,-460(a4) # 8017aef8 <cpu>
    800020cc:	00813083          	ld	ra,8(sp)
    800020d0:	01010113          	addi	sp,sp,16
    800020d4:	00008067          	ret

00000000800020d8 <cpu_op_beq>:
    800020d8:	ff010113          	addi	sp,sp,-16
    800020dc:	00113423          	sd	ra,8(sp)
    800020e0:	00100593          	li	a1,1
    800020e4:	00179517          	auipc	a0,0x179
    800020e8:	e1a54503          	lbu	a0,-486(a0) # 8017aefe <cpu+0x6>
    800020ec:	6c1010ef          	jal	ra,80003fac <common_bit_set>
    800020f0:	00050a63          	beqz	a0,80002104 <cpu_op_beq+0x2c>
    800020f4:	00179797          	auipc	a5,0x179
    800020f8:	e147a783          	lw	a5,-492(a5) # 8017af08 <op_address>
    800020fc:	00179717          	auipc	a4,0x179
    80002100:	def71e23          	sh	a5,-516(a4) # 8017aef8 <cpu>
    80002104:	00813083          	ld	ra,8(sp)
    80002108:	01010113          	addi	sp,sp,16
    8000210c:	00008067          	ret

0000000080002110 <cpu_op_bmi>:
    80002110:	ff010113          	addi	sp,sp,-16
    80002114:	00113423          	sd	ra,8(sp)
    80002118:	00700593          	li	a1,7
    8000211c:	00179517          	auipc	a0,0x179
    80002120:	de254503          	lbu	a0,-542(a0) # 8017aefe <cpu+0x6>
    80002124:	689010ef          	jal	ra,80003fac <common_bit_set>
    80002128:	00050a63          	beqz	a0,8000213c <cpu_op_bmi+0x2c>
    8000212c:	00179797          	auipc	a5,0x179
    80002130:	ddc7a783          	lw	a5,-548(a5) # 8017af08 <op_address>
    80002134:	00179717          	auipc	a4,0x179
    80002138:	dcf71223          	sh	a5,-572(a4) # 8017aef8 <cpu>
    8000213c:	00813083          	ld	ra,8(sp)
    80002140:	01010113          	addi	sp,sp,16
    80002144:	00008067          	ret

0000000080002148 <cpu_op_bvs>:
    80002148:	ff010113          	addi	sp,sp,-16
    8000214c:	00113423          	sd	ra,8(sp)
    80002150:	00600593          	li	a1,6
    80002154:	00179517          	auipc	a0,0x179
    80002158:	daa54503          	lbu	a0,-598(a0) # 8017aefe <cpu+0x6>
    8000215c:	651010ef          	jal	ra,80003fac <common_bit_set>
    80002160:	00050a63          	beqz	a0,80002174 <cpu_op_bvs+0x2c>
    80002164:	00179797          	auipc	a5,0x179
    80002168:	da47a783          	lw	a5,-604(a5) # 8017af08 <op_address>
    8000216c:	00179717          	auipc	a4,0x179
    80002170:	d8f71623          	sh	a5,-628(a4) # 8017aef8 <cpu>
    80002174:	00813083          	ld	ra,8(sp)
    80002178:	01010113          	addi	sp,sp,16
    8000217c:	00008067          	ret

0000000080002180 <cpu_op_bne>:
    80002180:	ff010113          	addi	sp,sp,-16
    80002184:	00113423          	sd	ra,8(sp)
    80002188:	00100593          	li	a1,1
    8000218c:	00179517          	auipc	a0,0x179
    80002190:	d7254503          	lbu	a0,-654(a0) # 8017aefe <cpu+0x6>
    80002194:	619010ef          	jal	ra,80003fac <common_bit_set>
    80002198:	00051a63          	bnez	a0,800021ac <cpu_op_bne+0x2c>
    8000219c:	00179797          	auipc	a5,0x179
    800021a0:	d6c7a783          	lw	a5,-660(a5) # 8017af08 <op_address>
    800021a4:	00179717          	auipc	a4,0x179
    800021a8:	d4f71a23          	sh	a5,-684(a4) # 8017aef8 <cpu>
    800021ac:	00813083          	ld	ra,8(sp)
    800021b0:	01010113          	addi	sp,sp,16
    800021b4:	00008067          	ret

00000000800021b8 <cpu_op_bcc>:
    800021b8:	ff010113          	addi	sp,sp,-16
    800021bc:	00113423          	sd	ra,8(sp)
    800021c0:	00000593          	li	a1,0
    800021c4:	00179517          	auipc	a0,0x179
    800021c8:	d3a54503          	lbu	a0,-710(a0) # 8017aefe <cpu+0x6>
    800021cc:	5e1010ef          	jal	ra,80003fac <common_bit_set>
    800021d0:	00051a63          	bnez	a0,800021e4 <cpu_op_bcc+0x2c>
    800021d4:	00179797          	auipc	a5,0x179
    800021d8:	d347a783          	lw	a5,-716(a5) # 8017af08 <op_address>
    800021dc:	00179717          	auipc	a4,0x179
    800021e0:	d0f71e23          	sh	a5,-740(a4) # 8017aef8 <cpu>
    800021e4:	00813083          	ld	ra,8(sp)
    800021e8:	01010113          	addi	sp,sp,16
    800021ec:	00008067          	ret

00000000800021f0 <cpu_op_bpl>:
    800021f0:	ff010113          	addi	sp,sp,-16
    800021f4:	00113423          	sd	ra,8(sp)
    800021f8:	00700593          	li	a1,7
    800021fc:	00179517          	auipc	a0,0x179
    80002200:	d0254503          	lbu	a0,-766(a0) # 8017aefe <cpu+0x6>
    80002204:	5a9010ef          	jal	ra,80003fac <common_bit_set>
    80002208:	00051a63          	bnez	a0,8000221c <cpu_op_bpl+0x2c>
    8000220c:	00179797          	auipc	a5,0x179
    80002210:	cfc7a783          	lw	a5,-772(a5) # 8017af08 <op_address>
    80002214:	00179717          	auipc	a4,0x179
    80002218:	cef71223          	sh	a5,-796(a4) # 8017aef8 <cpu>
    8000221c:	00813083          	ld	ra,8(sp)
    80002220:	01010113          	addi	sp,sp,16
    80002224:	00008067          	ret

0000000080002228 <cpu_op_bvc>:
    80002228:	ff010113          	addi	sp,sp,-16
    8000222c:	00113423          	sd	ra,8(sp)
    80002230:	00600593          	li	a1,6
    80002234:	00179517          	auipc	a0,0x179
    80002238:	cca54503          	lbu	a0,-822(a0) # 8017aefe <cpu+0x6>
    8000223c:	571010ef          	jal	ra,80003fac <common_bit_set>
    80002240:	00051a63          	bnez	a0,80002254 <cpu_op_bvc+0x2c>
    80002244:	00179797          	auipc	a5,0x179
    80002248:	cc47a783          	lw	a5,-828(a5) # 8017af08 <op_address>
    8000224c:	00179717          	auipc	a4,0x179
    80002250:	caf71623          	sh	a5,-852(a4) # 8017aef8 <cpu>
    80002254:	00813083          	ld	ra,8(sp)
    80002258:	01010113          	addi	sp,sp,16
    8000225c:	00008067          	ret

0000000080002260 <cpu_op_adc>:
    80002260:	fd010113          	addi	sp,sp,-48
    80002264:	02113423          	sd	ra,40(sp)
    80002268:	02813023          	sd	s0,32(sp)
    8000226c:	00913c23          	sd	s1,24(sp)
    80002270:	01213823          	sd	s2,16(sp)
    80002274:	01313423          	sd	s3,8(sp)
    80002278:	00179497          	auipc	s1,0x179
    8000227c:	c8048493          	addi	s1,s1,-896 # 8017aef8 <cpu>
    80002280:	0034c603          	lbu	a2,3(s1)
    80002284:	00179997          	auipc	s3,0x179
    80002288:	c9098993          	addi	s3,s3,-880 # 8017af14 <op_value>
    8000228c:	0009a783          	lw	a5,0(s3)
    80002290:	00f6043b          	addw	s0,a2,a5
    80002294:	00000593          	li	a1,0
    80002298:	0064c503          	lbu	a0,6(s1)
    8000229c:	511010ef          	jal	ra,80003fac <common_bit_set>
    800022a0:	00a4063b          	addw	a2,s0,a0
    800022a4:	0006041b          	sext.w	s0,a2
    800022a8:	4086561b          	sraiw	a2,a2,0x8
    800022ac:	00179917          	auipc	s2,0x179
    800022b0:	c5290913          	addi	s2,s2,-942 # 8017aefe <cpu+0x6>
    800022b4:	00167613          	andi	a2,a2,1
    800022b8:	00000593          	li	a1,0
    800022bc:	00090513          	mv	a0,s2
    800022c0:	535010ef          	jal	ra,80003ff4 <common_modify_bitb>
    800022c4:	0034c783          	lbu	a5,3(s1)
    800022c8:	0009a603          	lw	a2,0(s3)
    800022cc:	00c7c633          	xor	a2,a5,a2
    800022d0:	fff64613          	not	a2,a2
    800022d4:	0087c7b3          	xor	a5,a5,s0
    800022d8:	00f67633          	and	a2,a2,a5
    800022dc:	4076561b          	sraiw	a2,a2,0x7
    800022e0:	00167613          	andi	a2,a2,1
    800022e4:	00600593          	li	a1,6
    800022e8:	00090513          	mv	a0,s2
    800022ec:	509010ef          	jal	ra,80003ff4 <common_modify_bitb>
    800022f0:	008481a3          	sb	s0,3(s1)
    800022f4:	0064c783          	lbu	a5,6(s1)
    800022f8:	07d7f793          	andi	a5,a5,125
    800022fc:	0ff47413          	zext.b	s0,s0
    80002300:	00003717          	auipc	a4,0x3
    80002304:	be870713          	addi	a4,a4,-1048 # 80004ee8 <cpu_zn_flag_table>
    80002308:	00870733          	add	a4,a4,s0
    8000230c:	00074703          	lbu	a4,0(a4)
    80002310:	00e7e7b3          	or	a5,a5,a4
    80002314:	00f48323          	sb	a5,6(s1)
    80002318:	02813083          	ld	ra,40(sp)
    8000231c:	02013403          	ld	s0,32(sp)
    80002320:	01813483          	ld	s1,24(sp)
    80002324:	01013903          	ld	s2,16(sp)
    80002328:	00813983          	ld	s3,8(sp)
    8000232c:	03010113          	addi	sp,sp,48
    80002330:	00008067          	ret

0000000080002334 <cpu_op_sbc>:
    80002334:	fd010113          	addi	sp,sp,-48
    80002338:	02113423          	sd	ra,40(sp)
    8000233c:	02813023          	sd	s0,32(sp)
    80002340:	00913c23          	sd	s1,24(sp)
    80002344:	01213823          	sd	s2,16(sp)
    80002348:	01313423          	sd	s3,8(sp)
    8000234c:	00179497          	auipc	s1,0x179
    80002350:	bac48493          	addi	s1,s1,-1108 # 8017aef8 <cpu>
    80002354:	0034c603          	lbu	a2,3(s1)
    80002358:	00179917          	auipc	s2,0x179
    8000235c:	bbc90913          	addi	s2,s2,-1092 # 8017af14 <op_value>
    80002360:	00092783          	lw	a5,0(s2)
    80002364:	40f6043b          	subw	s0,a2,a5
    80002368:	00000593          	li	a1,0
    8000236c:	0064c503          	lbu	a0,6(s1)
    80002370:	43d010ef          	jal	ra,80003fac <common_bit_set>
    80002374:	00154513          	xori	a0,a0,1
    80002378:	0ff57513          	zext.b	a0,a0
    8000237c:	40a4063b          	subw	a2,s0,a0
    80002380:	0006041b          	sext.w	s0,a2
    80002384:	4086561b          	sraiw	a2,a2,0x8
    80002388:	00164613          	xori	a2,a2,1
    8000238c:	00179997          	auipc	s3,0x179
    80002390:	b7298993          	addi	s3,s3,-1166 # 8017aefe <cpu+0x6>
    80002394:	00167613          	andi	a2,a2,1
    80002398:	00000593          	li	a1,0
    8000239c:	00098513          	mv	a0,s3
    800023a0:	455010ef          	jal	ra,80003ff4 <common_modify_bitb>
    800023a4:	0034c783          	lbu	a5,3(s1)
    800023a8:	00092603          	lw	a2,0(s2)
    800023ac:	00c7c633          	xor	a2,a5,a2
    800023b0:	0087c7b3          	xor	a5,a5,s0
    800023b4:	00f67633          	and	a2,a2,a5
    800023b8:	4076561b          	sraiw	a2,a2,0x7
    800023bc:	00167613          	andi	a2,a2,1
    800023c0:	00600593          	li	a1,6
    800023c4:	00098513          	mv	a0,s3
    800023c8:	42d010ef          	jal	ra,80003ff4 <common_modify_bitb>
    800023cc:	008481a3          	sb	s0,3(s1)
    800023d0:	0ff47413          	zext.b	s0,s0
    800023d4:	00003797          	auipc	a5,0x3
    800023d8:	b1478793          	addi	a5,a5,-1260 # 80004ee8 <cpu_zn_flag_table>
    800023dc:	008787b3          	add	a5,a5,s0
    800023e0:	0064c703          	lbu	a4,6(s1)
    800023e4:	07d77713          	andi	a4,a4,125
    800023e8:	0007c783          	lbu	a5,0(a5)
    800023ec:	00e7e7b3          	or	a5,a5,a4
    800023f0:	00f48323          	sb	a5,6(s1)
    800023f4:	02813083          	ld	ra,40(sp)
    800023f8:	02013403          	ld	s0,32(sp)
    800023fc:	01813483          	ld	s1,24(sp)
    80002400:	01013903          	ld	s2,16(sp)
    80002404:	00813983          	ld	s3,8(sp)
    80002408:	03010113          	addi	sp,sp,48
    8000240c:	00008067          	ret

0000000080002410 <cpu_op_ins>:
    80002410:	ff010113          	addi	sp,sp,-16
    80002414:	00113423          	sd	ra,8(sp)
    80002418:	00179797          	auipc	a5,0x179
    8000241c:	afc78793          	addi	a5,a5,-1284 # 8017af14 <op_value>
    80002420:	0007a583          	lw	a1,0(a5)
    80002424:	0015859b          	addiw	a1,a1,1
    80002428:	0ff5f713          	zext.b	a4,a1
    8000242c:	00e7a023          	sw	a4,0(a5)
    80002430:	0ff5f593          	zext.b	a1,a1
    80002434:	00179517          	auipc	a0,0x179
    80002438:	ad455503          	lhu	a0,-1324(a0) # 8017af08 <op_address>
    8000243c:	f84fe0ef          	jal	ra,80000bc0 <memory_writeb>
    80002440:	ef5ff0ef          	jal	ra,80002334 <cpu_op_sbc>
    80002444:	00813083          	ld	ra,8(sp)
    80002448:	01010113          	addi	sp,sp,16
    8000244c:	00008067          	ret

0000000080002450 <cpu_op_bit>:
    80002450:	fe010113          	addi	sp,sp,-32
    80002454:	00113c23          	sd	ra,24(sp)
    80002458:	00813823          	sd	s0,16(sp)
    8000245c:	00913423          	sd	s1,8(sp)
    80002460:	00179417          	auipc	s0,0x179
    80002464:	a9840413          	addi	s0,s0,-1384 # 8017aef8 <cpu>
    80002468:	00179497          	auipc	s1,0x179
    8000246c:	aac48493          	addi	s1,s1,-1364 # 8017af14 <op_value>
    80002470:	0004a603          	lw	a2,0(s1)
    80002474:	00344783          	lbu	a5,3(s0)
    80002478:	00f67633          	and	a2,a2,a5
    8000247c:	00163613          	seqz	a2,a2
    80002480:	00100593          	li	a1,1
    80002484:	00179517          	auipc	a0,0x179
    80002488:	a7a50513          	addi	a0,a0,-1414 # 8017aefe <cpu+0x6>
    8000248c:	369010ef          	jal	ra,80003ff4 <common_modify_bitb>
    80002490:	00644783          	lbu	a5,6(s0)
    80002494:	03f7f793          	andi	a5,a5,63
    80002498:	0004a703          	lw	a4,0(s1)
    8000249c:	fc077713          	andi	a4,a4,-64
    800024a0:	00e7e7b3          	or	a5,a5,a4
    800024a4:	00f40323          	sb	a5,6(s0)
    800024a8:	01813083          	ld	ra,24(sp)
    800024ac:	01013403          	ld	s0,16(sp)
    800024b0:	00813483          	ld	s1,8(sp)
    800024b4:	02010113          	addi	sp,sp,32
    800024b8:	00008067          	ret

00000000800024bc <cpu_op_asla>:
    800024bc:	ff010113          	addi	sp,sp,-16
    800024c0:	00113423          	sd	ra,8(sp)
    800024c4:	00813023          	sd	s0,0(sp)
    800024c8:	00179417          	auipc	s0,0x179
    800024cc:	a3040413          	addi	s0,s0,-1488 # 8017aef8 <cpu>
    800024d0:	00344603          	lbu	a2,3(s0)
    800024d4:	00765613          	srli	a2,a2,0x7
    800024d8:	00000593          	li	a1,0
    800024dc:	00179517          	auipc	a0,0x179
    800024e0:	a2250513          	addi	a0,a0,-1502 # 8017aefe <cpu+0x6>
    800024e4:	311010ef          	jal	ra,80003ff4 <common_modify_bitb>
    800024e8:	00344783          	lbu	a5,3(s0)
    800024ec:	0017979b          	slliw	a5,a5,0x1
    800024f0:	0ff7f793          	zext.b	a5,a5
    800024f4:	00f401a3          	sb	a5,3(s0)
    800024f8:	00644703          	lbu	a4,6(s0)
    800024fc:	07d77713          	andi	a4,a4,125
    80002500:	00003697          	auipc	a3,0x3
    80002504:	9e868693          	addi	a3,a3,-1560 # 80004ee8 <cpu_zn_flag_table>
    80002508:	00f687b3          	add	a5,a3,a5
    8000250c:	0007c783          	lbu	a5,0(a5)
    80002510:	00f767b3          	or	a5,a4,a5
    80002514:	00f40323          	sb	a5,6(s0)
    80002518:	00813083          	ld	ra,8(sp)
    8000251c:	00013403          	ld	s0,0(sp)
    80002520:	01010113          	addi	sp,sp,16
    80002524:	00008067          	ret

0000000080002528 <cpu_op_asl>:
    80002528:	fe010113          	addi	sp,sp,-32
    8000252c:	00113c23          	sd	ra,24(sp)
    80002530:	00813823          	sd	s0,16(sp)
    80002534:	00913423          	sd	s1,8(sp)
    80002538:	00179417          	auipc	s0,0x179
    8000253c:	9dc40413          	addi	s0,s0,-1572 # 8017af14 <op_value>
    80002540:	00042603          	lw	a2,0(s0)
    80002544:	4076561b          	sraiw	a2,a2,0x7
    80002548:	00179497          	auipc	s1,0x179
    8000254c:	9b048493          	addi	s1,s1,-1616 # 8017aef8 <cpu>
    80002550:	00167613          	andi	a2,a2,1
    80002554:	00000593          	li	a1,0
    80002558:	00179517          	auipc	a0,0x179
    8000255c:	9a650513          	addi	a0,a0,-1626 # 8017aefe <cpu+0x6>
    80002560:	295010ef          	jal	ra,80003ff4 <common_modify_bitb>
    80002564:	00042583          	lw	a1,0(s0)
    80002568:	0015959b          	slliw	a1,a1,0x1
    8000256c:	0fe5f693          	andi	a3,a1,254
    80002570:	00d42023          	sw	a3,0(s0)
    80002574:	0064c783          	lbu	a5,6(s1)
    80002578:	07d7f793          	andi	a5,a5,125
    8000257c:	00003717          	auipc	a4,0x3
    80002580:	96c70713          	addi	a4,a4,-1684 # 80004ee8 <cpu_zn_flag_table>
    80002584:	00d70733          	add	a4,a4,a3
    80002588:	00074703          	lbu	a4,0(a4)
    8000258c:	00e7e7b3          	or	a5,a5,a4
    80002590:	00f48323          	sb	a5,6(s1)
    80002594:	00068593          	mv	a1,a3
    80002598:	00179517          	auipc	a0,0x179
    8000259c:	97055503          	lhu	a0,-1680(a0) # 8017af08 <op_address>
    800025a0:	e20fe0ef          	jal	ra,80000bc0 <memory_writeb>
    800025a4:	01813083          	ld	ra,24(sp)
    800025a8:	01013403          	ld	s0,16(sp)
    800025ac:	00813483          	ld	s1,8(sp)
    800025b0:	02010113          	addi	sp,sp,32
    800025b4:	00008067          	ret

00000000800025b8 <cpu_op_aso>:
    800025b8:	ff010113          	addi	sp,sp,-16
    800025bc:	00113423          	sd	ra,8(sp)
    800025c0:	f69ff0ef          	jal	ra,80002528 <cpu_op_asl>
    800025c4:	dd0ff0ef          	jal	ra,80001b94 <cpu_op_ora>
    800025c8:	00813083          	ld	ra,8(sp)
    800025cc:	01010113          	addi	sp,sp,16
    800025d0:	00008067          	ret

00000000800025d4 <cpu_op_lsra>:
    800025d4:	fe010113          	addi	sp,sp,-32
    800025d8:	00113c23          	sd	ra,24(sp)
    800025dc:	00813823          	sd	s0,16(sp)
    800025e0:	00913423          	sd	s1,8(sp)
    800025e4:	00179417          	auipc	s0,0x179
    800025e8:	91440413          	addi	s0,s0,-1772 # 8017aef8 <cpu>
    800025ec:	00344603          	lbu	a2,3(s0)
    800025f0:	00165493          	srli	s1,a2,0x1
    800025f4:	00167613          	andi	a2,a2,1
    800025f8:	00000593          	li	a1,0
    800025fc:	00179517          	auipc	a0,0x179
    80002600:	90250513          	addi	a0,a0,-1790 # 8017aefe <cpu+0x6>
    80002604:	1f1010ef          	jal	ra,80003ff4 <common_modify_bitb>
    80002608:	009401a3          	sb	s1,3(s0)
    8000260c:	00644783          	lbu	a5,6(s0)
    80002610:	07d7f793          	andi	a5,a5,125
    80002614:	00003717          	auipc	a4,0x3
    80002618:	8d470713          	addi	a4,a4,-1836 # 80004ee8 <cpu_zn_flag_table>
    8000261c:	00970733          	add	a4,a4,s1
    80002620:	00074703          	lbu	a4,0(a4)
    80002624:	00e7e7b3          	or	a5,a5,a4
    80002628:	00f40323          	sb	a5,6(s0)
    8000262c:	01813083          	ld	ra,24(sp)
    80002630:	01013403          	ld	s0,16(sp)
    80002634:	00813483          	ld	s1,8(sp)
    80002638:	02010113          	addi	sp,sp,32
    8000263c:	00008067          	ret

0000000080002640 <cpu_op_lsr>:
    80002640:	fe010113          	addi	sp,sp,-32
    80002644:	00113c23          	sd	ra,24(sp)
    80002648:	00813823          	sd	s0,16(sp)
    8000264c:	00913423          	sd	s1,8(sp)
    80002650:	00179417          	auipc	s0,0x179
    80002654:	8c440413          	addi	s0,s0,-1852 # 8017af14 <op_value>
    80002658:	00042603          	lw	a2,0(s0)
    8000265c:	00179497          	auipc	s1,0x179
    80002660:	89c48493          	addi	s1,s1,-1892 # 8017aef8 <cpu>
    80002664:	00167613          	andi	a2,a2,1
    80002668:	00000593          	li	a1,0
    8000266c:	00179517          	auipc	a0,0x179
    80002670:	89250513          	addi	a0,a0,-1902 # 8017aefe <cpu+0x6>
    80002674:	181010ef          	jal	ra,80003ff4 <common_modify_bitb>
    80002678:	00042583          	lw	a1,0(s0)
    8000267c:	4015d59b          	sraiw	a1,a1,0x1
    80002680:	0ff5f793          	zext.b	a5,a1
    80002684:	00f42023          	sw	a5,0(s0)
    80002688:	0ff5f593          	zext.b	a1,a1
    8000268c:	00179517          	auipc	a0,0x179
    80002690:	87c55503          	lhu	a0,-1924(a0) # 8017af08 <op_address>
    80002694:	d2cfe0ef          	jal	ra,80000bc0 <memory_writeb>
    80002698:	00042703          	lw	a4,0(s0)
    8000269c:	00003797          	auipc	a5,0x3
    800026a0:	84c78793          	addi	a5,a5,-1972 # 80004ee8 <cpu_zn_flag_table>
    800026a4:	00e787b3          	add	a5,a5,a4
    800026a8:	0064c703          	lbu	a4,6(s1)
    800026ac:	07d77713          	andi	a4,a4,125
    800026b0:	0007c783          	lbu	a5,0(a5)
    800026b4:	00e7e7b3          	or	a5,a5,a4
    800026b8:	00f48323          	sb	a5,6(s1)
    800026bc:	01813083          	ld	ra,24(sp)
    800026c0:	01013403          	ld	s0,16(sp)
    800026c4:	00813483          	ld	s1,8(sp)
    800026c8:	02010113          	addi	sp,sp,32
    800026cc:	00008067          	ret

00000000800026d0 <cpu_op_lse>:
    800026d0:	ff010113          	addi	sp,sp,-16
    800026d4:	00113423          	sd	ra,8(sp)
    800026d8:	f69ff0ef          	jal	ra,80002640 <cpu_op_lsr>
    800026dc:	c78ff0ef          	jal	ra,80001b54 <cpu_op_eor>
    800026e0:	00813083          	ld	ra,8(sp)
    800026e4:	01010113          	addi	sp,sp,16
    800026e8:	00008067          	ret

00000000800026ec <cpu_op_rola>:
    800026ec:	fe010113          	addi	sp,sp,-32
    800026f0:	00113c23          	sd	ra,24(sp)
    800026f4:	00813823          	sd	s0,16(sp)
    800026f8:	00913423          	sd	s1,8(sp)
    800026fc:	00178497          	auipc	s1,0x178
    80002700:	7fc48493          	addi	s1,s1,2044 # 8017aef8 <cpu>
    80002704:	0034c403          	lbu	s0,3(s1)
    80002708:	0014141b          	slliw	s0,s0,0x1
    8000270c:	00000593          	li	a1,0
    80002710:	0064c503          	lbu	a0,6(s1)
    80002714:	099010ef          	jal	ra,80003fac <common_bit_set>
    80002718:	00a46433          	or	s0,s0,a0
    8000271c:	0004041b          	sext.w	s0,s0
    80002720:	0ff00613          	li	a2,255
    80002724:	00862633          	slt	a2,a2,s0
    80002728:	00000593          	li	a1,0
    8000272c:	00178517          	auipc	a0,0x178
    80002730:	7d250513          	addi	a0,a0,2002 # 8017aefe <cpu+0x6>
    80002734:	0c1010ef          	jal	ra,80003ff4 <common_modify_bitb>
    80002738:	008481a3          	sb	s0,3(s1)
    8000273c:	0064c783          	lbu	a5,6(s1)
    80002740:	07d7f793          	andi	a5,a5,125
    80002744:	0ff47413          	zext.b	s0,s0
    80002748:	00002717          	auipc	a4,0x2
    8000274c:	7a070713          	addi	a4,a4,1952 # 80004ee8 <cpu_zn_flag_table>
    80002750:	00870733          	add	a4,a4,s0
    80002754:	00074703          	lbu	a4,0(a4)
    80002758:	00e7e7b3          	or	a5,a5,a4
    8000275c:	00f48323          	sb	a5,6(s1)
    80002760:	01813083          	ld	ra,24(sp)
    80002764:	01013403          	ld	s0,16(sp)
    80002768:	00813483          	ld	s1,8(sp)
    8000276c:	02010113          	addi	sp,sp,32
    80002770:	00008067          	ret

0000000080002774 <cpu_op_rol>:
    80002774:	fe010113          	addi	sp,sp,-32
    80002778:	00113c23          	sd	ra,24(sp)
    8000277c:	00813823          	sd	s0,16(sp)
    80002780:	00913423          	sd	s1,8(sp)
    80002784:	00178417          	auipc	s0,0x178
    80002788:	79040413          	addi	s0,s0,1936 # 8017af14 <op_value>
    8000278c:	00042783          	lw	a5,0(s0)
    80002790:	0017979b          	slliw	a5,a5,0x1
    80002794:	00f42023          	sw	a5,0(s0)
    80002798:	00178497          	auipc	s1,0x178
    8000279c:	76048493          	addi	s1,s1,1888 # 8017aef8 <cpu>
    800027a0:	00000593          	li	a1,0
    800027a4:	0064c503          	lbu	a0,6(s1)
    800027a8:	005010ef          	jal	ra,80003fac <common_bit_set>
    800027ac:	00042783          	lw	a5,0(s0)
    800027b0:	00a7e7b3          	or	a5,a5,a0
    800027b4:	0007879b          	sext.w	a5,a5
    800027b8:	00f42023          	sw	a5,0(s0)
    800027bc:	0ff00613          	li	a2,255
    800027c0:	00f62633          	slt	a2,a2,a5
    800027c4:	00000593          	li	a1,0
    800027c8:	00178517          	auipc	a0,0x178
    800027cc:	73650513          	addi	a0,a0,1846 # 8017aefe <cpu+0x6>
    800027d0:	025010ef          	jal	ra,80003ff4 <common_modify_bitb>
    800027d4:	00042583          	lw	a1,0(s0)
    800027d8:	0ff5f793          	zext.b	a5,a1
    800027dc:	00f42023          	sw	a5,0(s0)
    800027e0:	0ff5f593          	zext.b	a1,a1
    800027e4:	00178517          	auipc	a0,0x178
    800027e8:	72455503          	lhu	a0,1828(a0) # 8017af08 <op_address>
    800027ec:	bd4fe0ef          	jal	ra,80000bc0 <memory_writeb>
    800027f0:	0064c783          	lbu	a5,6(s1)
    800027f4:	07d7f793          	andi	a5,a5,125
    800027f8:	00042683          	lw	a3,0(s0)
    800027fc:	00002717          	auipc	a4,0x2
    80002800:	6ec70713          	addi	a4,a4,1772 # 80004ee8 <cpu_zn_flag_table>
    80002804:	00d70733          	add	a4,a4,a3
    80002808:	00074703          	lbu	a4,0(a4)
    8000280c:	00e7e7b3          	or	a5,a5,a4
    80002810:	00f48323          	sb	a5,6(s1)
    80002814:	01813083          	ld	ra,24(sp)
    80002818:	01013403          	ld	s0,16(sp)
    8000281c:	00813483          	ld	s1,8(sp)
    80002820:	02010113          	addi	sp,sp,32
    80002824:	00008067          	ret

0000000080002828 <cpu_op_rla>:
    80002828:	ff010113          	addi	sp,sp,-16
    8000282c:	00113423          	sd	ra,8(sp)
    80002830:	f45ff0ef          	jal	ra,80002774 <cpu_op_rol>
    80002834:	ae0ff0ef          	jal	ra,80001b14 <cpu_op_and>
    80002838:	00813083          	ld	ra,8(sp)
    8000283c:	01010113          	addi	sp,sp,16
    80002840:	00008067          	ret

0000000080002844 <cpu_op_rora>:
    80002844:	fe010113          	addi	sp,sp,-32
    80002848:	00113c23          	sd	ra,24(sp)
    8000284c:	00813823          	sd	s0,16(sp)
    80002850:	00913423          	sd	s1,8(sp)
    80002854:	01213023          	sd	s2,0(sp)
    80002858:	00178497          	auipc	s1,0x178
    8000285c:	6a048493          	addi	s1,s1,1696 # 8017aef8 <cpu>
    80002860:	00000593          	li	a1,0
    80002864:	0064c503          	lbu	a0,6(s1)
    80002868:	744010ef          	jal	ra,80003fac <common_bit_set>
    8000286c:	00050413          	mv	s0,a0
    80002870:	0034c603          	lbu	a2,3(s1)
    80002874:	00178917          	auipc	s2,0x178
    80002878:	68a90913          	addi	s2,s2,1674 # 8017aefe <cpu+0x6>
    8000287c:	00167613          	andi	a2,a2,1
    80002880:	00000593          	li	a1,0
    80002884:	00090513          	mv	a0,s2
    80002888:	76c010ef          	jal	ra,80003ff4 <common_modify_bitb>
    8000288c:	0034c603          	lbu	a2,3(s1)
    80002890:	0016561b          	srliw	a2,a2,0x1
    80002894:	0074179b          	slliw	a5,s0,0x7
    80002898:	00f66633          	or	a2,a2,a5
    8000289c:	0ff67613          	zext.b	a2,a2
    800028a0:	00c481a3          	sb	a2,3(s1)
    800028a4:	00163613          	seqz	a2,a2
    800028a8:	00100593          	li	a1,1
    800028ac:	00090513          	mv	a0,s2
    800028b0:	744010ef          	jal	ra,80003ff4 <common_modify_bitb>
    800028b4:	00040613          	mv	a2,s0
    800028b8:	00700593          	li	a1,7
    800028bc:	00090513          	mv	a0,s2
    800028c0:	734010ef          	jal	ra,80003ff4 <common_modify_bitb>
    800028c4:	01813083          	ld	ra,24(sp)
    800028c8:	01013403          	ld	s0,16(sp)
    800028cc:	00813483          	ld	s1,8(sp)
    800028d0:	00013903          	ld	s2,0(sp)
    800028d4:	02010113          	addi	sp,sp,32
    800028d8:	00008067          	ret

00000000800028dc <cpu_op_ror>:
    800028dc:	fe010113          	addi	sp,sp,-32
    800028e0:	00113c23          	sd	ra,24(sp)
    800028e4:	00813823          	sd	s0,16(sp)
    800028e8:	00913423          	sd	s1,8(sp)
    800028ec:	01213023          	sd	s2,0(sp)
    800028f0:	00000593          	li	a1,0
    800028f4:	00178517          	auipc	a0,0x178
    800028f8:	60a54503          	lbu	a0,1546(a0) # 8017aefe <cpu+0x6>
    800028fc:	6b0010ef          	jal	ra,80003fac <common_bit_set>
    80002900:	00050493          	mv	s1,a0
    80002904:	00178417          	auipc	s0,0x178
    80002908:	61040413          	addi	s0,s0,1552 # 8017af14 <op_value>
    8000290c:	00042603          	lw	a2,0(s0)
    80002910:	00178917          	auipc	s2,0x178
    80002914:	5ee90913          	addi	s2,s2,1518 # 8017aefe <cpu+0x6>
    80002918:	00167613          	andi	a2,a2,1
    8000291c:	00000593          	li	a1,0
    80002920:	00090513          	mv	a0,s2
    80002924:	6d0010ef          	jal	ra,80003ff4 <common_modify_bitb>
    80002928:	00042603          	lw	a2,0(s0)
    8000292c:	4016561b          	sraiw	a2,a2,0x1
    80002930:	0074979b          	slliw	a5,s1,0x7
    80002934:	00f66633          	or	a2,a2,a5
    80002938:	0ff67613          	zext.b	a2,a2
    8000293c:	00c42023          	sw	a2,0(s0)
    80002940:	00163613          	seqz	a2,a2
    80002944:	00100593          	li	a1,1
    80002948:	00090513          	mv	a0,s2
    8000294c:	6a8010ef          	jal	ra,80003ff4 <common_modify_bitb>
    80002950:	00048613          	mv	a2,s1
    80002954:	00700593          	li	a1,7
    80002958:	00090513          	mv	a0,s2
    8000295c:	698010ef          	jal	ra,80003ff4 <common_modify_bitb>
    80002960:	00044583          	lbu	a1,0(s0)
    80002964:	00178517          	auipc	a0,0x178
    80002968:	5a455503          	lhu	a0,1444(a0) # 8017af08 <op_address>
    8000296c:	a54fe0ef          	jal	ra,80000bc0 <memory_writeb>
    80002970:	01813083          	ld	ra,24(sp)
    80002974:	01013403          	ld	s0,16(sp)
    80002978:	00813483          	ld	s1,8(sp)
    8000297c:	00013903          	ld	s2,0(sp)
    80002980:	02010113          	addi	sp,sp,32
    80002984:	00008067          	ret

0000000080002988 <cpu_op_rra>:
    80002988:	ff010113          	addi	sp,sp,-16
    8000298c:	00113423          	sd	ra,8(sp)
    80002990:	f4dff0ef          	jal	ra,800028dc <cpu_op_ror>
    80002994:	8cdff0ef          	jal	ra,80002260 <cpu_op_adc>
    80002998:	00813083          	ld	ra,8(sp)
    8000299c:	01010113          	addi	sp,sp,16
    800029a0:	00008067          	ret

00000000800029a4 <cpu_op_cmp>:
    800029a4:	fe010113          	addi	sp,sp,-32
    800029a8:	00113c23          	sd	ra,24(sp)
    800029ac:	00813823          	sd	s0,16(sp)
    800029b0:	00913423          	sd	s1,8(sp)
    800029b4:	01213023          	sd	s2,0(sp)
    800029b8:	00178417          	auipc	s0,0x178
    800029bc:	54344403          	lbu	s0,1347(s0) # 8017aefb <cpu+0x3>
    800029c0:	00178797          	auipc	a5,0x178
    800029c4:	5547a783          	lw	a5,1364(a5) # 8017af14 <op_value>
    800029c8:	40f4043b          	subw	s0,s0,a5
    800029cc:	0004091b          	sext.w	s2,s0
    800029d0:	fff94613          	not	a2,s2
    800029d4:	00178497          	auipc	s1,0x178
    800029d8:	52a48493          	addi	s1,s1,1322 # 8017aefe <cpu+0x6>
    800029dc:	01f6561b          	srliw	a2,a2,0x1f
    800029e0:	00000593          	li	a1,0
    800029e4:	00048513          	mv	a0,s1
    800029e8:	60c010ef          	jal	ra,80003ff4 <common_modify_bitb>
    800029ec:	00193613          	seqz	a2,s2
    800029f0:	00100593          	li	a1,1
    800029f4:	00048513          	mv	a0,s1
    800029f8:	5fc010ef          	jal	ra,80003ff4 <common_modify_bitb>
    800029fc:	4074561b          	sraiw	a2,s0,0x7
    80002a00:	00167613          	andi	a2,a2,1
    80002a04:	00700593          	li	a1,7
    80002a08:	00048513          	mv	a0,s1
    80002a0c:	5e8010ef          	jal	ra,80003ff4 <common_modify_bitb>
    80002a10:	01813083          	ld	ra,24(sp)
    80002a14:	01013403          	ld	s0,16(sp)
    80002a18:	00813483          	ld	s1,8(sp)
    80002a1c:	00013903          	ld	s2,0(sp)
    80002a20:	02010113          	addi	sp,sp,32
    80002a24:	00008067          	ret

0000000080002a28 <cpu_op_dcm>:
    80002a28:	ff010113          	addi	sp,sp,-16
    80002a2c:	00113423          	sd	ra,8(sp)
    80002a30:	00178797          	auipc	a5,0x178
    80002a34:	4e478793          	addi	a5,a5,1252 # 8017af14 <op_value>
    80002a38:	0007a583          	lw	a1,0(a5)
    80002a3c:	fff5859b          	addiw	a1,a1,-1
    80002a40:	0ff5f713          	zext.b	a4,a1
    80002a44:	00e7a023          	sw	a4,0(a5)
    80002a48:	0ff5f593          	zext.b	a1,a1
    80002a4c:	00178517          	auipc	a0,0x178
    80002a50:	4bc55503          	lhu	a0,1212(a0) # 8017af08 <op_address>
    80002a54:	96cfe0ef          	jal	ra,80000bc0 <memory_writeb>
    80002a58:	f4dff0ef          	jal	ra,800029a4 <cpu_op_cmp>
    80002a5c:	00813083          	ld	ra,8(sp)
    80002a60:	01010113          	addi	sp,sp,16
    80002a64:	00008067          	ret

0000000080002a68 <cpu_op_cpx>:
    80002a68:	fe010113          	addi	sp,sp,-32
    80002a6c:	00113c23          	sd	ra,24(sp)
    80002a70:	00813823          	sd	s0,16(sp)
    80002a74:	00913423          	sd	s1,8(sp)
    80002a78:	01213023          	sd	s2,0(sp)
    80002a7c:	00178417          	auipc	s0,0x178
    80002a80:	48044403          	lbu	s0,1152(s0) # 8017aefc <cpu+0x4>
    80002a84:	00178797          	auipc	a5,0x178
    80002a88:	4907a783          	lw	a5,1168(a5) # 8017af14 <op_value>
    80002a8c:	40f4043b          	subw	s0,s0,a5
    80002a90:	0004091b          	sext.w	s2,s0
    80002a94:	fff94613          	not	a2,s2
    80002a98:	00178497          	auipc	s1,0x178
    80002a9c:	46648493          	addi	s1,s1,1126 # 8017aefe <cpu+0x6>
    80002aa0:	01f6561b          	srliw	a2,a2,0x1f
    80002aa4:	00000593          	li	a1,0
    80002aa8:	00048513          	mv	a0,s1
    80002aac:	548010ef          	jal	ra,80003ff4 <common_modify_bitb>
    80002ab0:	00193613          	seqz	a2,s2
    80002ab4:	00100593          	li	a1,1
    80002ab8:	00048513          	mv	a0,s1
    80002abc:	538010ef          	jal	ra,80003ff4 <common_modify_bitb>
    80002ac0:	4074561b          	sraiw	a2,s0,0x7
    80002ac4:	00167613          	andi	a2,a2,1
    80002ac8:	00700593          	li	a1,7
    80002acc:	00048513          	mv	a0,s1
    80002ad0:	524010ef          	jal	ra,80003ff4 <common_modify_bitb>
    80002ad4:	01813083          	ld	ra,24(sp)
    80002ad8:	01013403          	ld	s0,16(sp)
    80002adc:	00813483          	ld	s1,8(sp)
    80002ae0:	00013903          	ld	s2,0(sp)
    80002ae4:	02010113          	addi	sp,sp,32
    80002ae8:	00008067          	ret

0000000080002aec <cpu_op_cpy>:
    80002aec:	fe010113          	addi	sp,sp,-32
    80002af0:	00113c23          	sd	ra,24(sp)
    80002af4:	00813823          	sd	s0,16(sp)
    80002af8:	00913423          	sd	s1,8(sp)
    80002afc:	01213023          	sd	s2,0(sp)
    80002b00:	00178417          	auipc	s0,0x178
    80002b04:	3fd44403          	lbu	s0,1021(s0) # 8017aefd <cpu+0x5>
    80002b08:	00178797          	auipc	a5,0x178
    80002b0c:	40c7a783          	lw	a5,1036(a5) # 8017af14 <op_value>
    80002b10:	40f4043b          	subw	s0,s0,a5
    80002b14:	0004091b          	sext.w	s2,s0
    80002b18:	fff94613          	not	a2,s2
    80002b1c:	00178497          	auipc	s1,0x178
    80002b20:	3e248493          	addi	s1,s1,994 # 8017aefe <cpu+0x6>
    80002b24:	01f6561b          	srliw	a2,a2,0x1f
    80002b28:	00000593          	li	a1,0
    80002b2c:	00048513          	mv	a0,s1
    80002b30:	4c4010ef          	jal	ra,80003ff4 <common_modify_bitb>
    80002b34:	00193613          	seqz	a2,s2
    80002b38:	00100593          	li	a1,1
    80002b3c:	00048513          	mv	a0,s1
    80002b40:	4b4010ef          	jal	ra,80003ff4 <common_modify_bitb>
    80002b44:	4074561b          	sraiw	a2,s0,0x7
    80002b48:	00167613          	andi	a2,a2,1
    80002b4c:	00700593          	li	a1,7
    80002b50:	00048513          	mv	a0,s1
    80002b54:	4a0010ef          	jal	ra,80003ff4 <common_modify_bitb>
    80002b58:	01813083          	ld	ra,24(sp)
    80002b5c:	01013403          	ld	s0,16(sp)
    80002b60:	00813483          	ld	s1,8(sp)
    80002b64:	00013903          	ld	s2,0(sp)
    80002b68:	02010113          	addi	sp,sp,32
    80002b6c:	00008067          	ret

0000000080002b70 <cpu_op_clc>:
    80002b70:	ff010113          	addi	sp,sp,-16
    80002b74:	00113423          	sd	ra,8(sp)
    80002b78:	00000593          	li	a1,0
    80002b7c:	00178517          	auipc	a0,0x178
    80002b80:	38250513          	addi	a0,a0,898 # 8017aefe <cpu+0x6>
    80002b84:	454010ef          	jal	ra,80003fd8 <common_unset_bitb>
    80002b88:	00813083          	ld	ra,8(sp)
    80002b8c:	01010113          	addi	sp,sp,16
    80002b90:	00008067          	ret

0000000080002b94 <cpu_op_cld>:
    80002b94:	ff010113          	addi	sp,sp,-16
    80002b98:	00113423          	sd	ra,8(sp)
    80002b9c:	00300593          	li	a1,3
    80002ba0:	00178517          	auipc	a0,0x178
    80002ba4:	35e50513          	addi	a0,a0,862 # 8017aefe <cpu+0x6>
    80002ba8:	430010ef          	jal	ra,80003fd8 <common_unset_bitb>
    80002bac:	00813083          	ld	ra,8(sp)
    80002bb0:	01010113          	addi	sp,sp,16
    80002bb4:	00008067          	ret

0000000080002bb8 <cpu_op_cli>:
    80002bb8:	ff010113          	addi	sp,sp,-16
    80002bbc:	00113423          	sd	ra,8(sp)
    80002bc0:	00200593          	li	a1,2
    80002bc4:	00178517          	auipc	a0,0x178
    80002bc8:	33a50513          	addi	a0,a0,826 # 8017aefe <cpu+0x6>
    80002bcc:	40c010ef          	jal	ra,80003fd8 <common_unset_bitb>
    80002bd0:	00813083          	ld	ra,8(sp)
    80002bd4:	01010113          	addi	sp,sp,16
    80002bd8:	00008067          	ret

0000000080002bdc <cpu_op_clv>:
    80002bdc:	ff010113          	addi	sp,sp,-16
    80002be0:	00113423          	sd	ra,8(sp)
    80002be4:	00600593          	li	a1,6
    80002be8:	00178517          	auipc	a0,0x178
    80002bec:	31650513          	addi	a0,a0,790 # 8017aefe <cpu+0x6>
    80002bf0:	3e8010ef          	jal	ra,80003fd8 <common_unset_bitb>
    80002bf4:	00813083          	ld	ra,8(sp)
    80002bf8:	01010113          	addi	sp,sp,16
    80002bfc:	00008067          	ret

0000000080002c00 <cpu_op_sec>:
    80002c00:	ff010113          	addi	sp,sp,-16
    80002c04:	00113423          	sd	ra,8(sp)
    80002c08:	00000593          	li	a1,0
    80002c0c:	00178517          	auipc	a0,0x178
    80002c10:	2f250513          	addi	a0,a0,754 # 8017aefe <cpu+0x6>
    80002c14:	3ac010ef          	jal	ra,80003fc0 <common_set_bitb>
    80002c18:	00813083          	ld	ra,8(sp)
    80002c1c:	01010113          	addi	sp,sp,16
    80002c20:	00008067          	ret

0000000080002c24 <cpu_op_sed>:
    80002c24:	ff010113          	addi	sp,sp,-16
    80002c28:	00113423          	sd	ra,8(sp)
    80002c2c:	00300593          	li	a1,3
    80002c30:	00178517          	auipc	a0,0x178
    80002c34:	2ce50513          	addi	a0,a0,718 # 8017aefe <cpu+0x6>
    80002c38:	388010ef          	jal	ra,80003fc0 <common_set_bitb>
    80002c3c:	00813083          	ld	ra,8(sp)
    80002c40:	01010113          	addi	sp,sp,16
    80002c44:	00008067          	ret

0000000080002c48 <cpu_op_sei>:
    80002c48:	ff010113          	addi	sp,sp,-16
    80002c4c:	00113423          	sd	ra,8(sp)
    80002c50:	00200593          	li	a1,2
    80002c54:	00178517          	auipc	a0,0x178
    80002c58:	2aa50513          	addi	a0,a0,682 # 8017aefe <cpu+0x6>
    80002c5c:	364010ef          	jal	ra,80003fc0 <common_set_bitb>
    80002c60:	00813083          	ld	ra,8(sp)
    80002c64:	01010113          	addi	sp,sp,16
    80002c68:	00008067          	ret

0000000080002c6c <cpu_ram_read>:
    80002c6c:	7ff57513          	andi	a0,a0,2047
    80002c70:	0016f797          	auipc	a5,0x16f
    80002c74:	e4878793          	addi	a5,a5,-440 # 80171ab8 <CPU_RAM>
    80002c78:	00a787b3          	add	a5,a5,a0
    80002c7c:	0007c503          	lbu	a0,0(a5)
    80002c80:	00008067          	ret

0000000080002c84 <cpu_ram_write>:
    80002c84:	7ff57513          	andi	a0,a0,2047
    80002c88:	0016f797          	auipc	a5,0x16f
    80002c8c:	e3078793          	addi	a5,a5,-464 # 80171ab8 <CPU_RAM>
    80002c90:	00a787b3          	add	a5,a5,a0
    80002c94:	00b78023          	sb	a1,0(a5)
    80002c98:	00008067          	ret

0000000080002c9c <cpu_nmi_interrupt_address>:
    80002c9c:	ff010113          	addi	sp,sp,-16
    80002ca0:	00113423          	sd	ra,8(sp)
    80002ca4:	00010537          	lui	a0,0x10
    80002ca8:	ffa50513          	addi	a0,a0,-6 # fffa <_entry_offset+0xfffa>
    80002cac:	fe5fd0ef          	jal	ra,80000c90 <memory_readw>
    80002cb0:	00813083          	ld	ra,8(sp)
    80002cb4:	01010113          	addi	sp,sp,16
    80002cb8:	00008067          	ret

0000000080002cbc <cpu_reset_interrupt_address>:
    80002cbc:	ff010113          	addi	sp,sp,-16
    80002cc0:	00113423          	sd	ra,8(sp)
    80002cc4:	00010537          	lui	a0,0x10
    80002cc8:	ffc50513          	addi	a0,a0,-4 # fffc <_entry_offset+0xfffc>
    80002ccc:	fc5fd0ef          	jal	ra,80000c90 <memory_readw>
    80002cd0:	00813083          	ld	ra,8(sp)
    80002cd4:	01010113          	addi	sp,sp,16
    80002cd8:	00008067          	ret

0000000080002cdc <cpu_stack_pushb>:
    80002cdc:	ff010113          	addi	sp,sp,-16
    80002ce0:	00113423          	sd	ra,8(sp)
    80002ce4:	00050593          	mv	a1,a0
    80002ce8:	00178717          	auipc	a4,0x178
    80002cec:	21070713          	addi	a4,a4,528 # 8017aef8 <cpu>
    80002cf0:	00274503          	lbu	a0,2(a4)
    80002cf4:	fff5069b          	addiw	a3,a0,-1
    80002cf8:	00d70123          	sb	a3,2(a4)
    80002cfc:	10050513          	addi	a0,a0,256
    80002d00:	ec1fd0ef          	jal	ra,80000bc0 <memory_writeb>
    80002d04:	00813083          	ld	ra,8(sp)
    80002d08:	01010113          	addi	sp,sp,16
    80002d0c:	00008067          	ret

0000000080002d10 <cpu_op_php>:
    80002d10:	ff010113          	addi	sp,sp,-16
    80002d14:	00113423          	sd	ra,8(sp)
    80002d18:	00178517          	auipc	a0,0x178
    80002d1c:	1e654503          	lbu	a0,486(a0) # 8017aefe <cpu+0x6>
    80002d20:	03056513          	ori	a0,a0,48
    80002d24:	fb9ff0ef          	jal	ra,80002cdc <cpu_stack_pushb>
    80002d28:	00813083          	ld	ra,8(sp)
    80002d2c:	01010113          	addi	sp,sp,16
    80002d30:	00008067          	ret

0000000080002d34 <cpu_op_pha>:
    80002d34:	ff010113          	addi	sp,sp,-16
    80002d38:	00113423          	sd	ra,8(sp)
    80002d3c:	00178517          	auipc	a0,0x178
    80002d40:	1bf54503          	lbu	a0,447(a0) # 8017aefb <cpu+0x3>
    80002d44:	f99ff0ef          	jal	ra,80002cdc <cpu_stack_pushb>
    80002d48:	00813083          	ld	ra,8(sp)
    80002d4c:	01010113          	addi	sp,sp,16
    80002d50:	00008067          	ret

0000000080002d54 <cpu_stack_pushw>:
    80002d54:	ff010113          	addi	sp,sp,-16
    80002d58:	00113423          	sd	ra,8(sp)
    80002d5c:	00813023          	sd	s0,0(sp)
    80002d60:	00050593          	mv	a1,a0
    80002d64:	00178417          	auipc	s0,0x178
    80002d68:	19440413          	addi	s0,s0,404 # 8017aef8 <cpu>
    80002d6c:	00244783          	lbu	a5,2(s0)
    80002d70:	0ff7879b          	addiw	a5,a5,255
    80002d74:	03079513          	slli	a0,a5,0x30
    80002d78:	03055513          	srli	a0,a0,0x30
    80002d7c:	f65fd0ef          	jal	ra,80000ce0 <memory_writew>
    80002d80:	00244783          	lbu	a5,2(s0)
    80002d84:	ffe7879b          	addiw	a5,a5,-2
    80002d88:	00f40123          	sb	a5,2(s0)
    80002d8c:	00813083          	ld	ra,8(sp)
    80002d90:	00013403          	ld	s0,0(sp)
    80002d94:	01010113          	addi	sp,sp,16
    80002d98:	00008067          	ret

0000000080002d9c <cpu_op_jsr>:
    80002d9c:	ff010113          	addi	sp,sp,-16
    80002da0:	00113423          	sd	ra,8(sp)
    80002da4:	00813023          	sd	s0,0(sp)
    80002da8:	00178417          	auipc	s0,0x178
    80002dac:	15040413          	addi	s0,s0,336 # 8017aef8 <cpu>
    80002db0:	00045503          	lhu	a0,0(s0)
    80002db4:	fff5051b          	addiw	a0,a0,-1
    80002db8:	03051513          	slli	a0,a0,0x30
    80002dbc:	03055513          	srli	a0,a0,0x30
    80002dc0:	f95ff0ef          	jal	ra,80002d54 <cpu_stack_pushw>
    80002dc4:	00178797          	auipc	a5,0x178
    80002dc8:	1447a783          	lw	a5,324(a5) # 8017af08 <op_address>
    80002dcc:	00f41023          	sh	a5,0(s0)
    80002dd0:	00813083          	ld	ra,8(sp)
    80002dd4:	00013403          	ld	s0,0(sp)
    80002dd8:	01010113          	addi	sp,sp,16
    80002ddc:	00008067          	ret

0000000080002de0 <cpu_op_brk>:
    80002de0:	ff010113          	addi	sp,sp,-16
    80002de4:	00113423          	sd	ra,8(sp)
    80002de8:	00813023          	sd	s0,0(sp)
    80002dec:	00178417          	auipc	s0,0x178
    80002df0:	10c40413          	addi	s0,s0,268 # 8017aef8 <cpu>
    80002df4:	00045503          	lhu	a0,0(s0)
    80002df8:	fff5051b          	addiw	a0,a0,-1
    80002dfc:	03051513          	slli	a0,a0,0x30
    80002e00:	03055513          	srli	a0,a0,0x30
    80002e04:	f51ff0ef          	jal	ra,80002d54 <cpu_stack_pushw>
    80002e08:	00644503          	lbu	a0,6(s0)
    80002e0c:	ed1ff0ef          	jal	ra,80002cdc <cpu_stack_pushb>
    80002e10:	00644783          	lbu	a5,6(s0)
    80002e14:	0307e793          	ori	a5,a5,48
    80002e18:	00f40323          	sb	a5,6(s0)
    80002e1c:	e81ff0ef          	jal	ra,80002c9c <cpu_nmi_interrupt_address>
    80002e20:	00a41023          	sh	a0,0(s0)
    80002e24:	00813083          	ld	ra,8(sp)
    80002e28:	00013403          	ld	s0,0(sp)
    80002e2c:	01010113          	addi	sp,sp,16
    80002e30:	00008067          	ret

0000000080002e34 <cpu_stack_popb>:
    80002e34:	ff010113          	addi	sp,sp,-16
    80002e38:	00113423          	sd	ra,8(sp)
    80002e3c:	00178797          	auipc	a5,0x178
    80002e40:	0bc78793          	addi	a5,a5,188 # 8017aef8 <cpu>
    80002e44:	0027c503          	lbu	a0,2(a5)
    80002e48:	0015051b          	addiw	a0,a0,1
    80002e4c:	0ff57513          	zext.b	a0,a0
    80002e50:	00a78123          	sb	a0,2(a5)
    80002e54:	10050513          	addi	a0,a0,256
    80002e58:	cf1fd0ef          	jal	ra,80000b48 <memory_readb>
    80002e5c:	00813083          	ld	ra,8(sp)
    80002e60:	01010113          	addi	sp,sp,16
    80002e64:	00008067          	ret

0000000080002e68 <cpu_op_pla>:
    80002e68:	ff010113          	addi	sp,sp,-16
    80002e6c:	00113423          	sd	ra,8(sp)
    80002e70:	fc5ff0ef          	jal	ra,80002e34 <cpu_stack_popb>
    80002e74:	00178717          	auipc	a4,0x178
    80002e78:	08470713          	addi	a4,a4,132 # 8017aef8 <cpu>
    80002e7c:	00a701a3          	sb	a0,3(a4)
    80002e80:	00674783          	lbu	a5,6(a4)
    80002e84:	07d7f793          	andi	a5,a5,125
    80002e88:	00002697          	auipc	a3,0x2
    80002e8c:	06068693          	addi	a3,a3,96 # 80004ee8 <cpu_zn_flag_table>
    80002e90:	00a686b3          	add	a3,a3,a0
    80002e94:	0006c683          	lbu	a3,0(a3)
    80002e98:	00d7e7b3          	or	a5,a5,a3
    80002e9c:	00f70323          	sb	a5,6(a4)
    80002ea0:	00813083          	ld	ra,8(sp)
    80002ea4:	01010113          	addi	sp,sp,16
    80002ea8:	00008067          	ret

0000000080002eac <cpu_op_plp>:
    80002eac:	ff010113          	addi	sp,sp,-16
    80002eb0:	00113423          	sd	ra,8(sp)
    80002eb4:	f81ff0ef          	jal	ra,80002e34 <cpu_stack_popb>
    80002eb8:	fcf57513          	andi	a0,a0,-49
    80002ebc:	02056513          	ori	a0,a0,32
    80002ec0:	00178797          	auipc	a5,0x178
    80002ec4:	02a78f23          	sb	a0,62(a5) # 8017aefe <cpu+0x6>
    80002ec8:	00813083          	ld	ra,8(sp)
    80002ecc:	01010113          	addi	sp,sp,16
    80002ed0:	00008067          	ret

0000000080002ed4 <cpu_stack_popw>:
    80002ed4:	ff010113          	addi	sp,sp,-16
    80002ed8:	00113423          	sd	ra,8(sp)
    80002edc:	00178797          	auipc	a5,0x178
    80002ee0:	01c78793          	addi	a5,a5,28 # 8017aef8 <cpu>
    80002ee4:	0027c503          	lbu	a0,2(a5)
    80002ee8:	0025051b          	addiw	a0,a0,2
    80002eec:	0ff57513          	zext.b	a0,a0
    80002ef0:	00a78123          	sb	a0,2(a5)
    80002ef4:	0ff50513          	addi	a0,a0,255
    80002ef8:	d99fd0ef          	jal	ra,80000c90 <memory_readw>
    80002efc:	00813083          	ld	ra,8(sp)
    80002f00:	01010113          	addi	sp,sp,16
    80002f04:	00008067          	ret

0000000080002f08 <cpu_op_rts>:
    80002f08:	ff010113          	addi	sp,sp,-16
    80002f0c:	00113423          	sd	ra,8(sp)
    80002f10:	fc5ff0ef          	jal	ra,80002ed4 <cpu_stack_popw>
    80002f14:	0015051b          	addiw	a0,a0,1
    80002f18:	00178797          	auipc	a5,0x178
    80002f1c:	fea79023          	sh	a0,-32(a5) # 8017aef8 <cpu>
    80002f20:	00813083          	ld	ra,8(sp)
    80002f24:	01010113          	addi	sp,sp,16
    80002f28:	00008067          	ret

0000000080002f2c <cpu_op_rti>:
    80002f2c:	ff010113          	addi	sp,sp,-16
    80002f30:	00113423          	sd	ra,8(sp)
    80002f34:	00813023          	sd	s0,0(sp)
    80002f38:	efdff0ef          	jal	ra,80002e34 <cpu_stack_popb>
    80002f3c:	00178417          	auipc	s0,0x178
    80002f40:	fbc40413          	addi	s0,s0,-68 # 8017aef8 <cpu>
    80002f44:	02056513          	ori	a0,a0,32
    80002f48:	00a40323          	sb	a0,6(s0)
    80002f4c:	f89ff0ef          	jal	ra,80002ed4 <cpu_stack_popw>
    80002f50:	00a41023          	sh	a0,0(s0)
    80002f54:	00813083          	ld	ra,8(sp)
    80002f58:	00013403          	ld	s0,0(sp)
    80002f5c:	01010113          	addi	sp,sp,16
    80002f60:	00008067          	ret

0000000080002f64 <cpu_init>:
    80002f64:	fc010113          	addi	sp,sp,-64
    80002f68:	02813c23          	sd	s0,56(sp)
    80002f6c:	02913823          	sd	s1,48(sp)
    80002f70:	03213423          	sd	s2,40(sp)
    80002f74:	03313023          	sd	s3,32(sp)
    80002f78:	01413c23          	sd	s4,24(sp)
    80002f7c:	01513823          	sd	s5,16(sp)
    80002f80:	01613423          	sd	s6,8(sp)
    80002f84:	01713023          	sd	s7,0(sp)
    80002f88:	00177797          	auipc	a5,0x177
    80002f8c:	33078793          	addi	a5,a5,816 # 8017a2b8 <cpu_op_cycles>
    80002f90:	00700a13          	li	s4,7
    80002f94:	0147a023          	sw	s4,0(a5)
    80002f98:	00177697          	auipc	a3,0x177
    80002f9c:	72068693          	addi	a3,a3,1824 # 8017a6b8 <cpu_op_handler>
    80002fa0:	00000717          	auipc	a4,0x0
    80002fa4:	e4070713          	addi	a4,a4,-448 # 80002de0 <cpu_op_brk>
    80002fa8:	00e6b023          	sd	a4,0(a3)
    80002fac:	00177717          	auipc	a4,0x177
    80002fb0:	b0c70713          	addi	a4,a4,-1268 # 80179ab8 <cpu_op_address_mode>
    80002fb4:	ffffd517          	auipc	a0,0xffffd
    80002fb8:	14c50513          	addi	a0,a0,332 # 80000100 <cpu_address_implied>
    80002fbc:	00a73023          	sd	a0,0(a4)
    80002fc0:	00600813          	li	a6,6
    80002fc4:	0107a223          	sw	a6,4(a5)
    80002fc8:	ffffff97          	auipc	t6,0xfffff
    80002fcc:	bccf8f93          	addi	t6,t6,-1076 # 80001b94 <cpu_op_ora>
    80002fd0:	01f6b423          	sd	t6,8(a3)
    80002fd4:	ffffd997          	auipc	s3,0xffffd
    80002fd8:	53898993          	addi	s3,s3,1336 # 8000050c <cpu_address_indirect_x>
    80002fdc:	01373423          	sd	s3,8(a4)
    80002fe0:	00300e13          	li	t3,3
    80002fe4:	01c7aa23          	sw	t3,20(a5)
    80002fe8:	03f6b423          	sd	t6,40(a3)
    80002fec:	ffffd317          	auipc	t1,0xffffd
    80002ff0:	15830313          	addi	t1,t1,344 # 80000144 <cpu_address_zero_page>
    80002ff4:	02673423          	sd	t1,40(a4)
    80002ff8:	00500f13          	li	t5,5
    80002ffc:	01e7ac23          	sw	t5,24(a5)
    80003000:	fffff297          	auipc	t0,0xfffff
    80003004:	52828293          	addi	t0,t0,1320 # 80002528 <cpu_op_asl>
    80003008:	0256b823          	sd	t0,48(a3)
    8000300c:	02673823          	sd	t1,48(a4)
    80003010:	03c7a023          	sw	t3,32(a5)
    80003014:	00000617          	auipc	a2,0x0
    80003018:	cfc60613          	addi	a2,a2,-772 # 80002d10 <cpu_op_php>
    8000301c:	04c6b023          	sd	a2,64(a3)
    80003020:	04a73023          	sd	a0,64(a4)
    80003024:	00200593          	li	a1,2
    80003028:	02b7a223          	sw	a1,36(a5)
    8000302c:	05f6b423          	sd	t6,72(a3)
    80003030:	ffffd397          	auipc	t2,0xffffd
    80003034:	0d438393          	addi	t2,t2,212 # 80000104 <cpu_address_immediate>
    80003038:	04773423          	sd	t2,72(a4)
    8000303c:	02b7a423          	sw	a1,40(a5)
    80003040:	fffff617          	auipc	a2,0xfffff
    80003044:	47c60613          	addi	a2,a2,1148 # 800024bc <cpu_op_asla>
    80003048:	04c6b823          	sd	a2,80(a3)
    8000304c:	04a73823          	sd	a0,80(a4)
    80003050:	00400613          	li	a2,4
    80003054:	02c7aa23          	sw	a2,52(a5)
    80003058:	07f6b423          	sd	t6,104(a3)
    8000305c:	ffffd897          	auipc	a7,0xffffd
    80003060:	21488893          	addi	a7,a7,532 # 80000270 <cpu_address_absolute>
    80003064:	07173423          	sd	a7,104(a4)
    80003068:	0307ac23          	sw	a6,56(a5)
    8000306c:	0656b823          	sd	t0,112(a3)
    80003070:	07173823          	sd	a7,112(a4)
    80003074:	04b7a023          	sw	a1,64(a5)
    80003078:	fffffe97          	auipc	t4,0xfffff
    8000307c:	178e8e93          	addi	t4,t4,376 # 800021f0 <cpu_op_bpl>
    80003080:	09d6b023          	sd	t4,128(a3)
    80003084:	ffffd917          	auipc	s2,0xffffd
    80003088:	36490913          	addi	s2,s2,868 # 800003e8 <cpu_address_relative>
    8000308c:	09273023          	sd	s2,128(a4)
    80003090:	05e7a223          	sw	t5,68(a5)
    80003094:	09f6b423          	sd	t6,136(a3)
    80003098:	ffffd497          	auipc	s1,0xffffd
    8000309c:	51048493          	addi	s1,s1,1296 # 800005a8 <cpu_address_indirect_y>
    800030a0:	08973423          	sd	s1,136(a4)
    800030a4:	04c7aa23          	sw	a2,84(a5)
    800030a8:	0bf6b423          	sd	t6,168(a3)
    800030ac:	ffffde97          	auipc	t4,0xffffd
    800030b0:	0f4e8e93          	addi	t4,t4,244 # 800001a0 <cpu_address_zero_page_x>
    800030b4:	0bd73423          	sd	t4,168(a4)
    800030b8:	0507ac23          	sw	a6,88(a5)
    800030bc:	0a56b823          	sd	t0,176(a3)
    800030c0:	0bd73823          	sd	t4,176(a4)
    800030c4:	06b7a023          	sw	a1,96(a5)
    800030c8:	00000417          	auipc	s0,0x0
    800030cc:	aa840413          	addi	s0,s0,-1368 # 80002b70 <cpu_op_clc>
    800030d0:	0c86b023          	sd	s0,192(a3)
    800030d4:	0ca73023          	sd	a0,192(a4)
    800030d8:	06c7a223          	sw	a2,100(a5)
    800030dc:	0df6b423          	sd	t6,200(a3)
    800030e0:	ffffd417          	auipc	s0,0xffffd
    800030e4:	27040413          	addi	s0,s0,624 # 80000350 <cpu_address_absolute_y>
    800030e8:	0c873423          	sd	s0,200(a4)
    800030ec:	06c7aa23          	sw	a2,116(a5)
    800030f0:	0ff6b423          	sd	t6,232(a3)
    800030f4:	ffffdf97          	auipc	t6,0xffffd
    800030f8:	1c8f8f93          	addi	t6,t6,456 # 800002bc <cpu_address_absolute_x>
    800030fc:	0ff73423          	sd	t6,232(a4)
    80003100:	0747ac23          	sw	s4,120(a5)
    80003104:	0e56b823          	sd	t0,240(a3)
    80003108:	0ff73823          	sd	t6,240(a4)
    8000310c:	0907a023          	sw	a6,128(a5)
    80003110:	00000297          	auipc	t0,0x0
    80003114:	c8c28293          	addi	t0,t0,-884 # 80002d9c <cpu_op_jsr>
    80003118:	1056b023          	sd	t0,256(a3)
    8000311c:	11173023          	sd	a7,256(a4)
    80003120:	0907a223          	sw	a6,132(a5)
    80003124:	fffff297          	auipc	t0,0xfffff
    80003128:	9f028293          	addi	t0,t0,-1552 # 80001b14 <cpu_op_and>
    8000312c:	1056b423          	sd	t0,264(a3)
    80003130:	11373423          	sd	s3,264(a4)
    80003134:	09c7a823          	sw	t3,144(a5)
    80003138:	fffffb17          	auipc	s6,0xfffff
    8000313c:	318b0b13          	addi	s6,s6,792 # 80002450 <cpu_op_bit>
    80003140:	1366b023          	sd	s6,288(a3)
    80003144:	12673023          	sd	t1,288(a4)
    80003148:	09c7aa23          	sw	t3,148(a5)
    8000314c:	1256b423          	sd	t0,296(a3)
    80003150:	12673423          	sd	t1,296(a4)
    80003154:	09e7ac23          	sw	t5,152(a5)
    80003158:	fffffa97          	auipc	s5,0xfffff
    8000315c:	61ca8a93          	addi	s5,s5,1564 # 80002774 <cpu_op_rol>
    80003160:	1356b823          	sd	s5,304(a3)
    80003164:	12673823          	sd	t1,304(a4)
    80003168:	0ac7a023          	sw	a2,160(a5)
    8000316c:	00000b97          	auipc	s7,0x0
    80003170:	d40b8b93          	addi	s7,s7,-704 # 80002eac <cpu_op_plp>
    80003174:	1576b023          	sd	s7,320(a3)
    80003178:	14a73023          	sd	a0,320(a4)
    8000317c:	0ab7a223          	sw	a1,164(a5)
    80003180:	1456b423          	sd	t0,328(a3)
    80003184:	14773423          	sd	t2,328(a4)
    80003188:	0ab7a423          	sw	a1,168(a5)
    8000318c:	fffffb97          	auipc	s7,0xfffff
    80003190:	560b8b93          	addi	s7,s7,1376 # 800026ec <cpu_op_rola>
    80003194:	1576b823          	sd	s7,336(a3)
    80003198:	14a73823          	sd	a0,336(a4)
    8000319c:	0ac7a823          	sw	a2,176(a5)
    800031a0:	1766b023          	sd	s6,352(a3)
    800031a4:	17173023          	sd	a7,352(a4)
    800031a8:	0ab7aa23          	sw	a1,180(a5)
    800031ac:	1656b423          	sd	t0,360(a3)
    800031b0:	17173423          	sd	a7,360(a4)
    800031b4:	0b07ac23          	sw	a6,184(a5)
    800031b8:	1756b823          	sd	s5,368(a3)
    800031bc:	17173823          	sd	a7,368(a4)
    800031c0:	0cb7a023          	sw	a1,192(a5)
    800031c4:	fffffb17          	auipc	s6,0xfffff
    800031c8:	f4cb0b13          	addi	s6,s6,-180 # 80002110 <cpu_op_bmi>
    800031cc:	1966b023          	sd	s6,384(a3)
    800031d0:	19273023          	sd	s2,384(a4)
    800031d4:	0de7a223          	sw	t5,196(a5)
    800031d8:	1856b423          	sd	t0,392(a3)
    800031dc:	18973423          	sd	s1,392(a4)
    800031e0:	0cc7aa23          	sw	a2,212(a5)
    800031e4:	1a56b423          	sd	t0,424(a3)
    800031e8:	1bd73423          	sd	t4,424(a4)
    800031ec:	0d07ac23          	sw	a6,216(a5)
    800031f0:	1b56b823          	sd	s5,432(a3)
    800031f4:	1bd73823          	sd	t4,432(a4)
    800031f8:	0eb7a023          	sw	a1,224(a5)
    800031fc:	00000b17          	auipc	s6,0x0
    80003200:	a04b0b13          	addi	s6,s6,-1532 # 80002c00 <cpu_op_sec>
    80003204:	1d66b023          	sd	s6,448(a3)
    80003208:	1ca73023          	sd	a0,448(a4)
    8000320c:	0ec7a223          	sw	a2,228(a5)
    80003210:	1c56b423          	sd	t0,456(a3)
    80003214:	1c873423          	sd	s0,456(a4)
    80003218:	0ec7aa23          	sw	a2,244(a5)
    8000321c:	1e56b423          	sd	t0,488(a3)
    80003220:	1ff73423          	sd	t6,488(a4)
    80003224:	0f47ac23          	sw	s4,248(a5)
    80003228:	1f56b823          	sd	s5,496(a3)
    8000322c:	1ff73823          	sd	t6,496(a4)
    80003230:	1107a023          	sw	a6,256(a5)
    80003234:	00000297          	auipc	t0,0x0
    80003238:	cf828293          	addi	t0,t0,-776 # 80002f2c <cpu_op_rti>
    8000323c:	2056b023          	sd	t0,512(a3)
    80003240:	20a73023          	sd	a0,512(a4)
    80003244:	1107a223          	sw	a6,260(a5)
    80003248:	fffff297          	auipc	t0,0xfffff
    8000324c:	90c28293          	addi	t0,t0,-1780 # 80001b54 <cpu_op_eor>
    80003250:	2056b423          	sd	t0,520(a3)
    80003254:	21373423          	sd	s3,520(a4)
    80003258:	11c7aa23          	sw	t3,276(a5)
    8000325c:	2256b423          	sd	t0,552(a3)
    80003260:	22673423          	sd	t1,552(a4)
    80003264:	11e7ac23          	sw	t5,280(a5)
    80003268:	fffffa97          	auipc	s5,0xfffff
    8000326c:	3d8a8a93          	addi	s5,s5,984 # 80002640 <cpu_op_lsr>
    80003270:	2356b823          	sd	s5,560(a3)
    80003274:	22673823          	sd	t1,560(a4)
    80003278:	13c7a023          	sw	t3,288(a5)
    8000327c:	00000b17          	auipc	s6,0x0
    80003280:	ab8b0b13          	addi	s6,s6,-1352 # 80002d34 <cpu_op_pha>
    80003284:	2566b023          	sd	s6,576(a3)
    80003288:	24a73023          	sd	a0,576(a4)
    8000328c:	12b7a223          	sw	a1,292(a5)
    80003290:	2456b423          	sd	t0,584(a3)
    80003294:	24773423          	sd	t2,584(a4)
    80003298:	12b7a423          	sw	a1,296(a5)
    8000329c:	fffffb17          	auipc	s6,0xfffff
    800032a0:	338b0b13          	addi	s6,s6,824 # 800025d4 <cpu_op_lsra>
    800032a4:	2566b823          	sd	s6,592(a3)
    800032a8:	24a73823          	sd	a0,592(a4)
    800032ac:	13c7a823          	sw	t3,304(a5)
    800032b0:	fffffb17          	auipc	s6,0xfffff
    800032b4:	af0b0b13          	addi	s6,s6,-1296 # 80001da0 <cpu_op_jmp>
    800032b8:	2766b023          	sd	s6,608(a3)
    800032bc:	27173023          	sd	a7,608(a4)
    800032c0:	12c7aa23          	sw	a2,308(a5)
    800032c4:	2656b423          	sd	t0,616(a3)
    800032c8:	27173423          	sd	a7,616(a4)
    800032cc:	1307ac23          	sw	a6,312(a5)
    800032d0:	2756b823          	sd	s5,624(a3)
    800032d4:	27173823          	sd	a7,624(a4)
    800032d8:	14b7a023          	sw	a1,320(a5)
    800032dc:	fffffb97          	auipc	s7,0xfffff
    800032e0:	f4cb8b93          	addi	s7,s7,-180 # 80002228 <cpu_op_bvc>
    800032e4:	2976b023          	sd	s7,640(a3)
    800032e8:	29273023          	sd	s2,640(a4)
    800032ec:	15e7a223          	sw	t5,324(a5)
    800032f0:	2856b423          	sd	t0,648(a3)
    800032f4:	28973423          	sd	s1,648(a4)
    800032f8:	14c7aa23          	sw	a2,340(a5)
    800032fc:	2a56b423          	sd	t0,680(a3)
    80003300:	2bd73423          	sd	t4,680(a4)
    80003304:	1507ac23          	sw	a6,344(a5)
    80003308:	2b56b823          	sd	s5,688(a3)
    8000330c:	2bd73823          	sd	t4,688(a4)
    80003310:	16b7a023          	sw	a1,352(a5)
    80003314:	00000b97          	auipc	s7,0x0
    80003318:	8a4b8b93          	addi	s7,s7,-1884 # 80002bb8 <cpu_op_cli>
    8000331c:	2d76b023          	sd	s7,704(a3)
    80003320:	2ca73023          	sd	a0,704(a4)
    80003324:	16c7a223          	sw	a2,356(a5)
    80003328:	2c56b423          	sd	t0,712(a3)
    8000332c:	2c873423          	sd	s0,712(a4)
    80003330:	16c7aa23          	sw	a2,372(a5)
    80003334:	2e56b423          	sd	t0,744(a3)
    80003338:	2ff73423          	sd	t6,744(a4)
    8000333c:	1747ac23          	sw	s4,376(a5)
    80003340:	2f56b823          	sd	s5,752(a3)
    80003344:	2ff73823          	sd	t6,752(a4)
    80003348:	1907a023          	sw	a6,384(a5)
    8000334c:	00000297          	auipc	t0,0x0
    80003350:	bbc28293          	addi	t0,t0,-1092 # 80002f08 <cpu_op_rts>
    80003354:	3056b023          	sd	t0,768(a3)
    80003358:	30a73023          	sd	a0,768(a4)
    8000335c:	1907a223          	sw	a6,388(a5)
    80003360:	fffff297          	auipc	t0,0xfffff
    80003364:	f0028293          	addi	t0,t0,-256 # 80002260 <cpu_op_adc>
    80003368:	3056b423          	sd	t0,776(a3)
    8000336c:	31373423          	sd	s3,776(a4)
    80003370:	19c7aa23          	sw	t3,404(a5)
    80003374:	3256b423          	sd	t0,808(a3)
    80003378:	32673423          	sd	t1,808(a4)
    8000337c:	19e7ac23          	sw	t5,408(a5)
    80003380:	fffffa97          	auipc	s5,0xfffff
    80003384:	55ca8a93          	addi	s5,s5,1372 # 800028dc <cpu_op_ror>
    80003388:	3356b823          	sd	s5,816(a3)
    8000338c:	32673823          	sd	t1,816(a4)
    80003390:	1ac7a023          	sw	a2,416(a5)
    80003394:	00000b97          	auipc	s7,0x0
    80003398:	ad4b8b93          	addi	s7,s7,-1324 # 80002e68 <cpu_op_pla>
    8000339c:	3576b023          	sd	s7,832(a3)
    800033a0:	34a73023          	sd	a0,832(a4)
    800033a4:	1ab7a223          	sw	a1,420(a5)
    800033a8:	3456b423          	sd	t0,840(a3)
    800033ac:	34773423          	sd	t2,840(a4)
    800033b0:	1ab7a423          	sw	a1,424(a5)
    800033b4:	fffffb97          	auipc	s7,0xfffff
    800033b8:	490b8b93          	addi	s7,s7,1168 # 80002844 <cpu_op_rora>
    800033bc:	3576b823          	sd	s7,848(a3)
    800033c0:	34a73823          	sd	a0,848(a4)
    800033c4:	1be7a823          	sw	t5,432(a5)
    800033c8:	3766b023          	sd	s6,864(a3)
    800033cc:	ffffdb17          	auipc	s6,0xffffd
    800033d0:	0b4b0b13          	addi	s6,s6,180 # 80000480 <cpu_address_indirect>
    800033d4:	37673023          	sd	s6,864(a4)
    800033d8:	1ac7aa23          	sw	a2,436(a5)
    800033dc:	3656b423          	sd	t0,872(a3)
    800033e0:	37173423          	sd	a7,872(a4)
    800033e4:	1b07ac23          	sw	a6,440(a5)
    800033e8:	3756b823          	sd	s5,880(a3)
    800033ec:	37173823          	sd	a7,880(a4)
    800033f0:	1cb7a023          	sw	a1,448(a5)
    800033f4:	fffffb17          	auipc	s6,0xfffff
    800033f8:	d54b0b13          	addi	s6,s6,-684 # 80002148 <cpu_op_bvs>
    800033fc:	3966b023          	sd	s6,896(a3)
    80003400:	39273023          	sd	s2,896(a4)
    80003404:	1de7a223          	sw	t5,452(a5)
    80003408:	3856b423          	sd	t0,904(a3)
    8000340c:	38973423          	sd	s1,904(a4)
    80003410:	1cc7aa23          	sw	a2,468(a5)
    80003414:	3a56b423          	sd	t0,936(a3)
    80003418:	3bd73423          	sd	t4,936(a4)
    8000341c:	1d07ac23          	sw	a6,472(a5)
    80003420:	3b56b823          	sd	s5,944(a3)
    80003424:	3bd73823          	sd	t4,944(a4)
    80003428:	1eb7a023          	sw	a1,480(a5)
    8000342c:	00000b17          	auipc	s6,0x0
    80003430:	81cb0b13          	addi	s6,s6,-2020 # 80002c48 <cpu_op_sei>
    80003434:	3d66b023          	sd	s6,960(a3)
    80003438:	3ca73023          	sd	a0,960(a4)
    8000343c:	1ec7a223          	sw	a2,484(a5)
    80003440:	3c56b423          	sd	t0,968(a3)
    80003444:	3c873423          	sd	s0,968(a4)
    80003448:	1ec7aa23          	sw	a2,500(a5)
    8000344c:	3e56b423          	sd	t0,1000(a3)
    80003450:	3ff73423          	sd	t6,1000(a4)
    80003454:	1f47ac23          	sw	s4,504(a5)
    80003458:	3f56b823          	sd	s5,1008(a3)
    8000345c:	3ff73823          	sd	t6,1008(a4)
    80003460:	2107a223          	sw	a6,516(a5)
    80003464:	fffff297          	auipc	t0,0xfffff
    80003468:	a8428293          	addi	t0,t0,-1404 # 80001ee8 <cpu_op_sta>
    8000346c:	4056b423          	sd	t0,1032(a3)
    80003470:	41373423          	sd	s3,1032(a4)
    80003474:	21c7a823          	sw	t3,528(a5)
    80003478:	fffffa97          	auipc	s5,0xfffff
    8000347c:	ac0a8a93          	addi	s5,s5,-1344 # 80001f38 <cpu_op_sty>
    80003480:	4356b023          	sd	s5,1056(a3)
    80003484:	42673023          	sd	t1,1056(a4)
    80003488:	21c7aa23          	sw	t3,532(a5)
    8000348c:	4256b423          	sd	t0,1064(a3)
    80003490:	42673423          	sd	t1,1064(a4)
    80003494:	21c7ac23          	sw	t3,536(a5)
    80003498:	fffffa17          	auipc	s4,0xfffff
    8000349c:	a78a0a13          	addi	s4,s4,-1416 # 80001f10 <cpu_op_stx>
    800034a0:	4346b823          	sd	s4,1072(a3)
    800034a4:	42673823          	sd	t1,1072(a4)
    800034a8:	22b7a023          	sw	a1,544(a5)
    800034ac:	fffffb17          	auipc	s6,0xfffff
    800034b0:	9bcb0b13          	addi	s6,s6,-1604 # 80001e68 <cpu_op_dey>
    800034b4:	4566b023          	sd	s6,1088(a3)
    800034b8:	44a73023          	sd	a0,1088(a4)
    800034bc:	22b7a423          	sw	a1,552(a5)
    800034c0:	ffffeb17          	auipc	s6,0xffffe
    800034c4:	7fcb0b13          	addi	s6,s6,2044 # 80001cbc <cpu_op_txa>
    800034c8:	4566b823          	sd	s6,1104(a3)
    800034cc:	44a73823          	sd	a0,1104(a4)
    800034d0:	22c7a823          	sw	a2,560(a5)
    800034d4:	4756b023          	sd	s5,1120(a3)
    800034d8:	47173023          	sd	a7,1120(a4)
    800034dc:	22c7aa23          	sw	a2,564(a5)
    800034e0:	4656b423          	sd	t0,1128(a3)
    800034e4:	47173423          	sd	a7,1128(a4)
    800034e8:	22c7ac23          	sw	a2,568(a5)
    800034ec:	4746b823          	sd	s4,1136(a3)
    800034f0:	47173823          	sd	a7,1136(a4)
    800034f4:	24b7a023          	sw	a1,576(a5)
    800034f8:	fffffb17          	auipc	s6,0xfffff
    800034fc:	cc0b0b13          	addi	s6,s6,-832 # 800021b8 <cpu_op_bcc>
    80003500:	4966b023          	sd	s6,1152(a3)
    80003504:	49273023          	sd	s2,1152(a4)
    80003508:	2507a223          	sw	a6,580(a5)
    8000350c:	4856b423          	sd	t0,1160(a3)
    80003510:	48973423          	sd	s1,1160(a4)
    80003514:	24c7a823          	sw	a2,592(a5)
    80003518:	4b56b023          	sd	s5,1184(a3)
    8000351c:	4bd73023          	sd	t4,1184(a4)
    80003520:	24c7aa23          	sw	a2,596(a5)
    80003524:	4a56b423          	sd	t0,1192(a3)
    80003528:	4bd73423          	sd	t4,1192(a4)
    8000352c:	24c7ac23          	sw	a2,600(a5)
    80003530:	4b46b823          	sd	s4,1200(a3)
    80003534:	ffffda17          	auipc	s4,0xffffd
    80003538:	cd4a0a13          	addi	s4,s4,-812 # 80000208 <cpu_address_zero_page_y>
    8000353c:	4b473823          	sd	s4,1200(a4)
    80003540:	26b7a023          	sw	a1,608(a5)
    80003544:	ffffea97          	auipc	s5,0xffffe
    80003548:	7e0a8a93          	addi	s5,s5,2016 # 80001d24 <cpu_op_tya>
    8000354c:	4d56b023          	sd	s5,1216(a3)
    80003550:	4ca73023          	sd	a0,1216(a4)
    80003554:	27e7a223          	sw	t5,612(a5)
    80003558:	4c56b423          	sd	t0,1224(a3)
    8000355c:	4c873423          	sd	s0,1224(a4)
    80003560:	26b7a423          	sw	a1,616(a5)
    80003564:	fffffa97          	auipc	s5,0xfffff
    80003568:	828a8a93          	addi	s5,s5,-2008 # 80001d8c <cpu_op_txs>
    8000356c:	4d56b823          	sd	s5,1232(a3)
    80003570:	4ca73823          	sd	a0,1232(a4)
    80003574:	27e7aa23          	sw	t5,628(a5)
    80003578:	4e56b423          	sd	t0,1256(a3)
    8000357c:	4ff73423          	sd	t6,1256(a4)
    80003580:	28b7a023          	sw	a1,640(a5)
    80003584:	ffffe297          	auipc	t0,0xffffe
    80003588:	6c828293          	addi	t0,t0,1736 # 80001c4c <cpu_op_ldy>
    8000358c:	5056b023          	sd	t0,1280(a3)
    80003590:	50773023          	sd	t2,1280(a4)
    80003594:	2907a223          	sw	a6,644(a5)
    80003598:	ffffe817          	auipc	a6,0xffffe
    8000359c:	63c80813          	addi	a6,a6,1596 # 80001bd4 <cpu_op_lda>
    800035a0:	5106b423          	sd	a6,1288(a3)
    800035a4:	51373423          	sd	s3,1288(a4)
    800035a8:	28b7a423          	sw	a1,648(a5)
    800035ac:	ffffe997          	auipc	s3,0xffffe
    800035b0:	66498993          	addi	s3,s3,1636 # 80001c10 <cpu_op_ldx>
    800035b4:	5136b823          	sd	s3,1296(a3)
    800035b8:	50773823          	sd	t2,1296(a4)
    800035bc:	29c7a823          	sw	t3,656(a5)
    800035c0:	5256b023          	sd	t0,1312(a3)
    800035c4:	52673023          	sd	t1,1312(a4)
    800035c8:	29c7aa23          	sw	t3,660(a5)
    800035cc:	5306b423          	sd	a6,1320(a3)
    800035d0:	52673423          	sd	t1,1320(a4)
    800035d4:	29c7ac23          	sw	t3,664(a5)
    800035d8:	5336b823          	sd	s3,1328(a3)
    800035dc:	52673823          	sd	t1,1328(a4)
    800035e0:	2ab7a023          	sw	a1,672(a5)
    800035e4:	ffffe317          	auipc	t1,0xffffe
    800035e8:	70c30313          	addi	t1,t1,1804 # 80001cf0 <cpu_op_tay>
    800035ec:	5466b023          	sd	t1,1344(a3)
    800035f0:	54a73023          	sd	a0,1344(a4)
    800035f4:	2ab7a223          	sw	a1,676(a5)
    800035f8:	5506b423          	sd	a6,1352(a3)
    800035fc:	54773423          	sd	t2,1352(a4)
    80003600:	2ab7a423          	sw	a1,680(a5)
    80003604:	ffffe317          	auipc	t1,0xffffe
    80003608:	68430313          	addi	t1,t1,1668 # 80001c88 <cpu_op_tax>
    8000360c:	5466b823          	sd	t1,1360(a3)
    80003610:	54a73823          	sd	a0,1360(a4)
    80003614:	2ac7a823          	sw	a2,688(a5)
    80003618:	5656b023          	sd	t0,1376(a3)
    8000361c:	57173023          	sd	a7,1376(a4)
    80003620:	2ac7aa23          	sw	a2,692(a5)
    80003624:	5706b423          	sd	a6,1384(a3)
    80003628:	57173423          	sd	a7,1384(a4)
    8000362c:	2ac7ac23          	sw	a2,696(a5)
    80003630:	5736b823          	sd	s3,1392(a3)
    80003634:	57173823          	sd	a7,1392(a4)
    80003638:	2cb7a023          	sw	a1,704(a5)
    8000363c:	fffff897          	auipc	a7,0xfffff
    80003640:	a6488893          	addi	a7,a7,-1436 # 800020a0 <cpu_op_bcs>
    80003644:	5916b023          	sd	a7,1408(a3)
    80003648:	59273023          	sd	s2,1408(a4)
    8000364c:	2de7a223          	sw	t5,708(a5)
    80003650:	5906b423          	sd	a6,1416(a3)
    80003654:	58973423          	sd	s1,1416(a4)
    80003658:	2cc7a823          	sw	a2,720(a5)
    8000365c:	5a56b023          	sd	t0,1440(a3)
    80003660:	5bd73023          	sd	t4,1440(a4)
    80003664:	2cc7aa23          	sw	a2,724(a5)
    80003668:	5b06b423          	sd	a6,1448(a3)
    8000366c:	5bd73423          	sd	t4,1448(a4)
    80003670:	2cc7ac23          	sw	a2,728(a5)
    80003674:	5b36b823          	sd	s3,1456(a3)
    80003678:	5b473823          	sd	s4,1456(a4)
    8000367c:	2eb7a023          	sw	a1,736(a5)
    80003680:	fffff897          	auipc	a7,0xfffff
    80003684:	55c88893          	addi	a7,a7,1372 # 80002bdc <cpu_op_clv>
    80003688:	5d16b023          	sd	a7,1472(a3)
    8000368c:	5ca73023          	sd	a0,1472(a4)
    80003690:	2ec7a223          	sw	a2,740(a5)
    80003694:	5d06b423          	sd	a6,1480(a3)
    80003698:	5c873423          	sd	s0,1480(a4)
    8000369c:	2eb7a423          	sw	a1,744(a5)
    800036a0:	ffffe597          	auipc	a1,0xffffe
    800036a4:	6b858593          	addi	a1,a1,1720 # 80001d58 <cpu_op_tsx>
    800036a8:	5cb6b823          	sd	a1,1488(a3)
    800036ac:	5ca73823          	sd	a0,1488(a4)
    800036b0:	2ec7a823          	sw	a2,752(a5)
    800036b4:	5e56b023          	sd	t0,1504(a3)
    800036b8:	5ff73023          	sd	t6,1504(a4)
    800036bc:	00400713          	li	a4,4
    800036c0:	2ee7aa23          	sw	a4,756(a5)
    800036c4:	00068793          	mv	a5,a3
    800036c8:	5f06b423          	sd	a6,1512(a3)
    800036cc:	00176697          	auipc	a3,0x176
    800036d0:	3ec68693          	addi	a3,a3,1004 # 80179ab8 <cpu_op_address_mode>
    800036d4:	000f8813          	mv	a6,t6
    800036d8:	5ff6b423          	sd	t6,1512(a3)
    800036dc:	00177717          	auipc	a4,0x177
    800036e0:	bdc70713          	addi	a4,a4,-1060 # 8017a2b8 <cpu_op_cycles>
    800036e4:	00400593          	li	a1,4
    800036e8:	2eb72c23          	sw	a1,760(a4)
    800036ec:	5f37b823          	sd	s3,1520(a5)
    800036f0:	00040293          	mv	t0,s0
    800036f4:	5e86b823          	sd	s0,1520(a3)
    800036f8:	00200e93          	li	t4,2
    800036fc:	31d72023          	sw	t4,768(a4)
    80003700:	fffff897          	auipc	a7,0xfffff
    80003704:	3ec88893          	addi	a7,a7,1004 # 80002aec <cpu_op_cpy>
    80003708:	6117b023          	sd	a7,1536(a5)
    8000370c:	00038a13          	mv	s4,t2
    80003710:	6076b023          	sd	t2,1536(a3)
    80003714:	00600613          	li	a2,6
    80003718:	30c72223          	sw	a2,772(a4)
    8000371c:	fffffe17          	auipc	t3,0xfffff
    80003720:	288e0e13          	addi	t3,t3,648 # 800029a4 <cpu_op_cmp>
    80003724:	61c7b423          	sd	t3,1544(a5)
    80003728:	ffffd497          	auipc	s1,0xffffd
    8000372c:	de448493          	addi	s1,s1,-540 # 8000050c <cpu_address_indirect_x>
    80003730:	6096b423          	sd	s1,1544(a3)
    80003734:	00300a93          	li	s5,3
    80003738:	31572823          	sw	s5,784(a4)
    8000373c:	6317b023          	sd	a7,1568(a5)
    80003740:	ffffd517          	auipc	a0,0xffffd
    80003744:	a0450513          	addi	a0,a0,-1532 # 80000144 <cpu_address_zero_page>
    80003748:	62a6b023          	sd	a0,1568(a3)
    8000374c:	31572a23          	sw	s5,788(a4)
    80003750:	63c7b423          	sd	t3,1576(a5)
    80003754:	62a6b423          	sd	a0,1576(a3)
    80003758:	00500f93          	li	t6,5
    8000375c:	31f72c23          	sw	t6,792(a4)
    80003760:	ffffff17          	auipc	t5,0xfffff
    80003764:	864f0f13          	addi	t5,t5,-1948 # 80001fc4 <cpu_op_dec>
    80003768:	63e7b823          	sd	t5,1584(a5)
    8000376c:	62a6b823          	sd	a0,1584(a3)
    80003770:	33d72023          	sw	t4,800(a4)
    80003774:	ffffe317          	auipc	t1,0xffffe
    80003778:	67c30313          	addi	t1,t1,1660 # 80001df0 <cpu_op_iny>
    8000377c:	6467b023          	sd	t1,1600(a5)
    80003780:	ffffd397          	auipc	t2,0xffffd
    80003784:	98038393          	addi	t2,t2,-1664 # 80000100 <cpu_address_implied>
    80003788:	6476b023          	sd	t2,1600(a3)
    8000378c:	33d72223          	sw	t4,804(a4)
    80003790:	65c7b423          	sd	t3,1608(a5)
    80003794:	6546b423          	sd	s4,1608(a3)
    80003798:	33d72423          	sw	t4,808(a4)
    8000379c:	ffffe317          	auipc	t1,0xffffe
    800037a0:	69030313          	addi	t1,t1,1680 # 80001e2c <cpu_op_dex>
    800037a4:	6467b823          	sd	t1,1616(a5)
    800037a8:	6476b823          	sd	t2,1616(a3)
    800037ac:	32b72823          	sw	a1,816(a4)
    800037b0:	6717b023          	sd	a7,1632(a5)
    800037b4:	ffffd897          	auipc	a7,0xffffd
    800037b8:	abc88893          	addi	a7,a7,-1348 # 80000270 <cpu_address_absolute>
    800037bc:	6716b023          	sd	a7,1632(a3)
    800037c0:	32b72a23          	sw	a1,820(a4)
    800037c4:	67c7b423          	sd	t3,1640(a5)
    800037c8:	6716b423          	sd	a7,1640(a3)
    800037cc:	32c72c23          	sw	a2,824(a4)
    800037d0:	67e7b823          	sd	t5,1648(a5)
    800037d4:	6716b823          	sd	a7,1648(a3)
    800037d8:	35d72023          	sw	t4,832(a4)
    800037dc:	fffff317          	auipc	t1,0xfffff
    800037e0:	9a430313          	addi	t1,t1,-1628 # 80002180 <cpu_op_bne>
    800037e4:	6867b023          	sd	t1,1664(a5)
    800037e8:	00090b13          	mv	s6,s2
    800037ec:	6926b023          	sd	s2,1664(a3)
    800037f0:	35f72223          	sw	t6,836(a4)
    800037f4:	69c7b423          	sd	t3,1672(a5)
    800037f8:	ffffd417          	auipc	s0,0xffffd
    800037fc:	db040413          	addi	s0,s0,-592 # 800005a8 <cpu_address_indirect_y>
    80003800:	6886b423          	sd	s0,1672(a3)
    80003804:	34b72a23          	sw	a1,852(a4)
    80003808:	6bc7b423          	sd	t3,1704(a5)
    8000380c:	ffffd317          	auipc	t1,0xffffd
    80003810:	99430313          	addi	t1,t1,-1644 # 800001a0 <cpu_address_zero_page_x>
    80003814:	6a66b423          	sd	t1,1704(a3)
    80003818:	34c72c23          	sw	a2,856(a4)
    8000381c:	6be7b823          	sd	t5,1712(a5)
    80003820:	6a66b823          	sd	t1,1712(a3)
    80003824:	37d72023          	sw	t4,864(a4)
    80003828:	fffff917          	auipc	s2,0xfffff
    8000382c:	36c90913          	addi	s2,s2,876 # 80002b94 <cpu_op_cld>
    80003830:	6d27b023          	sd	s2,1728(a5)
    80003834:	6c76b023          	sd	t2,1728(a3)
    80003838:	36b72223          	sw	a1,868(a4)
    8000383c:	6dc7b423          	sd	t3,1736(a5)
    80003840:	6c56b423          	sd	t0,1736(a3)
    80003844:	36b72a23          	sw	a1,884(a4)
    80003848:	6fc7b423          	sd	t3,1768(a5)
    8000384c:	6f06b423          	sd	a6,1768(a3)
    80003850:	00700e13          	li	t3,7
    80003854:	37c72c23          	sw	t3,888(a4)
    80003858:	6fe7b823          	sd	t5,1776(a5)
    8000385c:	6f06b823          	sd	a6,1776(a3)
    80003860:	39d72023          	sw	t4,896(a4)
    80003864:	fffff997          	auipc	s3,0xfffff
    80003868:	20498993          	addi	s3,s3,516 # 80002a68 <cpu_op_cpx>
    8000386c:	7137b023          	sd	s3,1792(a5)
    80003870:	7146b023          	sd	s4,1792(a3)
    80003874:	38c72223          	sw	a2,900(a4)
    80003878:	fffff917          	auipc	s2,0xfffff
    8000387c:	abc90913          	addi	s2,s2,-1348 # 80002334 <cpu_op_sbc>
    80003880:	7127b423          	sd	s2,1800(a5)
    80003884:	7096b423          	sd	s1,1800(a3)
    80003888:	39572823          	sw	s5,912(a4)
    8000388c:	7337b023          	sd	s3,1824(a5)
    80003890:	72a6b023          	sd	a0,1824(a3)
    80003894:	39572a23          	sw	s5,916(a4)
    80003898:	7327b423          	sd	s2,1832(a5)
    8000389c:	72a6b423          	sd	a0,1832(a3)
    800038a0:	39f72c23          	sw	t6,920(a4)
    800038a4:	ffffef17          	auipc	t5,0xffffe
    800038a8:	6bcf0f13          	addi	t5,t5,1724 # 80001f60 <cpu_op_inc>
    800038ac:	73e7b823          	sd	t5,1840(a5)
    800038b0:	72a6b823          	sd	a0,1840(a3)
    800038b4:	3bd72023          	sw	t4,928(a4)
    800038b8:	ffffeb97          	auipc	s7,0xffffe
    800038bc:	4fcb8b93          	addi	s7,s7,1276 # 80001db4 <cpu_op_inx>
    800038c0:	7577b023          	sd	s7,1856(a5)
    800038c4:	7476b023          	sd	t2,1856(a3)
    800038c8:	3bd72223          	sw	t4,932(a4)
    800038cc:	7527b423          	sd	s2,1864(a5)
    800038d0:	7546b423          	sd	s4,1864(a3)
    800038d4:	3bd72423          	sw	t4,936(a4)
    800038d8:	ffffeb97          	auipc	s7,0xffffe
    800038dc:	238b8b93          	addi	s7,s7,568 # 80001b10 <cpu_op_nop>
    800038e0:	7577b823          	sd	s7,1872(a5)
    800038e4:	7476b823          	sd	t2,1872(a3)
    800038e8:	3ab72823          	sw	a1,944(a4)
    800038ec:	7737b023          	sd	s3,1888(a5)
    800038f0:	7716b023          	sd	a7,1888(a3)
    800038f4:	3ab72a23          	sw	a1,948(a4)
    800038f8:	7727b423          	sd	s2,1896(a5)
    800038fc:	7716b423          	sd	a7,1896(a3)
    80003900:	3ac72c23          	sw	a2,952(a4)
    80003904:	77e7b823          	sd	t5,1904(a5)
    80003908:	7716b823          	sd	a7,1904(a3)
    8000390c:	3dd72023          	sw	t4,960(a4)
    80003910:	ffffe997          	auipc	s3,0xffffe
    80003914:	7c898993          	addi	s3,s3,1992 # 800020d8 <cpu_op_beq>
    80003918:	7937b023          	sd	s3,1920(a5)
    8000391c:	7966b023          	sd	s6,1920(a3)
    80003920:	3df72223          	sw	t6,964(a4)
    80003924:	7927b423          	sd	s2,1928(a5)
    80003928:	7886b423          	sd	s0,1928(a3)
    8000392c:	3cb72a23          	sw	a1,980(a4)
    80003930:	7b27b423          	sd	s2,1960(a5)
    80003934:	7a66b423          	sd	t1,1960(a3)
    80003938:	3cc72c23          	sw	a2,984(a4)
    8000393c:	7be7b823          	sd	t5,1968(a5)
    80003940:	7a66b823          	sd	t1,1968(a3)
    80003944:	3fd72023          	sw	t4,992(a4)
    80003948:	fffff997          	auipc	s3,0xfffff
    8000394c:	2dc98993          	addi	s3,s3,732 # 80002c24 <cpu_op_sed>
    80003950:	7d37b023          	sd	s3,1984(a5)
    80003954:	7c76b023          	sd	t2,1984(a3)
    80003958:	3eb72223          	sw	a1,996(a4)
    8000395c:	7d27b423          	sd	s2,1992(a5)
    80003960:	7c56b423          	sd	t0,1992(a3)
    80003964:	3eb72a23          	sw	a1,1012(a4)
    80003968:	7f27b423          	sd	s2,2024(a5)
    8000396c:	7f06b423          	sd	a6,2024(a3)
    80003970:	3fc72c23          	sw	t3,1016(a4)
    80003974:	7fe7b823          	sd	t5,2032(a5)
    80003978:	7f06b823          	sd	a6,2032(a3)
    8000397c:	00800f13          	li	t5,8
    80003980:	01e72623          	sw	t5,12(a4)
    80003984:	fffff997          	auipc	s3,0xfffff
    80003988:	c3498993          	addi	s3,s3,-972 # 800025b8 <cpu_op_aso>
    8000398c:	0137bc23          	sd	s3,24(a5)
    80003990:	0096bc23          	sd	s1,24(a3)
    80003994:	01f72e23          	sw	t6,28(a4)
    80003998:	0337bc23          	sd	s3,56(a5)
    8000399c:	02a6bc23          	sd	a0,56(a3)
    800039a0:	02c72e23          	sw	a2,60(a4)
    800039a4:	0737bc23          	sd	s3,120(a5)
    800039a8:	0716bc23          	sd	a7,120(a3)
    800039ac:	05e72623          	sw	t5,76(a4)
    800039b0:	0937bc23          	sd	s3,152(a5)
    800039b4:	0886bc23          	sd	s0,152(a3)
    800039b8:	04c72e23          	sw	a2,92(a4)
    800039bc:	0b37bc23          	sd	s3,184(a5)
    800039c0:	0a66bc23          	sd	t1,184(a3)
    800039c4:	07c72623          	sw	t3,108(a4)
    800039c8:	0d37bc23          	sd	s3,216(a5)
    800039cc:	0c56bc23          	sd	t0,216(a3)
    800039d0:	07c72e23          	sw	t3,124(a4)
    800039d4:	0f37bc23          	sd	s3,248(a5)
    800039d8:	0f06bc23          	sd	a6,248(a3)
    800039dc:	09e72623          	sw	t5,140(a4)
    800039e0:	fffff997          	auipc	s3,0xfffff
    800039e4:	e4898993          	addi	s3,s3,-440 # 80002828 <cpu_op_rla>
    800039e8:	1137bc23          	sd	s3,280(a5)
    800039ec:	1096bc23          	sd	s1,280(a3)
    800039f0:	09f72e23          	sw	t6,156(a4)
    800039f4:	1337bc23          	sd	s3,312(a5)
    800039f8:	12a6bc23          	sd	a0,312(a3)
    800039fc:	0ac72e23          	sw	a2,188(a4)
    80003a00:	1737bc23          	sd	s3,376(a5)
    80003a04:	1716bc23          	sd	a7,376(a3)
    80003a08:	0de72623          	sw	t5,204(a4)
    80003a0c:	1937bc23          	sd	s3,408(a5)
    80003a10:	1886bc23          	sd	s0,408(a3)
    80003a14:	0cc72e23          	sw	a2,220(a4)
    80003a18:	1b37bc23          	sd	s3,440(a5)
    80003a1c:	1a66bc23          	sd	t1,440(a3)
    80003a20:	0fc72623          	sw	t3,236(a4)
    80003a24:	1d37bc23          	sd	s3,472(a5)
    80003a28:	1c56bc23          	sd	t0,472(a3)
    80003a2c:	0fc72e23          	sw	t3,252(a4)
    80003a30:	1f37bc23          	sd	s3,504(a5)
    80003a34:	1f06bc23          	sd	a6,504(a3)
    80003a38:	11e72623          	sw	t5,268(a4)
    80003a3c:	fffff997          	auipc	s3,0xfffff
    80003a40:	c9498993          	addi	s3,s3,-876 # 800026d0 <cpu_op_lse>
    80003a44:	2137bc23          	sd	s3,536(a5)
    80003a48:	2096bc23          	sd	s1,536(a3)
    80003a4c:	11f72e23          	sw	t6,284(a4)
    80003a50:	2337bc23          	sd	s3,568(a5)
    80003a54:	22a6bc23          	sd	a0,568(a3)
    80003a58:	12c72e23          	sw	a2,316(a4)
    80003a5c:	2737bc23          	sd	s3,632(a5)
    80003a60:	2716bc23          	sd	a7,632(a3)
    80003a64:	15e72623          	sw	t5,332(a4)
    80003a68:	2937bc23          	sd	s3,664(a5)
    80003a6c:	2886bc23          	sd	s0,664(a3)
    80003a70:	14c72e23          	sw	a2,348(a4)
    80003a74:	2b37bc23          	sd	s3,696(a5)
    80003a78:	2a66bc23          	sd	t1,696(a3)
    80003a7c:	17c72623          	sw	t3,364(a4)
    80003a80:	2d37bc23          	sd	s3,728(a5)
    80003a84:	2c56bc23          	sd	t0,728(a3)
    80003a88:	17c72e23          	sw	t3,380(a4)
    80003a8c:	2f37bc23          	sd	s3,760(a5)
    80003a90:	2f06bc23          	sd	a6,760(a3)
    80003a94:	19e72623          	sw	t5,396(a4)
    80003a98:	fffff997          	auipc	s3,0xfffff
    80003a9c:	ef098993          	addi	s3,s3,-272 # 80002988 <cpu_op_rra>
    80003aa0:	3137bc23          	sd	s3,792(a5)
    80003aa4:	3096bc23          	sd	s1,792(a3)
    80003aa8:	19f72e23          	sw	t6,412(a4)
    80003aac:	3337bc23          	sd	s3,824(a5)
    80003ab0:	32a6bc23          	sd	a0,824(a3)
    80003ab4:	1ac72e23          	sw	a2,444(a4)
    80003ab8:	3737bc23          	sd	s3,888(a5)
    80003abc:	3716bc23          	sd	a7,888(a3)
    80003ac0:	1de72623          	sw	t5,460(a4)
    80003ac4:	3937bc23          	sd	s3,920(a5)
    80003ac8:	3886bc23          	sd	s0,920(a3)
    80003acc:	1cc72e23          	sw	a2,476(a4)
    80003ad0:	3b37bc23          	sd	s3,952(a5)
    80003ad4:	3a66bc23          	sd	t1,952(a3)
    80003ad8:	1fc72623          	sw	t3,492(a4)
    80003adc:	3d37bc23          	sd	s3,984(a5)
    80003ae0:	3c56bc23          	sd	t0,984(a3)
    80003ae4:	1fc72e23          	sw	t3,508(a4)
    80003ae8:	3f37bc23          	sd	s3,1016(a5)
    80003aec:	3f06bc23          	sd	a6,1016(a3)
    80003af0:	20c72623          	sw	a2,524(a4)
    80003af4:	ffffe997          	auipc	s3,0xffffe
    80003af8:	57898993          	addi	s3,s3,1400 # 8000206c <cpu_op_axs>
    80003afc:	4137bc23          	sd	s3,1048(a5)
    80003b00:	4096bc23          	sd	s1,1048(a3)
    80003b04:	21572e23          	sw	s5,540(a4)
    80003b08:	4337bc23          	sd	s3,1080(a5)
    80003b0c:	42a6bc23          	sd	a0,1080(a3)
    80003b10:	22b72e23          	sw	a1,572(a4)
    80003b14:	4737bc23          	sd	s3,1144(a5)
    80003b18:	4716bc23          	sd	a7,1144(a3)
    80003b1c:	24c72623          	sw	a2,588(a4)
    80003b20:	ffffeb97          	auipc	s7,0xffffe
    80003b24:	508b8b93          	addi	s7,s7,1288 # 80002028 <cpu_op_axa>
    80003b28:	4977bc23          	sd	s7,1176(a5)
    80003b2c:	4886bc23          	sd	s0,1176(a3)
    80003b30:	24b72e23          	sw	a1,604(a4)
    80003b34:	4b37bc23          	sd	s3,1208(a5)
    80003b38:	ffffcb17          	auipc	s6,0xffffc
    80003b3c:	6d0b0b13          	addi	s6,s6,1744 # 80000208 <cpu_address_zero_page_y>
    80003b40:	4b66bc23          	sd	s6,1208(a3)
    80003b44:	27f72e23          	sw	t6,636(a4)
    80003b48:	4f77bc23          	sd	s7,1272(a5)
    80003b4c:	4e56bc23          	sd	t0,1272(a3)
    80003b50:	28c72623          	sw	a2,652(a4)
    80003b54:	ffffe997          	auipc	s3,0xffffe
    80003b58:	35098993          	addi	s3,s3,848 # 80001ea4 <cpu_op_lax>
    80003b5c:	5137bc23          	sd	s3,1304(a5)
    80003b60:	5096bc23          	sd	s1,1304(a3)
    80003b64:	29572e23          	sw	s5,668(a4)
    80003b68:	5337bc23          	sd	s3,1336(a5)
    80003b6c:	52a6bc23          	sd	a0,1336(a3)
    80003b70:	2ab72e23          	sw	a1,700(a4)
    80003b74:	5737bc23          	sd	s3,1400(a5)
    80003b78:	5716bc23          	sd	a7,1400(a3)
    80003b7c:	2df72623          	sw	t6,716(a4)
    80003b80:	5937bc23          	sd	s3,1432(a5)
    80003b84:	5886bc23          	sd	s0,1432(a3)
    80003b88:	2cb72e23          	sw	a1,732(a4)
    80003b8c:	5b37bc23          	sd	s3,1464(a5)
    80003b90:	5b66bc23          	sd	s6,1464(a3)
    80003b94:	2eb72e23          	sw	a1,764(a4)
    80003b98:	5f37bc23          	sd	s3,1528(a5)
    80003b9c:	5e56bc23          	sd	t0,1528(a3)
    80003ba0:	31e72623          	sw	t5,780(a4)
    80003ba4:	fffff597          	auipc	a1,0xfffff
    80003ba8:	e8458593          	addi	a1,a1,-380 # 80002a28 <cpu_op_dcm>
    80003bac:	60b7bc23          	sd	a1,1560(a5)
    80003bb0:	6096bc23          	sd	s1,1560(a3)
    80003bb4:	31f72e23          	sw	t6,796(a4)
    80003bb8:	62b7bc23          	sd	a1,1592(a5)
    80003bbc:	62a6bc23          	sd	a0,1592(a3)
    80003bc0:	32c72e23          	sw	a2,828(a4)
    80003bc4:	66b7bc23          	sd	a1,1656(a5)
    80003bc8:	6716bc23          	sd	a7,1656(a3)
    80003bcc:	35e72623          	sw	t5,844(a4)
    80003bd0:	68b7bc23          	sd	a1,1688(a5)
    80003bd4:	6886bc23          	sd	s0,1688(a3)
    80003bd8:	34c72e23          	sw	a2,860(a4)
    80003bdc:	6ab7bc23          	sd	a1,1720(a5)
    80003be0:	6a66bc23          	sd	t1,1720(a3)
    80003be4:	37c72623          	sw	t3,876(a4)
    80003be8:	6cb7bc23          	sd	a1,1752(a5)
    80003bec:	6c56bc23          	sd	t0,1752(a3)
    80003bf0:	37c72e23          	sw	t3,892(a4)
    80003bf4:	6eb7bc23          	sd	a1,1784(a5)
    80003bf8:	6f06bc23          	sd	a6,1784(a3)
    80003bfc:	39e72623          	sw	t5,908(a4)
    80003c00:	fffff597          	auipc	a1,0xfffff
    80003c04:	81058593          	addi	a1,a1,-2032 # 80002410 <cpu_op_ins>
    80003c08:	70b7bc23          	sd	a1,1816(a5)
    80003c0c:	7096bc23          	sd	s1,1816(a3)
    80003c10:	39f72e23          	sw	t6,924(a4)
    80003c14:	72b7bc23          	sd	a1,1848(a5)
    80003c18:	72a6bc23          	sd	a0,1848(a3)
    80003c1c:	3bd72623          	sw	t4,940(a4)
    80003c20:	7527bc23          	sd	s2,1880(a5)
    80003c24:	7546bc23          	sd	s4,1880(a3)
    80003c28:	3ac72e23          	sw	a2,956(a4)
    80003c2c:	76b7bc23          	sd	a1,1912(a5)
    80003c30:	7716bc23          	sd	a7,1912(a3)
    80003c34:	3de72623          	sw	t5,972(a4)
    80003c38:	78b7bc23          	sd	a1,1944(a5)
    80003c3c:	7886bc23          	sd	s0,1944(a3)
    80003c40:	3cc72e23          	sw	a2,988(a4)
    80003c44:	7ab7bc23          	sd	a1,1976(a5)
    80003c48:	7a66bc23          	sd	t1,1976(a3)
    80003c4c:	3fc72623          	sw	t3,1004(a4)
    80003c50:	7cb7bc23          	sd	a1,2008(a5)
    80003c54:	7c56bc23          	sd	t0,2008(a3)
    80003c58:	3fc72e23          	sw	t3,1020(a4)
    80003c5c:	7eb7bc23          	sd	a1,2040(a5)
    80003c60:	7f06bc23          	sd	a6,2040(a3)
    80003c64:	00100593          	li	a1,1
    80003c68:	00b72823          	sw	a1,16(a4)
    80003c6c:	ffffe617          	auipc	a2,0xffffe
    80003c70:	ea060613          	addi	a2,a2,-352 # 80001b0c <____FE____>
    80003c74:	02c7b023          	sd	a2,32(a5)
    80003c78:	02a6b023          	sd	a0,32(a3)
    80003c7c:	02b72823          	sw	a1,48(a4)
    80003c80:	06c7b023          	sd	a2,96(a5)
    80003c84:	0716b023          	sd	a7,96(a3)
    80003c88:	04b72823          	sw	a1,80(a4)
    80003c8c:	0ac7b023          	sd	a2,160(a5)
    80003c90:	0a66b023          	sd	t1,160(a3)
    80003c94:	06b72423          	sw	a1,104(a4)
    80003c98:	0cc7b823          	sd	a2,208(a5)
    80003c9c:	0c76b823          	sd	t2,208(a3)
    80003ca0:	06b72823          	sw	a1,112(a4)
    80003ca4:	0ec7b023          	sd	a2,224(a5)
    80003ca8:	0f06b023          	sd	a6,224(a3)
    80003cac:	0cb72823          	sw	a1,208(a4)
    80003cb0:	1ac7b023          	sd	a2,416(a5)
    80003cb4:	1a66b023          	sd	t1,416(a3)
    80003cb8:	0eb72423          	sw	a1,232(a4)
    80003cbc:	1cc7b823          	sd	a2,464(a5)
    80003cc0:	1c76b823          	sd	t2,464(a3)
    80003cc4:	0eb72823          	sw	a1,240(a4)
    80003cc8:	1ec7b023          	sd	a2,480(a5)
    80003ccc:	1f06b023          	sd	a6,480(a3)
    80003cd0:	10b72823          	sw	a1,272(a4)
    80003cd4:	22c7b023          	sd	a2,544(a5)
    80003cd8:	22a6b023          	sd	a0,544(a3)
    80003cdc:	14b72823          	sw	a1,336(a4)
    80003ce0:	2ac7b023          	sd	a2,672(a5)
    80003ce4:	2a66b023          	sd	t1,672(a3)
    80003ce8:	16b72423          	sw	a1,360(a4)
    80003cec:	2cc7b823          	sd	a2,720(a5)
    80003cf0:	2c76b823          	sd	t2,720(a3)
    80003cf4:	16b72823          	sw	a1,368(a4)
    80003cf8:	2ec7b023          	sd	a2,736(a5)
    80003cfc:	2f06b023          	sd	a6,736(a3)
    80003d00:	18b72823          	sw	a1,400(a4)
    80003d04:	32c7b023          	sd	a2,800(a5)
    80003d08:	32a6b023          	sd	a0,800(a3)
    80003d0c:	1cb72823          	sw	a1,464(a4)
    80003d10:	3ac7b023          	sd	a2,928(a5)
    80003d14:	3a66b023          	sd	t1,928(a3)
    80003d18:	1eb72423          	sw	a1,488(a4)
    80003d1c:	3cc7b823          	sd	a2,976(a5)
    80003d20:	3c76b823          	sd	t2,976(a3)
    80003d24:	1eb72823          	sw	a1,496(a4)
    80003d28:	3ec7b023          	sd	a2,992(a5)
    80003d2c:	3f06b023          	sd	a6,992(a3)
    80003d30:	20b72023          	sw	a1,512(a4)
    80003d34:	40c7b023          	sd	a2,1024(a5)
    80003d38:	00068793          	mv	a5,a3
    80003d3c:	4146b023          	sd	s4,1024(a3)
    80003d40:	00176617          	auipc	a2,0x176
    80003d44:	57860613          	addi	a2,a2,1400 # 8017a2b8 <cpu_op_cycles>
    80003d48:	34b62823          	sw	a1,848(a2)
    80003d4c:	00177717          	auipc	a4,0x177
    80003d50:	96c70713          	addi	a4,a4,-1684 # 8017a6b8 <cpu_op_handler>
    80003d54:	ffffe697          	auipc	a3,0xffffe
    80003d58:	db868693          	addi	a3,a3,-584 # 80001b0c <____FE____>
    80003d5c:	6ad73023          	sd	a3,1696(a4)
    80003d60:	6a67b023          	sd	t1,1696(a5)
    80003d64:	36b62423          	sw	a1,872(a2)
    80003d68:	6cd73823          	sd	a3,1744(a4)
    80003d6c:	6c77b823          	sd	t2,1744(a5)
    80003d70:	36b62823          	sw	a1,880(a2)
    80003d74:	6ed73023          	sd	a3,1760(a4)
    80003d78:	ffffc517          	auipc	a0,0xffffc
    80003d7c:	54450513          	addi	a0,a0,1348 # 800002bc <cpu_address_absolute_x>
    80003d80:	6ea7b023          	sd	a0,1760(a5)
    80003d84:	3cb62823          	sw	a1,976(a2)
    80003d88:	7ad73023          	sd	a3,1952(a4)
    80003d8c:	7a67b023          	sd	t1,1952(a5)
    80003d90:	3eb62423          	sw	a1,1000(a2)
    80003d94:	7cd73823          	sd	a3,2000(a4)
    80003d98:	7c77b823          	sd	t2,2000(a5)
    80003d9c:	3eb62823          	sw	a1,1008(a2)
    80003da0:	7ed73023          	sd	a3,2016(a4)
    80003da4:	7ea7b023          	sd	a0,2016(a5)
    80003da8:	00177797          	auipc	a5,0x177
    80003dac:	15078793          	addi	a5,a5,336 # 8017aef8 <cpu>
    80003db0:	02400713          	li	a4,36
    80003db4:	00e78323          	sb	a4,6(a5)
    80003db8:	00078123          	sb	zero,2(a5)
    80003dbc:	000782a3          	sb	zero,5(a5)
    80003dc0:	00078223          	sb	zero,4(a5)
    80003dc4:	000781a3          	sb	zero,3(a5)
    80003dc8:	03813403          	ld	s0,56(sp)
    80003dcc:	03013483          	ld	s1,48(sp)
    80003dd0:	02813903          	ld	s2,40(sp)
    80003dd4:	02013983          	ld	s3,32(sp)
    80003dd8:	01813a03          	ld	s4,24(sp)
    80003ddc:	01013a83          	ld	s5,16(sp)
    80003de0:	00813b03          	ld	s6,8(sp)
    80003de4:	00013b83          	ld	s7,0(sp)
    80003de8:	04010113          	addi	sp,sp,64
    80003dec:	00008067          	ret

0000000080003df0 <cpu_reset>:
    80003df0:	ff010113          	addi	sp,sp,-16
    80003df4:	00113423          	sd	ra,8(sp)
    80003df8:	ec5fe0ef          	jal	ra,80002cbc <cpu_reset_interrupt_address>
    80003dfc:	00177797          	auipc	a5,0x177
    80003e00:	0fc78793          	addi	a5,a5,252 # 8017aef8 <cpu>
    80003e04:	00a79023          	sh	a0,0(a5)
    80003e08:	0027c703          	lbu	a4,2(a5)
    80003e0c:	ffd7071b          	addiw	a4,a4,-3
    80003e10:	00e78123          	sb	a4,2(a5)
    80003e14:	0067c703          	lbu	a4,6(a5)
    80003e18:	00476713          	ori	a4,a4,4
    80003e1c:	00e78323          	sb	a4,6(a5)
    80003e20:	00813083          	ld	ra,8(sp)
    80003e24:	01010113          	addi	sp,sp,16
    80003e28:	00008067          	ret

0000000080003e2c <cpu_interrupt>:
    80003e2c:	ff010113          	addi	sp,sp,-16
    80003e30:	00113423          	sd	ra,8(sp)
    80003e34:	00813023          	sd	s0,0(sp)
    80003e38:	fddfc0ef          	jal	ra,80000e14 <ppu_generates_nmi>
    80003e3c:	00051a63          	bnez	a0,80003e50 <cpu_interrupt+0x24>
    80003e40:	00813083          	ld	ra,8(sp)
    80003e44:	00013403          	ld	s0,0(sp)
    80003e48:	01010113          	addi	sp,sp,16
    80003e4c:	00008067          	ret
    80003e50:	00177417          	auipc	s0,0x177
    80003e54:	0a840413          	addi	s0,s0,168 # 8017aef8 <cpu>
    80003e58:	00644783          	lbu	a5,6(s0)
    80003e5c:	0047e793          	ori	a5,a5,4
    80003e60:	00f40323          	sb	a5,6(s0)
    80003e64:	00500593          	li	a1,5
    80003e68:	00177517          	auipc	a0,0x177
    80003e6c:	09650513          	addi	a0,a0,150 # 8017aefe <cpu+0x6>
    80003e70:	168000ef          	jal	ra,80003fd8 <common_unset_bitb>
    80003e74:	00045503          	lhu	a0,0(s0)
    80003e78:	eddfe0ef          	jal	ra,80002d54 <cpu_stack_pushw>
    80003e7c:	00644503          	lbu	a0,6(s0)
    80003e80:	e5dfe0ef          	jal	ra,80002cdc <cpu_stack_pushb>
    80003e84:	e19fe0ef          	jal	ra,80002c9c <cpu_nmi_interrupt_address>
    80003e88:	00a41023          	sh	a0,0(s0)
    80003e8c:	fb5ff06f          	j	80003e40 <cpu_interrupt+0x14>

0000000080003e90 <cpu_clock>:
    80003e90:	00177517          	auipc	a0,0x177
    80003e94:	07053503          	ld	a0,112(a0) # 8017af00 <cpu_cycles>
    80003e98:	00008067          	ret

0000000080003e9c <cpu_run>:
    80003e9c:	fb010113          	addi	sp,sp,-80
    80003ea0:	04113423          	sd	ra,72(sp)
    80003ea4:	04813023          	sd	s0,64(sp)
    80003ea8:	02913c23          	sd	s1,56(sp)
    80003eac:	03213823          	sd	s2,48(sp)
    80003eb0:	03313423          	sd	s3,40(sp)
    80003eb4:	03413023          	sd	s4,32(sp)
    80003eb8:	01513c23          	sd	s5,24(sp)
    80003ebc:	01613823          	sd	s6,16(sp)
    80003ec0:	01713423          	sd	s7,8(sp)
    80003ec4:	00300413          	li	s0,3
    80003ec8:	02854433          	div	s0,a0,s0
    80003ecc:	00200793          	li	a5,2
    80003ed0:	0aa7d863          	bge	a5,a0,80003f80 <cpu_run+0xe4>
    80003ed4:	00177a17          	auipc	s4,0x177
    80003ed8:	024a0a13          	addi	s4,s4,36 # 8017aef8 <cpu>
    80003edc:	00177497          	auipc	s1,0x177
    80003ee0:	03048493          	addi	s1,s1,48 # 8017af0c <op_code>
    80003ee4:	00176b17          	auipc	s6,0x176
    80003ee8:	bd4b0b13          	addi	s6,s6,-1068 # 80179ab8 <cpu_op_address_mode>
    80003eec:	00176b97          	auipc	s7,0x176
    80003ef0:	7ccb8b93          	addi	s7,s7,1996 # 8017a6b8 <cpu_op_handler>
    80003ef4:	00176a97          	auipc	s5,0x176
    80003ef8:	3c4a8a93          	addi	s5,s5,964 # 8017a2b8 <cpu_op_cycles>
    80003efc:	00177997          	auipc	s3,0x177
    80003f00:	01498993          	addi	s3,s3,20 # 8017af10 <op_cycles>
    80003f04:	00177917          	auipc	s2,0x177
    80003f08:	ffc90913          	addi	s2,s2,-4 # 8017af00 <cpu_cycles>
    80003f0c:	04c0006f          	j	80003f58 <cpu_run+0xbc>
    80003f10:	000780e7          	jalr	a5
    80003f14:	0004c783          	lbu	a5,0(s1)
    80003f18:	00379793          	slli	a5,a5,0x3
    80003f1c:	00fb87b3          	add	a5,s7,a5
    80003f20:	0007b783          	ld	a5,0(a5)
    80003f24:	000780e7          	jalr	a5
    80003f28:	0004c783          	lbu	a5,0(s1)
    80003f2c:	00279793          	slli	a5,a5,0x2
    80003f30:	00fa87b3          	add	a5,s5,a5
    80003f34:	0007a703          	lw	a4,0(a5)
    80003f38:	0009a783          	lw	a5,0(s3)
    80003f3c:	00e787bb          	addw	a5,a5,a4
    80003f40:	40f40433          	sub	s0,s0,a5
    80003f44:	00093703          	ld	a4,0(s2)
    80003f48:	40f707b3          	sub	a5,a4,a5
    80003f4c:	00f93023          	sd	a5,0(s2)
    80003f50:	0009a023          	sw	zero,0(s3)
    80003f54:	02805663          	blez	s0,80003f80 <cpu_run+0xe4>
    80003f58:	000a5503          	lhu	a0,0(s4)
    80003f5c:	0015079b          	addiw	a5,a0,1
    80003f60:	00fa1023          	sh	a5,0(s4)
    80003f64:	be5fc0ef          	jal	ra,80000b48 <memory_readb>
    80003f68:	00a48023          	sb	a0,0(s1)
    80003f6c:	00351513          	slli	a0,a0,0x3
    80003f70:	00ab0533          	add	a0,s6,a0
    80003f74:	00053783          	ld	a5,0(a0)
    80003f78:	f8079ce3          	bnez	a5,80003f10 <cpu_run+0x74>
    80003f7c:	fadff06f          	j	80003f28 <cpu_run+0x8c>
    80003f80:	04813083          	ld	ra,72(sp)
    80003f84:	04013403          	ld	s0,64(sp)
    80003f88:	03813483          	ld	s1,56(sp)
    80003f8c:	03013903          	ld	s2,48(sp)
    80003f90:	02813983          	ld	s3,40(sp)
    80003f94:	02013a03          	ld	s4,32(sp)
    80003f98:	01813a83          	ld	s5,24(sp)
    80003f9c:	01013b03          	ld	s6,16(sp)
    80003fa0:	00813b83          	ld	s7,8(sp)
    80003fa4:	05010113          	addi	sp,sp,80
    80003fa8:	00008067          	ret

0000000080003fac <common_bit_set>:
    80003fac:	00100793          	li	a5,1
    80003fb0:	00b797b3          	sll	a5,a5,a1
    80003fb4:	00a7f533          	and	a0,a5,a0
    80003fb8:	00a03533          	snez	a0,a0
    80003fbc:	00008067          	ret

0000000080003fc0 <common_set_bitb>:
    80003fc0:	00100793          	li	a5,1
    80003fc4:	00b797b3          	sll	a5,a5,a1
    80003fc8:	00054583          	lbu	a1,0(a0)
    80003fcc:	00f5e5b3          	or	a1,a1,a5
    80003fd0:	00b50023          	sb	a1,0(a0)
    80003fd4:	00008067          	ret

0000000080003fd8 <common_unset_bitb>:
    80003fd8:	00100793          	li	a5,1
    80003fdc:	00b797b3          	sll	a5,a5,a1
    80003fe0:	fff7c793          	not	a5,a5
    80003fe4:	00054703          	lbu	a4,0(a0)
    80003fe8:	00e7f7b3          	and	a5,a5,a4
    80003fec:	00f50023          	sb	a5,0(a0)
    80003ff0:	00008067          	ret

0000000080003ff4 <common_modify_bitb>:
    80003ff4:	00060e63          	beqz	a2,80004010 <common_modify_bitb+0x1c>
    80003ff8:	00100793          	li	a5,1
    80003ffc:	00b79733          	sll	a4,a5,a1
    80004000:	00054783          	lbu	a5,0(a0)
    80004004:	00e7e7b3          	or	a5,a5,a4
    80004008:	00f50023          	sb	a5,0(a0)
    8000400c:	00008067          	ret
    80004010:	ff010113          	addi	sp,sp,-16
    80004014:	00113423          	sd	ra,8(sp)
    80004018:	fc1ff0ef          	jal	ra,80003fd8 <common_unset_bitb>
    8000401c:	00813083          	ld	ra,8(sp)
    80004020:	01010113          	addi	sp,sp,16
    80004024:	00008067          	ret

0000000080004028 <main>:
    80004028:	fe010113          	addi	sp,sp,-32
    8000402c:	00113c23          	sd	ra,24(sp)
    80004030:	160000ef          	jal	ra,80004190 <ioe_init>
    80004034:	00001517          	auipc	a0,0x1
    80004038:	fb450513          	addi	a0,a0,-76 # 80004fe8 <cpu_zn_flag_table+0x100>
    8000403c:	50c000ef          	jal	ra,80004548 <printf>
    80004040:	00001797          	auipc	a5,0x1
    80004044:	09078793          	addi	a5,a5,144 # 800050d0 <cpu_zn_flag_table+0x1e8>
    80004048:	00f13023          	sd	a5,0(sp)
    8000404c:	00001897          	auipc	a7,0x1
    80004050:	fdc88893          	addi	a7,a7,-36 # 80005028 <cpu_zn_flag_table+0x140>
    80004054:	00001817          	auipc	a6,0x1
    80004058:	fdc80813          	addi	a6,a6,-36 # 80005030 <cpu_zn_flag_table+0x148>
    8000405c:	00001797          	auipc	a5,0x1
    80004060:	fdc78793          	addi	a5,a5,-36 # 80005038 <cpu_zn_flag_table+0x150>
    80004064:	00001717          	auipc	a4,0x1
    80004068:	fdc70713          	addi	a4,a4,-36 # 80005040 <cpu_zn_flag_table+0x158>
    8000406c:	00001697          	auipc	a3,0x1
    80004070:	fdc68693          	addi	a3,a3,-36 # 80005048 <cpu_zn_flag_table+0x160>
    80004074:	00001617          	auipc	a2,0x1
    80004078:	fdc60613          	addi	a2,a2,-36 # 80005050 <cpu_zn_flag_table+0x168>
    8000407c:	00001597          	auipc	a1,0x1
    80004080:	fdc58593          	addi	a1,a1,-36 # 80005058 <cpu_zn_flag_table+0x170>
    80004084:	00001517          	auipc	a0,0x1
    80004088:	fdc50513          	addi	a0,a0,-36 # 80005060 <cpu_zn_flag_table+0x178>
    8000408c:	4bc000ef          	jal	ra,80004548 <printf>
    80004090:	00001517          	auipc	a0,0x1
    80004094:	04850513          	addi	a0,a0,72 # 800050d8 <cpu_zn_flag_table+0x1f0>
    80004098:	4b0000ef          	jal	ra,80004548 <printf>
    8000409c:	00001517          	auipc	a0,0x1
    800040a0:	11450513          	addi	a0,a0,276 # 800051b0 <rom_mario_nes>
    800040a4:	e24fc0ef          	jal	ra,800006c8 <fce_load_rom>
    800040a8:	f8cfc0ef          	jal	ra,80000834 <fce_init>
    800040ac:	855fc0ef          	jal	ra,80000900 <fce_run>
    800040b0:	00100513          	li	a0,1
    800040b4:	01813083          	ld	ra,24(sp)
    800040b8:	02010113          	addi	sp,sp,32
    800040bc:	00008067          	ret

00000000800040c0 <putch>:
    800040c0:	00500793          	li	a5,5
    800040c4:	01d79793          	slli	a5,a5,0x1d
    800040c8:	3ea78c23          	sb	a0,1016(a5)
    800040cc:	00008067          	ret

00000000800040d0 <halt>:
    800040d0:	00050513          	mv	a0,a0
    800040d4:	00100073          	ebreak
    800040d8:	0000006f          	j	800040d8 <halt+0x8>

00000000800040dc <_trm_init>:
    800040dc:	ff010113          	addi	sp,sp,-16
    800040e0:	00113423          	sd	ra,8(sp)
    800040e4:	00001517          	auipc	a0,0x1
    800040e8:	0c450513          	addi	a0,a0,196 # 800051a8 <mainargs>
    800040ec:	f3dff0ef          	jal	ra,80004028 <main>
    800040f0:	00050513          	mv	a0,a0
    800040f4:	00100073          	ebreak
    800040f8:	0000006f          	j	800040f8 <_trm_init+0x1c>

00000000800040fc <__am_timer_config>:
    800040fc:	00100793          	li	a5,1
    80004100:	00f50023          	sb	a5,0(a0)
    80004104:	00f500a3          	sb	a5,1(a0)
    80004108:	00008067          	ret

000000008000410c <__am_input_config>:
    8000410c:	00100793          	li	a5,1
    80004110:	00f50023          	sb	a5,0(a0)
    80004114:	00008067          	ret

0000000080004118 <__am_uart_config>:
    80004118:	00050023          	sb	zero,0(a0)
    8000411c:	00008067          	ret

0000000080004120 <__am_net_config>:
    80004120:	00050023          	sb	zero,0(a0)
    80004124:	00008067          	ret

0000000080004128 <fail>:
    80004128:	ff010113          	addi	sp,sp,-16
    8000412c:	00113423          	sd	ra,8(sp)
    80004130:	00813023          	sd	s0,0(sp)
    80004134:	00001417          	auipc	s0,0x1
    80004138:	bb440413          	addi	s0,s0,-1100 # 80004ce8 <MAP+0x428>
    8000413c:	04100513          	li	a0,65
    80004140:	f81ff0ef          	jal	ra,800040c0 <putch>
    80004144:	00140413          	addi	s0,s0,1
    80004148:	00044503          	lbu	a0,0(s0)
    8000414c:	fe051ae3          	bnez	a0,80004140 <fail+0x18>
    80004150:	00001417          	auipc	s0,0x1
    80004154:	fc840413          	addi	s0,s0,-56 # 80005118 <cpu_zn_flag_table+0x230>
    80004158:	06100513          	li	a0,97
    8000415c:	f65ff0ef          	jal	ra,800040c0 <putch>
    80004160:	00140413          	addi	s0,s0,1
    80004164:	00044503          	lbu	a0,0(s0)
    80004168:	fe051ae3          	bnez	a0,8000415c <fail+0x34>
    8000416c:	00001417          	auipc	s0,0x1
    80004170:	fcc40413          	addi	s0,s0,-52 # 80005138 <cpu_zn_flag_table+0x250>
    80004174:	02000513          	li	a0,32
    80004178:	f49ff0ef          	jal	ra,800040c0 <putch>
    8000417c:	00140413          	addi	s0,s0,1
    80004180:	00044503          	lbu	a0,0(s0)
    80004184:	fe051ae3          	bnez	a0,80004178 <fail+0x50>
    80004188:	00100513          	li	a0,1
    8000418c:	f45ff0ef          	jal	ra,800040d0 <halt>

0000000080004190 <ioe_init>:
    80004190:	ff010113          	addi	sp,sp,-16
    80004194:	00113423          	sd	ra,8(sp)
    80004198:	0000b797          	auipc	a5,0xb
    8000419c:	03878793          	addi	a5,a5,56 # 8000f1d0 <lut>
    800041a0:	0000b697          	auipc	a3,0xb
    800041a4:	43068693          	addi	a3,a3,1072 # 8000f5d0 <key_state>
    800041a8:	00000617          	auipc	a2,0x0
    800041ac:	f8060613          	addi	a2,a2,-128 # 80004128 <fail>
    800041b0:	00c0006f          	j	800041bc <ioe_init+0x2c>
    800041b4:	00878793          	addi	a5,a5,8
    800041b8:	00d78a63          	beq	a5,a3,800041cc <ioe_init+0x3c>
    800041bc:	0007b703          	ld	a4,0(a5)
    800041c0:	fe071ae3          	bnez	a4,800041b4 <ioe_init+0x24>
    800041c4:	00c7b023          	sd	a2,0(a5)
    800041c8:	fedff06f          	j	800041b4 <ioe_init+0x24>
    800041cc:	12c000ef          	jal	ra,800042f8 <__am_gpu_init>
    800041d0:	078000ef          	jal	ra,80004248 <__am_timer_init>
    800041d4:	254000ef          	jal	ra,80004428 <__am_audio_init>
    800041d8:	00100513          	li	a0,1
    800041dc:	00813083          	ld	ra,8(sp)
    800041e0:	01010113          	addi	sp,sp,16
    800041e4:	00008067          	ret

00000000800041e8 <ioe_read>:
    800041e8:	ff010113          	addi	sp,sp,-16
    800041ec:	00113423          	sd	ra,8(sp)
    800041f0:	00351713          	slli	a4,a0,0x3
    800041f4:	0000b797          	auipc	a5,0xb
    800041f8:	fdc78793          	addi	a5,a5,-36 # 8000f1d0 <lut>
    800041fc:	00e787b3          	add	a5,a5,a4
    80004200:	0007b783          	ld	a5,0(a5)
    80004204:	00058513          	mv	a0,a1
    80004208:	000780e7          	jalr	a5
    8000420c:	00813083          	ld	ra,8(sp)
    80004210:	01010113          	addi	sp,sp,16
    80004214:	00008067          	ret

0000000080004218 <ioe_write>:
    80004218:	ff010113          	addi	sp,sp,-16
    8000421c:	00113423          	sd	ra,8(sp)
    80004220:	00351713          	slli	a4,a0,0x3
    80004224:	0000b797          	auipc	a5,0xb
    80004228:	fac78793          	addi	a5,a5,-84 # 8000f1d0 <lut>
    8000422c:	00e787b3          	add	a5,a5,a4
    80004230:	0007b783          	ld	a5,0(a5)
    80004234:	00058513          	mv	a0,a1
    80004238:	000780e7          	jalr	a5
    8000423c:	00813083          	ld	ra,8(sp)
    80004240:	01010113          	addi	sp,sp,16
    80004244:	00008067          	ret

0000000080004248 <__am_timer_init>:
    80004248:	00500793          	li	a5,5
    8000424c:	01d79793          	slli	a5,a5,0x1d
    80004250:	0487a703          	lw	a4,72(a5)
    80004254:	02071713          	slli	a4,a4,0x20
    80004258:	02075713          	srli	a4,a4,0x20
    8000425c:	04c7a783          	lw	a5,76(a5)
    80004260:	02079793          	slli	a5,a5,0x20
    80004264:	00e7e7b3          	or	a5,a5,a4
    80004268:	00177717          	auipc	a4,0x177
    8000426c:	caf73823          	sd	a5,-848(a4) # 8017af18 <boot_time>
    80004270:	00008067          	ret

0000000080004274 <__am_timer_uptime>:
    80004274:	00500793          	li	a5,5
    80004278:	01d79793          	slli	a5,a5,0x1d
    8000427c:	0487a703          	lw	a4,72(a5)
    80004280:	02071713          	slli	a4,a4,0x20
    80004284:	02075713          	srli	a4,a4,0x20
    80004288:	04c7a783          	lw	a5,76(a5)
    8000428c:	02079793          	slli	a5,a5,0x20
    80004290:	00e7e7b3          	or	a5,a5,a4
    80004294:	00177717          	auipc	a4,0x177
    80004298:	c8473703          	ld	a4,-892(a4) # 8017af18 <boot_time>
    8000429c:	40e787b3          	sub	a5,a5,a4
    800042a0:	00f53023          	sd	a5,0(a0)
    800042a4:	00008067          	ret

00000000800042a8 <__am_timer_rtc>:
    800042a8:	00052a23          	sw	zero,20(a0)
    800042ac:	00052823          	sw	zero,16(a0)
    800042b0:	00052623          	sw	zero,12(a0)
    800042b4:	00052423          	sw	zero,8(a0)
    800042b8:	00052223          	sw	zero,4(a0)
    800042bc:	76c00793          	li	a5,1900
    800042c0:	00f52023          	sw	a5,0(a0)
    800042c4:	00008067          	ret

00000000800042c8 <__am_input_keybrd>:
    800042c8:	00050023          	sb	zero,0(a0)
    800042cc:	00052223          	sw	zero,4(a0)
    800042d0:	00500793          	li	a5,5
    800042d4:	01d79793          	slli	a5,a5,0x1d
    800042d8:	0607a783          	lw	a5,96(a5)
    800042dc:	0007879b          	sext.w	a5,a5
    800042e0:	40f7d71b          	sraiw	a4,a5,0xf
    800042e4:	00177713          	andi	a4,a4,1
    800042e8:	00e50023          	sb	a4,0(a0)
    800042ec:	0ff7f793          	zext.b	a5,a5
    800042f0:	00f52223          	sw	a5,4(a0)
    800042f4:	00008067          	ret

00000000800042f8 <__am_gpu_init>:
    800042f8:	00500793          	li	a5,5
    800042fc:	01d79793          	slli	a5,a5,0x1d
    80004300:	1007a783          	lw	a5,256(a5)
    80004304:	0107d79b          	srliw	a5,a5,0x10
    80004308:	00177717          	auipc	a4,0x177
    8000430c:	c0f72c23          	sw	a5,-1000(a4) # 8017af20 <w>
    80004310:	00008067          	ret

0000000080004314 <__am_gpu_config>:
    80004314:	00100793          	li	a5,1
    80004318:	00f50023          	sb	a5,0(a0)
    8000431c:	000500a3          	sb	zero,1(a0)
    80004320:	00052223          	sw	zero,4(a0)
    80004324:	00052423          	sw	zero,8(a0)
    80004328:	00052623          	sw	zero,12(a0)
    8000432c:	00500793          	li	a5,5
    80004330:	01d79793          	slli	a5,a5,0x1d
    80004334:	1007a783          	lw	a5,256(a5)
    80004338:	0107d71b          	srliw	a4,a5,0x10
    8000433c:	00e52223          	sw	a4,4(a0)
    80004340:	03079793          	slli	a5,a5,0x30
    80004344:	0307d793          	srli	a5,a5,0x30
    80004348:	00f52423          	sw	a5,8(a0)
    8000434c:	00008067          	ret

0000000080004350 <__am_gpu_fbdraw>:
    80004350:	fc010113          	addi	sp,sp,-64
    80004354:	02113c23          	sd	ra,56(sp)
    80004358:	02813823          	sd	s0,48(sp)
    8000435c:	02913423          	sd	s1,40(sp)
    80004360:	03213023          	sd	s2,32(sp)
    80004364:	01313c23          	sd	s3,24(sp)
    80004368:	01413823          	sd	s4,16(sp)
    8000436c:	01513423          	sd	s5,8(sp)
    80004370:	01613023          	sd	s6,0(sp)
    80004374:	00050b13          	mv	s6,a0
    80004378:	01052983          	lw	s3,16(a0)
    8000437c:	01452a83          	lw	s5,20(a0)
    80004380:	00853483          	ld	s1,8(a0)
    80004384:	00177a17          	auipc	s4,0x177
    80004388:	b9ca2a03          	lw	s4,-1124(s4) # 8017af20 <w>
    8000438c:	00452403          	lw	s0,4(a0)
    80004390:	0344043b          	mulw	s0,s0,s4
    80004394:	00052783          	lw	a5,0(a0)
    80004398:	00f4043b          	addw	s0,s0,a5
    8000439c:	0024141b          	slliw	s0,s0,0x2
    800043a0:	0a100793          	li	a5,161
    800043a4:	01879793          	slli	a5,a5,0x18
    800043a8:	00f40433          	add	s0,s0,a5
    800043ac:	03505863          	blez	s5,800043dc <__am_gpu_fbdraw+0x8c>
    800043b0:	0029999b          	slliw	s3,s3,0x2
    800043b4:	002a1a1b          	slliw	s4,s4,0x2
    800043b8:	00000913          	li	s2,0
    800043bc:	00098613          	mv	a2,s3
    800043c0:	00048593          	mv	a1,s1
    800043c4:	00040513          	mv	a0,s0
    800043c8:	3f8000ef          	jal	ra,800047c0 <memcpy>
    800043cc:	01440433          	add	s0,s0,s4
    800043d0:	013484b3          	add	s1,s1,s3
    800043d4:	0019091b          	addiw	s2,s2,1
    800043d8:	ff2a92e3          	bne	s5,s2,800043bc <__am_gpu_fbdraw+0x6c>
    800043dc:	018b4783          	lbu	a5,24(s6)
    800043e0:	00078a63          	beqz	a5,800043f4 <__am_gpu_fbdraw+0xa4>
    800043e4:	00500793          	li	a5,5
    800043e8:	01d79793          	slli	a5,a5,0x1d
    800043ec:	00100713          	li	a4,1
    800043f0:	10e7a223          	sw	a4,260(a5)
    800043f4:	03813083          	ld	ra,56(sp)
    800043f8:	03013403          	ld	s0,48(sp)
    800043fc:	02813483          	ld	s1,40(sp)
    80004400:	02013903          	ld	s2,32(sp)
    80004404:	01813983          	ld	s3,24(sp)
    80004408:	01013a03          	ld	s4,16(sp)
    8000440c:	00813a83          	ld	s5,8(sp)
    80004410:	00013b03          	ld	s6,0(sp)
    80004414:	04010113          	addi	sp,sp,64
    80004418:	00008067          	ret

000000008000441c <__am_gpu_status>:
    8000441c:	00100793          	li	a5,1
    80004420:	00f50023          	sb	a5,0(a0)
    80004424:	00008067          	ret

0000000080004428 <__am_audio_init>:
    80004428:	00008067          	ret

000000008000442c <__am_audio_config>:
    8000442c:	00050023          	sb	zero,0(a0)
    80004430:	00008067          	ret

0000000080004434 <__am_audio_ctrl>:
    80004434:	00008067          	ret

0000000080004438 <__am_audio_status>:
    80004438:	00052023          	sw	zero,0(a0)
    8000443c:	00008067          	ret

0000000080004440 <__am_audio_play>:
    80004440:	00008067          	ret

0000000080004444 <__am_disk_config>:
    80004444:	00050023          	sb	zero,0(a0)
    80004448:	00008067          	ret

000000008000444c <__am_disk_status>:
    8000444c:	00008067          	ret

0000000080004450 <__am_disk_blkio>:
    80004450:	00008067          	ret

0000000080004454 <int2str>:
    80004454:	00050693          	mv	a3,a0
    80004458:	00051a63          	bnez	a0,8000446c <int2str+0x18>
    8000445c:	03000793          	li	a5,48
    80004460:	00f58023          	sb	a5,0(a1)
    80004464:	00100513          	li	a0,1
    80004468:	0d40006f          	j	8000453c <int2str+0xe8>
    8000446c:	02055463          	bgez	a0,80004494 <int2str+0x40>
    80004470:	02d00793          	li	a5,45
    80004474:	00f58023          	sb	a5,0(a1)
    80004478:	00000713          	li	a4,0
    8000447c:	00100893          	li	a7,1
    80004480:	00100513          	li	a0,1
    80004484:	00a58633          	add	a2,a1,a0
    80004488:	00a00813          	li	a6,10
    8000448c:	03000313          	li	t1,48
    80004490:	0340006f          	j	800044c4 <int2str+0x70>
    80004494:	00100713          	li	a4,1
    80004498:	00000893          	li	a7,0
    8000449c:	00000513          	li	a0,0
    800044a0:	fe5ff06f          	j	80004484 <int2str+0x30>
    800044a4:	0306e7bb          	remw	a5,a3,a6
    800044a8:	0307879b          	addiw	a5,a5,48
    800044ac:	0ff7f793          	zext.b	a5,a5
    800044b0:	00f60023          	sb	a5,0(a2)
    800044b4:	0015051b          	addiw	a0,a0,1
    800044b8:	0306c6bb          	divw	a3,a3,a6
    800044bc:	00160613          	addi	a2,a2,1
    800044c0:	00068c63          	beqz	a3,800044d8 <int2str+0x84>
    800044c4:	fe0880e3          	beqz	a7,800044a4 <int2str+0x50>
    800044c8:	0306e7bb          	remw	a5,a3,a6
    800044cc:	40f307bb          	subw	a5,t1,a5
    800044d0:	0ff7f793          	zext.b	a5,a5
    800044d4:	fddff06f          	j	800044b0 <int2str+0x5c>
    800044d8:	0008879b          	sext.w	a5,a7
    800044dc:	00a8863b          	addw	a2,a7,a0
    800044e0:	01f6569b          	srliw	a3,a2,0x1f
    800044e4:	00c686bb          	addw	a3,a3,a2
    800044e8:	4016d69b          	sraiw	a3,a3,0x1
    800044ec:	0006861b          	sext.w	a2,a3
    800044f0:	04c7d663          	bge	a5,a2,8000453c <int2str+0xe8>
    800044f4:	01170733          	add	a4,a4,a7
    800044f8:	40e50733          	sub	a4,a0,a4
    800044fc:	00e58733          	add	a4,a1,a4
    80004500:	011587b3          	add	a5,a1,a7
    80004504:	00158813          	addi	a6,a1,1
    80004508:	01180833          	add	a6,a6,a7
    8000450c:	411686bb          	subw	a3,a3,a7
    80004510:	fff6869b          	addiw	a3,a3,-1
    80004514:	02069693          	slli	a3,a3,0x20
    80004518:	0206d693          	srli	a3,a3,0x20
    8000451c:	00d80833          	add	a6,a6,a3
    80004520:	00074683          	lbu	a3,0(a4)
    80004524:	0007c603          	lbu	a2,0(a5)
    80004528:	00c70023          	sb	a2,0(a4)
    8000452c:	00d78023          	sb	a3,0(a5)
    80004530:	fff70713          	addi	a4,a4,-1
    80004534:	00178793          	addi	a5,a5,1
    80004538:	ff0794e3          	bne	a5,a6,80004520 <int2str+0xcc>
    8000453c:	00a585b3          	add	a1,a1,a0
    80004540:	00058023          	sb	zero,0(a1)
    80004544:	00008067          	ret

0000000080004548 <printf>:
    80004548:	d6010113          	addi	sp,sp,-672
    8000454c:	24113c23          	sd	ra,600(sp)
    80004550:	24813823          	sd	s0,592(sp)
    80004554:	24913423          	sd	s1,584(sp)
    80004558:	25213023          	sd	s2,576(sp)
    8000455c:	23313c23          	sd	s3,568(sp)
    80004560:	23413823          	sd	s4,560(sp)
    80004564:	23513423          	sd	s5,552(sp)
    80004568:	23613023          	sd	s6,544(sp)
    8000456c:	21713c23          	sd	s7,536(sp)
    80004570:	21813823          	sd	s8,528(sp)
    80004574:	21913423          	sd	s9,520(sp)
    80004578:	21a13023          	sd	s10,512(sp)
    8000457c:	00050a13          	mv	s4,a0
    80004580:	26b13423          	sd	a1,616(sp)
    80004584:	26c13823          	sd	a2,624(sp)
    80004588:	26d13c23          	sd	a3,632(sp)
    8000458c:	28e13023          	sd	a4,640(sp)
    80004590:	28f13423          	sd	a5,648(sp)
    80004594:	29013823          	sd	a6,656(sp)
    80004598:	29113c23          	sd	a7,664(sp)
    8000459c:	26810793          	addi	a5,sp,616
    800045a0:	1ef13c23          	sd	a5,504(sp)
    800045a4:	164000ef          	jal	ra,80004708 <strlen>
    800045a8:	10050c63          	beqz	a0,800046c0 <printf+0x178>
    800045ac:	00050b13          	mv	s6,a0
    800045b0:	00000993          	li	s3,0
    800045b4:	00000413          	li	s0,0
    800045b8:	00000913          	li	s2,0
    800045bc:	02500a93          	li	s5,37
    800045c0:	06400c13          	li	s8,100
    800045c4:	07300c93          	li	s9,115
    800045c8:	00100d13          	li	s10,1
    800045cc:	0b00006f          	j	8000467c <printf+0x134>
    800045d0:	1f813783          	ld	a5,504(sp)
    800045d4:	00878713          	addi	a4,a5,8
    800045d8:	1ee13c23          	sd	a4,504(sp)
    800045dc:	00010593          	mv	a1,sp
    800045e0:	0007a503          	lw	a0,0(a5)
    800045e4:	e71ff0ef          	jal	ra,80004454 <int2str>
    800045e8:	02a05a63          	blez	a0,8000461c <printf+0xd4>
    800045ec:	00010413          	mv	s0,sp
    800045f0:	0005091b          	sext.w	s2,a0
    800045f4:	fff5049b          	addiw	s1,a0,-1
    800045f8:	02049493          	slli	s1,s1,0x20
    800045fc:	0204d493          	srli	s1,s1,0x20
    80004600:	00110793          	addi	a5,sp,1
    80004604:	00f484b3          	add	s1,s1,a5
    80004608:	00044503          	lbu	a0,0(s0)
    8000460c:	ab5ff0ef          	jal	ra,800040c0 <putch>
    80004610:	00140413          	addi	s0,s0,1
    80004614:	fe849ae3          	bne	s1,s0,80004608 <printf+0xc0>
    80004618:	012989bb          	addw	s3,s3,s2
    8000461c:	000b8413          	mv	s0,s7
    80004620:	0500006f          	j	80004670 <printf+0x128>
    80004624:	1f813783          	ld	a5,504(sp)
    80004628:	00878713          	addi	a4,a5,8
    8000462c:	1ee13c23          	sd	a4,504(sp)
    80004630:	0007b483          	ld	s1,0(a5)
    80004634:	0004c503          	lbu	a0,0(s1)
    80004638:	08050063          	beqz	a0,800046b8 <printf+0x170>
    8000463c:	00048413          	mv	s0,s1
    80004640:	409d04bb          	subw	s1,s10,s1
    80004644:	013484bb          	addw	s1,s1,s3
    80004648:	a79ff0ef          	jal	ra,800040c0 <putch>
    8000464c:	008489bb          	addw	s3,s1,s0
    80004650:	00140413          	addi	s0,s0,1
    80004654:	00044503          	lbu	a0,0(s0)
    80004658:	fe0518e3          	bnez	a0,80004648 <printf+0x100>
    8000465c:	000b8413          	mv	s0,s7
    80004660:	0100006f          	j	80004670 <printf+0x128>
    80004664:	0004c503          	lbu	a0,0(s1)
    80004668:	a59ff0ef          	jal	ra,800040c0 <putch>
    8000466c:	0019899b          	addiw	s3,s3,1
    80004670:	0014041b          	addiw	s0,s0,1
    80004674:	00040913          	mv	s2,s0
    80004678:	05647a63          	bgeu	s0,s6,800046cc <printf+0x184>
    8000467c:	012a04b3          	add	s1,s4,s2
    80004680:	0004c783          	lbu	a5,0(s1)
    80004684:	ff5790e3          	bne	a5,s5,80004664 <printf+0x11c>
    80004688:	00140b9b          	addiw	s7,s0,1
    8000468c:	000a0513          	mv	a0,s4
    80004690:	078000ef          	jal	ra,80004708 <strlen>
    80004694:	fcabf8e3          	bgeu	s7,a0,80004664 <printf+0x11c>
    80004698:	0014c783          	lbu	a5,1(s1)
    8000469c:	f3878ae3          	beq	a5,s8,800045d0 <printf+0x88>
    800046a0:	f99782e3          	beq	a5,s9,80004624 <printf+0xdc>
    800046a4:	03579263          	bne	a5,s5,800046c8 <printf+0x180>
    800046a8:	000a8513          	mv	a0,s5
    800046ac:	a15ff0ef          	jal	ra,800040c0 <putch>
    800046b0:	000b8413          	mv	s0,s7
    800046b4:	fbdff06f          	j	80004670 <printf+0x128>
    800046b8:	000b8413          	mv	s0,s7
    800046bc:	fb5ff06f          	j	80004670 <printf+0x128>
    800046c0:	00000993          	li	s3,0
    800046c4:	0080006f          	j	800046cc <printf+0x184>
    800046c8:	fff00993          	li	s3,-1
    800046cc:	00098513          	mv	a0,s3
    800046d0:	25813083          	ld	ra,600(sp)
    800046d4:	25013403          	ld	s0,592(sp)
    800046d8:	24813483          	ld	s1,584(sp)
    800046dc:	24013903          	ld	s2,576(sp)
    800046e0:	23813983          	ld	s3,568(sp)
    800046e4:	23013a03          	ld	s4,560(sp)
    800046e8:	22813a83          	ld	s5,552(sp)
    800046ec:	22013b03          	ld	s6,544(sp)
    800046f0:	21813b83          	ld	s7,536(sp)
    800046f4:	21013c03          	ld	s8,528(sp)
    800046f8:	20813c83          	ld	s9,520(sp)
    800046fc:	20013d03          	ld	s10,512(sp)
    80004700:	2a010113          	addi	sp,sp,672
    80004704:	00008067          	ret

0000000080004708 <strlen>:
    80004708:	00050713          	mv	a4,a0
    8000470c:	00054783          	lbu	a5,0(a0)
    80004710:	00078e63          	beqz	a5,8000472c <strlen+0x24>
    80004714:	00000513          	li	a0,0
    80004718:	00150513          	addi	a0,a0,1
    8000471c:	00a707b3          	add	a5,a4,a0
    80004720:	0007c783          	lbu	a5,0(a5)
    80004724:	fe079ae3          	bnez	a5,80004718 <strlen+0x10>
    80004728:	00008067          	ret
    8000472c:	00000513          	li	a0,0
    80004730:	00008067          	ret

0000000080004734 <memmove>:
    80004734:	fe010113          	addi	sp,sp,-32
    80004738:	00113c23          	sd	ra,24(sp)
    8000473c:	00813823          	sd	s0,16(sp)
    80004740:	00913423          	sd	s1,8(sp)
    80004744:	01213023          	sd	s2,0(sp)
    80004748:	00050913          	mv	s2,a0
    8000474c:	00058493          	mv	s1,a1
    80004750:	00060413          	mv	s0,a2
    80004754:	00060513          	mv	a0,a2
    80004758:	0bc000ef          	jal	ra,80004814 <malloc>
    8000475c:	04040263          	beqz	s0,800047a0 <memmove+0x6c>
    80004760:	00048713          	mv	a4,s1
    80004764:	00050793          	mv	a5,a0
    80004768:	008485b3          	add	a1,s1,s0
    8000476c:	00050693          	mv	a3,a0
    80004770:	00074803          	lbu	a6,0(a4)
    80004774:	01068023          	sb	a6,0(a3)
    80004778:	00170713          	addi	a4,a4,1
    8000477c:	00168693          	addi	a3,a3,1
    80004780:	feb718e3          	bne	a4,a1,80004770 <memmove+0x3c>
    80004784:	00090713          	mv	a4,s2
    80004788:	00850633          	add	a2,a0,s0
    8000478c:	0007c683          	lbu	a3,0(a5)
    80004790:	00d70023          	sb	a3,0(a4)
    80004794:	00178793          	addi	a5,a5,1
    80004798:	00170713          	addi	a4,a4,1
    8000479c:	fec798e3          	bne	a5,a2,8000478c <memmove+0x58>
    800047a0:	100000ef          	jal	ra,800048a0 <free>
    800047a4:	00090513          	mv	a0,s2
    800047a8:	01813083          	ld	ra,24(sp)
    800047ac:	01013403          	ld	s0,16(sp)
    800047b0:	00813483          	ld	s1,8(sp)
    800047b4:	00013903          	ld	s2,0(sp)
    800047b8:	02010113          	addi	sp,sp,32
    800047bc:	00008067          	ret

00000000800047c0 <memcpy>:
    800047c0:	ff010113          	addi	sp,sp,-16
    800047c4:	00113423          	sd	ra,8(sp)
    800047c8:	f6dff0ef          	jal	ra,80004734 <memmove>
    800047cc:	00813083          	ld	ra,8(sp)
    800047d0:	01010113          	addi	sp,sp,16
    800047d4:	00008067          	ret

00000000800047d8 <memcmp>:
    800047d8:	02060a63          	beqz	a2,8000480c <memcmp+0x34>
    800047dc:	00050793          	mv	a5,a0
    800047e0:	00c506b3          	add	a3,a0,a2
    800047e4:	0007c503          	lbu	a0,0(a5)
    800047e8:	0005c703          	lbu	a4,0(a1)
    800047ec:	00e51c63          	bne	a0,a4,80004804 <memcmp+0x2c>
    800047f0:	00178793          	addi	a5,a5,1
    800047f4:	00158593          	addi	a1,a1,1
    800047f8:	fed796e3          	bne	a5,a3,800047e4 <memcmp+0xc>
    800047fc:	00000513          	li	a0,0
    80004800:	00008067          	ret
    80004804:	40e5053b          	subw	a0,a0,a4
    80004808:	00008067          	ret
    8000480c:	00000513          	li	a0,0
    80004810:	00008067          	ret

0000000080004814 <malloc>:
    80004814:	ff010113          	addi	sp,sp,-16
    80004818:	00113423          	sd	ra,8(sp)
    8000481c:	00813023          	sd	s0,0(sp)
    80004820:	00050413          	mv	s0,a0
    80004824:	00176797          	auipc	a5,0x176
    80004828:	6947b783          	ld	a5,1684(a5) # 8017aeb8 <last>
    8000482c:	04078663          	beqz	a5,80004878 <malloc+0x64>
    80004830:	00740793          	addi	a5,s0,7
    80004834:	ff87f793          	andi	a5,a5,-8
    80004838:	00176717          	auipc	a4,0x176
    8000483c:	68070713          	addi	a4,a4,1664 # 8017aeb8 <last>
    80004840:	00073503          	ld	a0,0(a4)
    80004844:	00873683          	ld	a3,8(a4)
    80004848:	00d50533          	add	a0,a0,a3
    8000484c:	00a73023          	sd	a0,0(a4)
    80004850:	00f50733          	add	a4,a0,a5
    80004854:	0000b697          	auipc	a3,0xb
    80004858:	9746b683          	ld	a3,-1676(a3) # 8000f1c8 <heap+0x8>
    8000485c:	02d77e63          	bgeu	a4,a3,80004898 <malloc+0x84>
    80004860:	00176717          	auipc	a4,0x176
    80004864:	66f73023          	sd	a5,1632(a4) # 8017aec0 <last+0x8>
    80004868:	00813083          	ld	ra,8(sp)
    8000486c:	00013403          	ld	s0,0(sp)
    80004870:	01010113          	addi	sp,sp,16
    80004874:	00008067          	ret
    80004878:	0000b597          	auipc	a1,0xb
    8000487c:	9485b583          	ld	a1,-1720(a1) # 8000f1c0 <heap>
    80004880:	00176797          	auipc	a5,0x176
    80004884:	62b7bc23          	sd	a1,1592(a5) # 8017aeb8 <last>
    80004888:	00001517          	auipc	a0,0x1
    8000488c:	90850513          	addi	a0,a0,-1784 # 80005190 <cpu_zn_flag_table+0x2a8>
    80004890:	cb9ff0ef          	jal	ra,80004548 <printf>
    80004894:	f9dff06f          	j	80004830 <malloc+0x1c>
    80004898:	00000513          	li	a0,0
    8000489c:	fcdff06f          	j	80004868 <malloc+0x54>

00000000800048a0 <free>:
    800048a0:	00176797          	auipc	a5,0x176
    800048a4:	6187b783          	ld	a5,1560(a5) # 8017aeb8 <last>
    800048a8:	00a78463          	beq	a5,a0,800048b0 <free+0x10>
    800048ac:	00008067          	ret
    800048b0:	00176797          	auipc	a5,0x176
    800048b4:	6007b823          	sd	zero,1552(a5) # 8017aec0 <last+0x8>
    800048b8:	ff5ff06f          	j	800048ac <free+0xc>
