
/Users/porterlu/SUSTemu/litenes/build/litenes-riscv64-nemu.elf:     file format elf64-littleriscv


Disassembly of section .text:

0000000080000000 <_start>:
    80000000:	00000413          	li	s0,0
    80000004:	00184117          	auipc	sp,0x184
    80000008:	ffc10113          	add	sp,sp,-4 # 80184000 <_end>
    8000000c:	784040ef          	jal	80004790 <_trm_init>

0000000080000010 <common_bit_set>:
    80000010:	00100793          	li	a5,1
    80000014:	00b797b3          	sll	a5,a5,a1
    80000018:	00a7f533          	and	a0,a5,a0
    8000001c:	00a03533          	snez	a0,a0
    80000020:	00008067          	ret

0000000080000024 <common_set_bitb>:
    80000024:	00054783          	lbu	a5,0(a0)
    80000028:	00100713          	li	a4,1
    8000002c:	00b71733          	sll	a4,a4,a1
    80000030:	00e7e7b3          	or	a5,a5,a4
    80000034:	00f50023          	sb	a5,0(a0)
    80000038:	00008067          	ret

000000008000003c <common_unset_bitb>:
    8000003c:	00054703          	lbu	a4,0(a0)
    80000040:	00100793          	li	a5,1
    80000044:	00b797b3          	sll	a5,a5,a1
    80000048:	fff7c793          	not	a5,a5
    8000004c:	00e7f7b3          	and	a5,a5,a4
    80000050:	00f50023          	sb	a5,0(a0)
    80000054:	00008067          	ret

0000000080000058 <common_modify_bitb>:
    80000058:	00100713          	li	a4,1
    8000005c:	00054783          	lbu	a5,0(a0)
    80000060:	00b71733          	sll	a4,a4,a1
    80000064:	00060a63          	beqz	a2,80000078 <common_modify_bitb+0x20>
    80000068:	00e7e7b3          	or	a5,a5,a4
    8000006c:	0ff7f793          	zext.b	a5,a5
    80000070:	00f50023          	sb	a5,0(a0)
    80000074:	00008067          	ret
    80000078:	fff74713          	not	a4,a4
    8000007c:	00e7f7b3          	and	a5,a5,a4
    80000080:	00f50023          	sb	a5,0(a0)
    80000084:	00008067          	ret

0000000080000088 <ppu_generates_nmi>:
    80000088:	00700593          	li	a1,7
    8000008c:	00124517          	auipc	a0,0x124
    80000090:	b0454503          	lbu	a0,-1276(a0) # 80123b90 <ppu>
    80000094:	f7dff06f          	j	80000010 <common_bit_set>

0000000080000098 <ppu_ram_read>:
    80000098:	00004737          	lui	a4,0x4
    8000009c:	eff70713          	add	a4,a4,-257 # 3eff <_entry_offset+0x3eff>
    800000a0:	0005079b          	sext.w	a5,a0
    800000a4:	000046b7          	lui	a3,0x4
    800000a8:	00a76c63          	bltu	a4,a0,800000c0 <ppu_ram_read+0x28>
    800000ac:	00120717          	auipc	a4,0x120
    800000b0:	9e470713          	add	a4,a4,-1564 # 8011fa90 <PPU_RAM>
    800000b4:	00f707b3          	add	a5,a4,a5
    800000b8:	0007c503          	lbu	a0,0(a5)
    800000bc:	00008067          	ret
    800000c0:	04d7f463          	bgeu	a5,a3,80000108 <ppu_ram_read+0x70>
    800000c4:	00004737          	lui	a4,0x4
    800000c8:	f0070713          	add	a4,a4,-256 # 3f00 <_entry_offset+0x3f00>
    800000cc:	01f57513          	and	a0,a0,31
    800000d0:	ffffc7b7          	lui	a5,0xffffc
    800000d4:	1007879b          	addw	a5,a5,256 # ffffffffffffc100 <_end+0xffffffff7fe78100>
    800000d8:	00e56533          	or	a0,a0,a4
    800000dc:	00f5073b          	addw	a4,a0,a5
    800000e0:	111107b7          	lui	a5,0x11110
    800000e4:	00e7d7b3          	srl	a5,a5,a4
    800000e8:	0017f793          	and	a5,a5,1
    800000ec:	02079c63          	bnez	a5,80000124 <ppu_ram_read+0x8c>
    800000f0:	0005079b          	sext.w	a5,a0
    800000f4:	00120717          	auipc	a4,0x120
    800000f8:	99c70713          	add	a4,a4,-1636 # 8011fa90 <PPU_RAM>
    800000fc:	00f707b3          	add	a5,a4,a5
    80000100:	0007c503          	lbu	a0,0(a5) # 11110000 <_entry_offset+0x11110000>
    80000104:	00008067          	ret
    80000108:	000107b7          	lui	a5,0x10
    8000010c:	00120717          	auipc	a4,0x120
    80000110:	98470713          	add	a4,a4,-1660 # 8011fa90 <PPU_RAM>
    80000114:	fff78793          	add	a5,a5,-1 # ffff <_entry_offset+0xffff>
    80000118:	00f707b3          	add	a5,a4,a5
    8000011c:	0007c503          	lbu	a0,0(a5)
    80000120:	00008067          	ret
    80000124:	ff05051b          	addw	a0,a0,-16
    80000128:	03051793          	sll	a5,a0,0x30
    8000012c:	00120717          	auipc	a4,0x120
    80000130:	96470713          	add	a4,a4,-1692 # 8011fa90 <PPU_RAM>
    80000134:	0307d793          	srl	a5,a5,0x30
    80000138:	00f707b3          	add	a5,a4,a5
    8000013c:	0007c503          	lbu	a0,0(a5)
    80000140:	00008067          	ret

0000000080000144 <ppu_draw_background_scanline>:
    80000144:	f7010113          	add	sp,sp,-144
    80000148:	08813023          	sd	s0,128(sp)
    8000014c:	07213823          	sd	s2,112(sp)
    80000150:	07313423          	sd	s3,104(sp)
    80000154:	07413023          	sd	s4,96(sp)
    80000158:	05513c23          	sd	s5,88(sp)
    8000015c:	05613823          	sd	s6,80(sp)
    80000160:	05713423          	sd	s7,72(sp)
    80000164:	05813023          	sd	s8,64(sp)
    80000168:	03913c23          	sd	s9,56(sp)
    8000016c:	03a13823          	sd	s10,48(sp)
    80000170:	08113423          	sd	ra,136(sp)
    80000174:	06913c23          	sd	s1,120(sp)
    80000178:	03b13423          	sd	s11,40(sp)
    8000017c:	00124c17          	auipc	s8,0x124
    80000180:	a14c0c13          	add	s8,s8,-1516 # 80123b90 <ppu>
    80000184:	00050d13          	mv	s10,a0
    80000188:	001c4503          	lbu	a0,1(s8)
    8000018c:	00100593          	li	a1,1
    80000190:	01a13c23          	sd	s10,24(sp)
    80000194:	e7dff0ef          	jal	80000010 <common_bit_set>
    80000198:	00154c93          	xor	s9,a0,1
    8000019c:	0ffcfc93          	zext.b	s9,s9
    800001a0:	008d1793          	sll	a5,s10,0x8
    800001a4:	00ad199b          	sllw	s3,s10,0xa
    800001a8:	001c8b9b          	addw	s7,s9,1
    800001ac:	00010ab7          	lui	s5,0x10
    800001b0:	003b931b          	sllw	t1,s7,0x3
    800001b4:	00004937          	lui	s2,0x4
    800001b8:	00004a37          	lui	s4,0x4
    800001bc:	00f13823          	sd	a5,16(sp)
    800001c0:	03099993          	sll	s3,s3,0x30
    800001c4:	fffa8793          	add	a5,s5,-1 # ffff <_entry_offset+0xffff>
    800001c8:	0309d993          	srl	s3,s3,0x30
    800001cc:	003c9413          	sll	s0,s9,0x3
    800001d0:	00030d1b          	sext.w	s10,t1
    800001d4:	00005b17          	auipc	s6,0x5
    800001d8:	4d4b0b13          	add	s6,s6,1236 # 800056a8 <ppu_base_nametable_addresses>
    800001dc:	eff90913          	add	s2,s2,-257 # 3eff <_entry_offset+0x3eff>
    800001e0:	f00a0a1b          	addw	s4,s4,-256 # 3f00 <_entry_offset+0x3f00>
    800001e4:	00f13423          	sd	a5,8(sp)
    800001e8:	01813703          	ld	a4,24(sp)
    800001ec:	008c4783          	lbu	a5,8(s8)
    800001f0:	22071063          	bnez	a4,80000410 <ppu_draw_background_scanline+0x2cc>
    800001f4:	000c4503          	lbu	a0,0(s8)
    800001f8:	020c2783          	lw	a5,32(s8)
    800001fc:	00004637          	lui	a2,0x4
    80000200:	00357713          	and	a4,a0,3
    80000204:	00171713          	sll	a4,a4,0x1
    80000208:	00eb0733          	add	a4,s6,a4
    8000020c:	00075703          	lhu	a4,0(a4)
    80000210:	4037d79b          	sraw	a5,a5,0x3
    80000214:	0057979b          	sllw	a5,a5,0x5
    80000218:	00e787bb          	addw	a5,a5,a4
    8000021c:	013787bb          	addw	a5,a5,s3
    80000220:	019787bb          	addw	a5,a5,s9
    80000224:	03079793          	sll	a5,a5,0x30
    80000228:	0307d793          	srl	a5,a5,0x30
    8000022c:	0007871b          	sext.w	a4,a5
    80000230:	20f96063          	bltu	s2,a5,80000430 <ppu_draw_background_scanline+0x2ec>
    80000234:	00120a97          	auipc	s5,0x120
    80000238:	85ca8a93          	add	s5,s5,-1956 # 8011fa90 <PPU_RAM>
    8000023c:	00ea87b3          	add	a5,s5,a4
    80000240:	00400593          	li	a1,4
    80000244:	0007c483          	lbu	s1,0(a5)
    80000248:	dc9ff0ef          	jal	80000010 <common_bit_set>
    8000024c:	020c2703          	lw	a4,32(s8)
    80000250:	00c5179b          	sllw	a5,a0,0xc
    80000254:	0044949b          	sllw	s1,s1,0x4
    80000258:	00777713          	and	a4,a4,7
    8000025c:	00e787bb          	addw	a5,a5,a4
    80000260:	009787bb          	addw	a5,a5,s1
    80000264:	03079793          	sll	a5,a5,0x30
    80000268:	0307d793          	srl	a5,a5,0x30
    8000026c:	0087871b          	addw	a4,a5,8
    80000270:	03071713          	sll	a4,a4,0x30
    80000274:	03075713          	srl	a4,a4,0x30
    80000278:	00fa87b3          	add	a5,s5,a5
    8000027c:	0007c783          	lbu	a5,0(a5)
    80000280:	00ea8733          	add	a4,s5,a4
    80000284:	00074603          	lbu	a2,0(a4)
    80000288:	402cd49b          	sraw	s1,s9,0x2
    8000028c:	00879713          	sll	a4,a5,0x8
    80000290:	03049493          	sll	s1,s1,0x30
    80000294:	00c70733          	add	a4,a4,a2
    80000298:	002cfc93          	and	s9,s9,2
    8000029c:	0304d493          	srl	s1,s1,0x30
    800002a0:	00371713          	sll	a4,a4,0x3
    800002a4:	00090797          	auipc	a5,0x90
    800002a8:	82c78793          	add	a5,a5,-2004 # 8008fad0 <ppu_l_h_addition_table>
    800002ac:	1a0c8c63          	beqz	s9,80000464 <ppu_draw_background_scanline+0x320>
    800002b0:	00f70cb3          	add	s9,a4,a5
    800002b4:	00040d93          	mv	s11,s0
    800002b8:	0b80006f          	j	80000370 <ppu_draw_background_scanline+0x22c>
    800002bc:	00aa8533          	add	a0,s5,a0
    800002c0:	00f00713          	li	a4,15
    800002c4:	00054783          	lbu	a5,0(a0)
    800002c8:	00c75463          	bge	a4,a2,800002d0 <ppu_draw_background_scanline+0x18c>
    800002cc:	0047d793          	srl	a5,a5,0x4
    800002d0:	0027d793          	srl	a5,a5,0x2
    800002d4:	0037f793          	and	a5,a5,3
    800002d8:	0148863b          	addw	a2,a7,s4
    800002dc:	0027979b          	sllw	a5,a5,0x2
    800002e0:	00c787bb          	addw	a5,a5,a2
    800002e4:	03079793          	sll	a5,a5,0x30
    800002e8:	0307d793          	srl	a5,a5,0x30
    800002ec:	00004737          	lui	a4,0x4
    800002f0:	00813603          	ld	a2,8(sp)
    800002f4:	02e7f663          	bgeu	a5,a4,80000320 <ppu_draw_background_scanline+0x1dc>
    800002f8:	00004637          	lui	a2,0x4
    800002fc:	f0060613          	add	a2,a2,-256 # 3f00 <_entry_offset+0x3f00>
    80000300:	01f7f793          	and	a5,a5,31
    80000304:	00c7e7b3          	or	a5,a5,a2
    80000308:	4147853b          	subw	a0,a5,s4
    8000030c:	11110637          	lui	a2,0x11110
    80000310:	00a65633          	srl	a2,a2,a0
    80000314:	00167613          	and	a2,a2,1
    80000318:	30061863          	bnez	a2,80000628 <ppu_draw_background_scanline+0x4e4>
    8000031c:	0007861b          	sext.w	a2,a5
    80000320:	000d851b          	sext.w	a0,s11
    80000324:	00551793          	sll	a5,a0,0x5
    80000328:	40a787b3          	sub	a5,a5,a0
    8000032c:	0010f717          	auipc	a4,0x10f
    80000330:	7a470713          	add	a4,a4,1956 # 8010fad0 <ppu_screen_background>
    80000334:	008c4e83          	lbu	t4,8(s8)
    80000338:	00379793          	sll	a5,a5,0x3
    8000033c:	00f707b3          	add	a5,a4,a5
    80000340:	00ca8633          	add	a2,s5,a2
    80000344:	01013703          	ld	a4,16(sp)
    80000348:	00064603          	lbu	a2,0(a2) # 11110000 <_entry_offset+0x11110000>
    8000034c:	41d5053b          	subw	a0,a0,t4
    80000350:	00b787b3          	add	a5,a5,a1
    80000354:	00e5053b          	addw	a0,a0,a4
    80000358:	0015859b          	addw	a1,a1,1
    8000035c:	01178023          	sb	a7,0(a5)
    80000360:	7c1030ef          	jal	80004320 <draw>
    80000364:	001d8d9b          	addw	s11,s11,1
    80000368:	001c8c93          	add	s9,s9,1
    8000036c:	0bbd0463          	beq	s10,s11,80000414 <ppu_draw_background_scanline+0x2d0>
    80000370:	000cc883          	lbu	a7,0(s9)
    80000374:	fe0888e3          	beqz	a7,80000364 <ppu_draw_background_scanline+0x220>
    80000378:	000c4783          	lbu	a5,0(s8)
    8000037c:	020c2583          	lw	a1,32(s8)
    80000380:	0037f793          	and	a5,a5,3
    80000384:	00179793          	sll	a5,a5,0x1
    80000388:	00fb07b3          	add	a5,s6,a5
    8000038c:	0007d603          	lhu	a2,0(a5)
    80000390:	4055d79b          	sraw	a5,a1,0x5
    80000394:	0037979b          	sllw	a5,a5,0x3
    80000398:	00c787bb          	addw	a5,a5,a2
    8000039c:	3c07879b          	addw	a5,a5,960
    800003a0:	013787bb          	addw	a5,a5,s3
    800003a4:	41f5d51b          	sraw	a0,a1,0x1f
    800003a8:	009787bb          	addw	a5,a5,s1
    800003ac:	01b5551b          	srlw	a0,a0,0x1b
    800003b0:	03079793          	sll	a5,a5,0x30
    800003b4:	00b5063b          	addw	a2,a0,a1
    800003b8:	0307d793          	srl	a5,a5,0x30
    800003bc:	01f67613          	and	a2,a2,31
    800003c0:	00078e9b          	sext.w	t4,a5
    800003c4:	40a6063b          	subw	a2,a2,a0
    800003c8:	000e8513          	mv	a0,t4
    800003cc:	eef978e3          	bgeu	s2,a5,800002bc <ppu_draw_background_scanline+0x178>
    800003d0:	00004737          	lui	a4,0x4
    800003d4:	00813503          	ld	a0,8(sp)
    800003d8:	eeeef2e3          	bgeu	t4,a4,800002bc <ppu_draw_background_scanline+0x178>
    800003dc:	00004eb7          	lui	t4,0x4
    800003e0:	f00e8e93          	add	t4,t4,-256 # 3f00 <_entry_offset+0x3f00>
    800003e4:	01f7f793          	and	a5,a5,31
    800003e8:	ffffc537          	lui	a0,0xffffc
    800003ec:	1005051b          	addw	a0,a0,256 # ffffffffffffc100 <_end+0xffffffff7fe78100>
    800003f0:	01d7e7b3          	or	a5,a5,t4
    800003f4:	00a78ebb          	addw	t4,a5,a0
    800003f8:	11110537          	lui	a0,0x11110
    800003fc:	01d55533          	srl	a0,a0,t4
    80000400:	00157513          	and	a0,a0,1
    80000404:	20051a63          	bnez	a0,80000618 <ppu_draw_background_scanline+0x4d4>
    80000408:	0007851b          	sext.w	a0,a5
    8000040c:	eb1ff06f          	j	800002bc <ppu_draw_background_scanline+0x178>
    80000410:	de87d2e3          	bge	a5,s0,800001f4 <ppu_draw_background_scanline+0xb0>
    80000414:	000b8c9b          	sext.w	s9,s7
    80000418:	02000793          	li	a5,32
    8000041c:	0084041b          	addw	s0,s0,8
    80000420:	008d0d1b          	addw	s10,s10,8
    80000424:	1afc8c63          	beq	s9,a5,800005dc <ppu_draw_background_scanline+0x498>
    80000428:	001c8b9b          	addw	s7,s9,1
    8000042c:	dbdff06f          	j	800001e8 <ppu_draw_background_scanline+0xa4>
    80000430:	20c77463          	bgeu	a4,a2,80000638 <ppu_draw_background_scanline+0x4f4>
    80000434:	f0060613          	add	a2,a2,-256
    80000438:	01f7f793          	and	a5,a5,31
    8000043c:	ffffc737          	lui	a4,0xffffc
    80000440:	1007071b          	addw	a4,a4,256 # ffffffffffffc100 <_end+0xffffffff7fe78100>
    80000444:	00c7e7b3          	or	a5,a5,a2
    80000448:	00e7863b          	addw	a2,a5,a4
    8000044c:	11110737          	lui	a4,0x11110
    80000450:	00c75733          	srl	a4,a4,a2
    80000454:	00177713          	and	a4,a4,1
    80000458:	1e071663          	bnez	a4,80000644 <ppu_draw_background_scanline+0x500>
    8000045c:	0007871b          	sext.w	a4,a5
    80000460:	dd5ff06f          	j	80000234 <ppu_draw_background_scanline+0xf0>
    80000464:	00f70cb3          	add	s9,a4,a5
    80000468:	00040d93          	mv	s11,s0
    8000046c:	0880006f          	j	800004f4 <ppu_draw_background_scanline+0x3b0>
    80000470:	00004637          	lui	a2,0x4
    80000474:	f0060613          	add	a2,a2,-256 # 3f00 <_entry_offset+0x3f00>
    80000478:	01f7f793          	and	a5,a5,31
    8000047c:	00c7e7b3          	or	a5,a5,a2
    80000480:	4147863b          	subw	a2,a5,s4
    80000484:	11110537          	lui	a0,0x11110
    80000488:	00c55533          	srl	a0,a0,a2
    8000048c:	00157513          	and	a0,a0,1
    80000490:	0007861b          	sext.w	a2,a5
    80000494:	00050863          	beqz	a0,800004a4 <ppu_draw_background_scanline+0x360>
    80000498:	ff07879b          	addw	a5,a5,-16
    8000049c:	03079613          	sll	a2,a5,0x30
    800004a0:	03065613          	srl	a2,a2,0x30
    800004a4:	000d851b          	sext.w	a0,s11
    800004a8:	00551793          	sll	a5,a0,0x5
    800004ac:	40a787b3          	sub	a5,a5,a0
    800004b0:	0010f717          	auipc	a4,0x10f
    800004b4:	62070713          	add	a4,a4,1568 # 8010fad0 <ppu_screen_background>
    800004b8:	008c4e83          	lbu	t4,8(s8)
    800004bc:	00379793          	sll	a5,a5,0x3
    800004c0:	00f707b3          	add	a5,a4,a5
    800004c4:	00ca8633          	add	a2,s5,a2
    800004c8:	01013703          	ld	a4,16(sp)
    800004cc:	00064603          	lbu	a2,0(a2)
    800004d0:	41d5053b          	subw	a0,a0,t4
    800004d4:	00b787b3          	add	a5,a5,a1
    800004d8:	00e5053b          	addw	a0,a0,a4
    800004dc:	0015859b          	addw	a1,a1,1
    800004e0:	01178023          	sb	a7,0(a5)
    800004e4:	63d030ef          	jal	80004320 <draw>
    800004e8:	001d8d9b          	addw	s11,s11,1
    800004ec:	001c8c93          	add	s9,s9,1
    800004f0:	f3bd02e3          	beq	s10,s11,80000414 <ppu_draw_background_scanline+0x2d0>
    800004f4:	000cc883          	lbu	a7,0(s9)
    800004f8:	fe0888e3          	beqz	a7,800004e8 <ppu_draw_background_scanline+0x3a4>
    800004fc:	000c4783          	lbu	a5,0(s8)
    80000500:	020c2583          	lw	a1,32(s8)
    80000504:	0037f793          	and	a5,a5,3
    80000508:	00179793          	sll	a5,a5,0x1
    8000050c:	00fb07b3          	add	a5,s6,a5
    80000510:	0007d603          	lhu	a2,0(a5)
    80000514:	4055d79b          	sraw	a5,a1,0x5
    80000518:	0037979b          	sllw	a5,a5,0x3
    8000051c:	00c787bb          	addw	a5,a5,a2
    80000520:	3c07879b          	addw	a5,a5,960
    80000524:	41f5d51b          	sraw	a0,a1,0x1f
    80000528:	013787bb          	addw	a5,a5,s3
    8000052c:	01b5551b          	srlw	a0,a0,0x1b
    80000530:	009787bb          	addw	a5,a5,s1
    80000534:	00b5063b          	addw	a2,a0,a1
    80000538:	03079793          	sll	a5,a5,0x30
    8000053c:	0307d793          	srl	a5,a5,0x30
    80000540:	01f67613          	and	a2,a2,31
    80000544:	40a6063b          	subw	a2,a2,a0
    80000548:	0007851b          	sext.w	a0,a5
    8000054c:	04f96063          	bltu	s2,a5,8000058c <ppu_draw_background_scanline+0x448>
    80000550:	00aa8533          	add	a0,s5,a0
    80000554:	00f00713          	li	a4,15
    80000558:	00054783          	lbu	a5,0(a0) # 11110000 <_entry_offset+0x11110000>
    8000055c:	00c75463          	bge	a4,a2,80000564 <ppu_draw_background_scanline+0x420>
    80000560:	0047d793          	srl	a5,a5,0x4
    80000564:	0037f793          	and	a5,a5,3
    80000568:	0027979b          	sllw	a5,a5,0x2
    8000056c:	0148863b          	addw	a2,a7,s4
    80000570:	00c787bb          	addw	a5,a5,a2
    80000574:	03079793          	sll	a5,a5,0x30
    80000578:	0307d793          	srl	a5,a5,0x30
    8000057c:	00004737          	lui	a4,0x4
    80000580:	eee7e8e3          	bltu	a5,a4,80000470 <ppu_draw_background_scanline+0x32c>
    80000584:	00813603          	ld	a2,8(sp)
    80000588:	f1dff06f          	j	800004a4 <ppu_draw_background_scanline+0x360>
    8000058c:	00004737          	lui	a4,0x4
    80000590:	04e57263          	bgeu	a0,a4,800005d4 <ppu_draw_background_scanline+0x490>
    80000594:	00004eb7          	lui	t4,0x4
    80000598:	f00e8e93          	add	t4,t4,-256 # 3f00 <_entry_offset+0x3f00>
    8000059c:	01f7f793          	and	a5,a5,31
    800005a0:	ffffc537          	lui	a0,0xffffc
    800005a4:	01d7e7b3          	or	a5,a5,t4
    800005a8:	1005051b          	addw	a0,a0,256 # ffffffffffffc100 <_end+0xffffffff7fe78100>
    800005ac:	00a7853b          	addw	a0,a5,a0
    800005b0:	11110eb7          	lui	t4,0x11110
    800005b4:	00aedeb3          	srl	t4,t4,a0
    800005b8:	001efe93          	and	t4,t4,1
    800005bc:	0007851b          	sext.w	a0,a5
    800005c0:	f80e88e3          	beqz	t4,80000550 <ppu_draw_background_scanline+0x40c>
    800005c4:	ff07879b          	addw	a5,a5,-16
    800005c8:	03079513          	sll	a0,a5,0x30
    800005cc:	03055513          	srl	a0,a0,0x30
    800005d0:	f81ff06f          	j	80000550 <ppu_draw_background_scanline+0x40c>
    800005d4:	00813503          	ld	a0,8(sp)
    800005d8:	f79ff06f          	j	80000550 <ppu_draw_background_scanline+0x40c>
    800005dc:	08813083          	ld	ra,136(sp)
    800005e0:	08013403          	ld	s0,128(sp)
    800005e4:	07813483          	ld	s1,120(sp)
    800005e8:	07013903          	ld	s2,112(sp)
    800005ec:	06813983          	ld	s3,104(sp)
    800005f0:	06013a03          	ld	s4,96(sp)
    800005f4:	05813a83          	ld	s5,88(sp)
    800005f8:	05013b03          	ld	s6,80(sp)
    800005fc:	04813b83          	ld	s7,72(sp)
    80000600:	04013c03          	ld	s8,64(sp)
    80000604:	03813c83          	ld	s9,56(sp)
    80000608:	03013d03          	ld	s10,48(sp)
    8000060c:	02813d83          	ld	s11,40(sp)
    80000610:	09010113          	add	sp,sp,144
    80000614:	00008067          	ret
    80000618:	ff07879b          	addw	a5,a5,-16
    8000061c:	03079513          	sll	a0,a5,0x30
    80000620:	03055513          	srl	a0,a0,0x30
    80000624:	c99ff06f          	j	800002bc <ppu_draw_background_scanline+0x178>
    80000628:	ff07879b          	addw	a5,a5,-16
    8000062c:	03079613          	sll	a2,a5,0x30
    80000630:	03065613          	srl	a2,a2,0x30
    80000634:	cedff06f          	j	80000320 <ppu_draw_background_scanline+0x1dc>
    80000638:	00010737          	lui	a4,0x10
    8000063c:	fff70713          	add	a4,a4,-1 # ffff <_entry_offset+0xffff>
    80000640:	bf5ff06f          	j	80000234 <ppu_draw_background_scanline+0xf0>
    80000644:	ff07879b          	addw	a5,a5,-16
    80000648:	03079713          	sll	a4,a5,0x30
    8000064c:	03075713          	srl	a4,a4,0x30
    80000650:	be5ff06f          	j	80000234 <ppu_draw_background_scanline+0xf0>

0000000080000654 <ppu_draw_sprite_scanline>:
    80000654:	f7010113          	add	sp,sp,-144
    80000658:	000047b7          	lui	a5,0x4
    8000065c:	07313423          	sd	s3,104(sp)
    80000660:	f107879b          	addw	a5,a5,-240 # 3f10 <_entry_offset+0x3f10>
    80000664:	000109b7          	lui	s3,0x10
    80000668:	06913c23          	sd	s1,120(sp)
    8000066c:	07213823          	sd	s2,112(sp)
    80000670:	05713423          	sd	s7,72(sp)
    80000674:	03b13423          	sd	s11,40(sp)
    80000678:	08113423          	sd	ra,136(sp)
    8000067c:	08813023          	sd	s0,128(sp)
    80000680:	07413023          	sd	s4,96(sp)
    80000684:	05513c23          	sd	s5,88(sp)
    80000688:	05613823          	sd	s6,80(sp)
    8000068c:	05813023          	sd	s8,64(sp)
    80000690:	03913c23          	sd	s9,56(sp)
    80000694:	03a13823          	sd	s10,48(sp)
    80000698:	00123d97          	auipc	s11,0x123
    8000069c:	3f8d8d93          	add	s11,s11,1016 # 80123a90 <PPU_SPRRAM>
    800006a0:	00000b93          	li	s7,0
    800006a4:	00013823          	sd	zero,16(sp)
    800006a8:	00123497          	auipc	s1,0x123
    800006ac:	4e848493          	add	s1,s1,1256 # 80123b90 <ppu>
    800006b0:	0011f917          	auipc	s2,0x11f
    800006b4:	3e090913          	add	s2,s2,992 # 8011fa90 <PPU_RAM>
    800006b8:	00f12e23          	sw	a5,28(sp)
    800006bc:	fff98993          	add	s3,s3,-1 # ffff <_entry_offset+0xffff>
    800006c0:	0140006f          	j	800006d4 <ppu_draw_sprite_scanline+0x80>
    800006c4:	004b8b9b          	addw	s7,s7,4
    800006c8:	10000793          	li	a5,256
    800006cc:	004d8d93          	add	s11,s11,4
    800006d0:	3efb8063          	beq	s7,a5,80000ab0 <ppu_draw_sprite_scanline+0x45c>
    800006d4:	000dc403          	lbu	s0,0(s11)
    800006d8:	0204a783          	lw	a5,32(s1)
    800006dc:	00040d1b          	sext.w	s10,s0
    800006e0:	fe87c2e3          	blt	a5,s0,800006c4 <ppu_draw_sprite_scanline+0x70>
    800006e4:	0004c503          	lbu	a0,0(s1)
    800006e8:	00500593          	li	a1,5
    800006ec:	003dcb03          	lbu	s6,3(s11)
    800006f0:	921ff0ef          	jal	80000010 <common_bit_set>
    800006f4:	00800793          	li	a5,8
    800006f8:	00050463          	beqz	a0,80000700 <ppu_draw_sprite_scanline+0xac>
    800006fc:	01000793          	li	a5,16
    80000700:	0204a703          	lw	a4,32(s1)
    80000704:	00fd07b3          	add	a5,s10,a5
    80000708:	fae7cee3          	blt	a5,a4,800006c4 <ppu_draw_sprite_scanline+0x70>
    8000070c:	01013783          	ld	a5,16(sp)
    80000710:	0017879b          	addw	a5,a5,1
    80000714:	00078713          	mv	a4,a5
    80000718:	00f13823          	sd	a5,16(sp)
    8000071c:	00800793          	li	a5,8
    80000720:	24e7c663          	blt	a5,a4,8000096c <ppu_draw_sprite_scanline+0x318>
    80000724:	0004c503          	lbu	a0,0(s1)
    80000728:	00300593          	li	a1,3
    8000072c:	002dca03          	lbu	s4,2(s11)
    80000730:	8e1ff0ef          	jal	80000010 <common_bit_set>
    80000734:	001dc703          	lbu	a4,1(s11)
    80000738:	0204a783          	lw	a5,32(s1)
    8000073c:	00c5151b          	sllw	a0,a0,0xc
    80000740:	0047159b          	sllw	a1,a4,0x4
    80000744:	00a585bb          	addw	a1,a1,a0
    80000748:	018a171b          	sllw	a4,s4,0x18
    8000074c:	03059593          	sll	a1,a1,0x30
    80000750:	0077f613          	and	a2,a5,7
    80000754:	4187571b          	sraw	a4,a4,0x18
    80000758:	040a7c13          	and	s8,s4,64
    8000075c:	0305d593          	srl	a1,a1,0x30
    80000760:	00060793          	mv	a5,a2
    80000764:	00075a63          	bgez	a4,80000778 <ppu_draw_sprite_scanline+0x124>
    80000768:	00700793          	li	a5,7
    8000076c:	40c787bb          	subw	a5,a5,a2
    80000770:	03079793          	sll	a5,a5,0x30
    80000774:	0307d793          	srl	a5,a5,0x30
    80000778:	00b787bb          	addw	a5,a5,a1
    8000077c:	002dc703          	lbu	a4,2(s11)
    80000780:	03079793          	sll	a5,a5,0x30
    80000784:	0307d793          	srl	a5,a5,0x30
    80000788:	01c12683          	lw	a3,28(sp)
    8000078c:	0087859b          	addw	a1,a5,8
    80000790:	00377713          	and	a4,a4,3
    80000794:	03059593          	sll	a1,a1,0x30
    80000798:	0027171b          	sllw	a4,a4,0x2
    8000079c:	0305d593          	srl	a1,a1,0x30
    800007a0:	00d7073b          	addw	a4,a4,a3
    800007a4:	00f907b3          	add	a5,s2,a5
    800007a8:	00b905b3          	add	a1,s2,a1
    800007ac:	03071a13          	sll	s4,a4,0x30
    800007b0:	0007c783          	lbu	a5,0(a5)
    800007b4:	0005c503          	lbu	a0,0(a1)
    800007b8:	030a5a13          	srl	s4,s4,0x30
    800007bc:	0a0c1e63          	bnez	s8,80000878 <ppu_draw_sprite_scanline+0x224>
    800007c0:	1e0b8a63          	beqz	s7,800009b4 <ppu_draw_sprite_scanline+0x360>
    800007c4:	00879793          	sll	a5,a5,0x8
    800007c8:	00a787b3          	add	a5,a5,a0
    800007cc:	00cd0433          	add	s0,s10,a2
    800007d0:	00379793          	sll	a5,a5,0x3
    800007d4:	0008f617          	auipc	a2,0x8f
    800007d8:	2fc60613          	add	a2,a2,764 # 8008fad0 <ppu_l_h_addition_table>
    800007dc:	000b0a9b          	sext.w	s5,s6
    800007e0:	00c78d33          	add	s10,a5,a2
    800007e4:	008b0b13          	add	s6,s6,8
    800007e8:	00004c37          	lui	s8,0x4
    800007ec:	00140413          	add	s0,s0,1
    800007f0:	0300006f          	j	80000820 <ppu_draw_sprite_scanline+0x1cc>
    800007f4:	0007859b          	sext.w	a1,a5
    800007f8:	00b905b3          	add	a1,s2,a1
    800007fc:	0005c603          	lbu	a2,0(a1)
    80000800:	00040593          	mv	a1,s0
    80000804:	31d030ef          	jal	80004320 <draw>
    80000808:	0014c503          	lbu	a0,1(s1)
    8000080c:	00300593          	li	a1,3
    80000810:	801ff0ef          	jal	80000010 <common_bit_set>
    80000814:	001a8a9b          	addw	s5,s5,1
    80000818:	001d0d13          	add	s10,s10,1
    8000081c:	eb6a84e3          	beq	s5,s6,800006c4 <ppu_draw_sprite_scanline+0x70>
    80000820:	000d4783          	lbu	a5,0(s10)
    80000824:	00098593          	mv	a1,s3
    80000828:	000a851b          	sext.w	a0,s5
    8000082c:	01478333          	add	t1,a5,s4
    80000830:	fe0782e3          	beqz	a5,80000814 <ppu_draw_sprite_scanline+0x1c0>
    80000834:	000048b7          	lui	a7,0x4
    80000838:	014787b3          	add	a5,a5,s4
    8000083c:	f0088893          	add	a7,a7,-256 # 3f00 <_entry_offset+0x3f00>
    80000840:	ffffc637          	lui	a2,0xffffc
    80000844:	01f7f793          	and	a5,a5,31
    80000848:	0117e7b3          	or	a5,a5,a7
    8000084c:	1006061b          	addw	a2,a2,256 # ffffffffffffc100 <_end+0xffffffff7fe78100>
    80000850:	00c7863b          	addw	a2,a5,a2
    80000854:	111108b7          	lui	a7,0x11110
    80000858:	00c8d633          	srl	a2,a7,a2
    8000085c:	00167613          	and	a2,a2,1
    80000860:	f9837ce3          	bgeu	t1,s8,800007f8 <ppu_draw_sprite_scanline+0x1a4>
    80000864:	ff07859b          	addw	a1,a5,-16
    80000868:	f80606e3          	beqz	a2,800007f4 <ppu_draw_sprite_scanline+0x1a0>
    8000086c:	03059593          	sll	a1,a1,0x30
    80000870:	0305d593          	srl	a1,a1,0x30
    80000874:	f85ff06f          	j	800007f8 <ppu_draw_sprite_scanline+0x1a4>
    80000878:	005b1593          	sll	a1,s6,0x5
    8000087c:	00879c13          	sll	s8,a5,0x8
    80000880:	416587b3          	sub	a5,a1,s6
    80000884:	00379793          	sll	a5,a5,0x3
    80000888:	00ac0c33          	add	s8,s8,a0
    8000088c:	00c40433          	add	s0,s0,a2
    80000890:	00f40433          	add	s0,s0,a5
    80000894:	003c1c13          	sll	s8,s8,0x3
    80000898:	0000f797          	auipc	a5,0xf
    8000089c:	23878793          	add	a5,a5,568 # 8000fad0 <ppu_l_h_addition_flip_table>
    800008a0:	00cd0d33          	add	s10,s10,a2
    800008a4:	00fc0c33          	add	s8,s8,a5
    800008a8:	0010f797          	auipc	a5,0x10f
    800008ac:	22878793          	add	a5,a5,552 # 8010fad0 <ppu_screen_background>
    800008b0:	00f40433          	add	s0,s0,a5
    800008b4:	001d0793          	add	a5,s10,1
    800008b8:	000b0a9b          	sext.w	s5,s6
    800008bc:	00004cb7          	lui	s9,0x4
    800008c0:	008b0b13          	add	s6,s6,8
    800008c4:	00f13423          	sd	a5,8(sp)
    800008c8:	04c0006f          	j	80000914 <ppu_draw_sprite_scanline+0x2c0>
    800008cc:	0008861b          	sext.w	a2,a7
    800008d0:	00c90633          	add	a2,s2,a2
    800008d4:	00813583          	ld	a1,8(sp)
    800008d8:	00064603          	lbu	a2,0(a2)
    800008dc:	245030ef          	jal	80004320 <draw>
    800008e0:	0014c503          	lbu	a0,1(s1)
    800008e4:	00300593          	li	a1,3
    800008e8:	f28ff0ef          	jal	80000010 <common_bit_set>
    800008ec:	00050c63          	beqz	a0,80000904 <ppu_draw_sprite_scanline+0x2b0>
    800008f0:	0017b797          	auipc	a5,0x17b
    800008f4:	ac878793          	add	a5,a5,-1336 # 8017b3b8 <ppu_sprite_hit_occured>
    800008f8:	0007c603          	lbu	a2,0(a5)
    800008fc:	00061463          	bnez	a2,80000904 <ppu_draw_sprite_scanline+0x2b0>
    80000900:	080b8263          	beqz	s7,80000984 <ppu_draw_sprite_scanline+0x330>
    80000904:	001a8a9b          	addw	s5,s5,1
    80000908:	001c0c13          	add	s8,s8,1 # 4001 <_entry_offset+0x4001>
    8000090c:	0f840413          	add	s0,s0,248
    80000910:	db6a8ae3          	beq	s5,s6,800006c4 <ppu_draw_sprite_scanline+0x70>
    80000914:	000c4d03          	lbu	s10,0(s8)
    80000918:	fe0d06e3          	beqz	s10,80000904 <ppu_draw_sprite_scanline+0x2b0>
    8000091c:	014d05b3          	add	a1,s10,s4
    80000920:	000a851b          	sext.w	a0,s5
    80000924:	00058893          	mv	a7,a1
    80000928:	00098613          	mv	a2,s3
    8000092c:	fb95f2e3          	bgeu	a1,s9,800008d0 <ppu_draw_sprite_scanline+0x27c>
    80000930:	000045b7          	lui	a1,0x4
    80000934:	f0058593          	add	a1,a1,-256 # 3f00 <_entry_offset+0x3f00>
    80000938:	01f8f893          	and	a7,a7,31
    8000093c:	ffffc637          	lui	a2,0xffffc
    80000940:	1006061b          	addw	a2,a2,256 # ffffffffffffc100 <_end+0xffffffff7fe78100>
    80000944:	00b8e8b3          	or	a7,a7,a1
    80000948:	00c885bb          	addw	a1,a7,a2
    8000094c:	11110637          	lui	a2,0x11110
    80000950:	00b65633          	srl	a2,a2,a1
    80000954:	00167613          	and	a2,a2,1
    80000958:	f6060ae3          	beqz	a2,800008cc <ppu_draw_sprite_scanline+0x278>
    8000095c:	ff08889b          	addw	a7,a7,-16 # 1110fff0 <_entry_offset+0x1110fff0>
    80000960:	03089613          	sll	a2,a7,0x30
    80000964:	03065613          	srl	a2,a2,0x30
    80000968:	f69ff06f          	j	800008d0 <ppu_draw_sprite_scanline+0x27c>
    8000096c:	00100613          	li	a2,1
    80000970:	00500593          	li	a1,5
    80000974:	00123517          	auipc	a0,0x123
    80000978:	21e50513          	add	a0,a0,542 # 80123b92 <ppu+0x2>
    8000097c:	edcff0ef          	jal	80000058 <common_modify_bitb>
    80000980:	da5ff06f          	j	80000724 <ppu_draw_sprite_scanline+0xd0>
    80000984:	00044603          	lbu	a2,0(s0)
    80000988:	f7a61ee3          	bne	a2,s10,80000904 <ppu_draw_sprite_scanline+0x2b0>
    8000098c:	00100613          	li	a2,1
    80000990:	00600593          	li	a1,6
    80000994:	00123517          	auipc	a0,0x123
    80000998:	1fe50513          	add	a0,a0,510 # 80123b92 <ppu+0x2>
    8000099c:	ebcff0ef          	jal	80000058 <common_modify_bitb>
    800009a0:	00100613          	li	a2,1
    800009a4:	0017b797          	auipc	a5,0x17b
    800009a8:	a1478793          	add	a5,a5,-1516 # 8017b3b8 <ppu_sprite_hit_occured>
    800009ac:	00c78023          	sb	a2,0(a5)
    800009b0:	f55ff06f          	j	80000904 <ppu_draw_sprite_scanline+0x2b0>
    800009b4:	005b1693          	sll	a3,s6,0x5
    800009b8:	416686b3          	sub	a3,a3,s6
    800009bc:	00879793          	sll	a5,a5,0x8
    800009c0:	00c40433          	add	s0,s0,a2
    800009c4:	00369693          	sll	a3,a3,0x3
    800009c8:	00a787b3          	add	a5,a5,a0
    800009cc:	00d40833          	add	a6,s0,a3
    800009d0:	00379793          	sll	a5,a5,0x3
    800009d4:	0008f697          	auipc	a3,0x8f
    800009d8:	0fc68693          	add	a3,a3,252 # 8008fad0 <ppu_l_h_addition_table>
    800009dc:	00cd0633          	add	a2,s10,a2
    800009e0:	00d78433          	add	s0,a5,a3
    800009e4:	0010f797          	auipc	a5,0x10f
    800009e8:	0ec78793          	add	a5,a5,236 # 8010fad0 <ppu_screen_background>
    800009ec:	000b0a9b          	sext.w	s5,s6
    800009f0:	00f80bb3          	add	s7,a6,a5
    800009f4:	008b0b13          	add	s6,s6,8
    800009f8:	00004d37          	lui	s10,0x4
    800009fc:	00160c13          	add	s8,a2,1 # 11110001 <_entry_offset+0x11110001>
    80000a00:	0600006f          	j	80000a60 <ppu_draw_sprite_scanline+0x40c>
    80000a04:	ff07859b          	addw	a1,a5,-16
    80000a08:	0007879b          	sext.w	a5,a5
    80000a0c:	00060663          	beqz	a2,80000a18 <ppu_draw_sprite_scanline+0x3c4>
    80000a10:	03059793          	sll	a5,a1,0x30
    80000a14:	0307d793          	srl	a5,a5,0x30
    80000a18:	00f907b3          	add	a5,s2,a5
    80000a1c:	0007c603          	lbu	a2,0(a5)
    80000a20:	000c0593          	mv	a1,s8
    80000a24:	0fd030ef          	jal	80004320 <draw>
    80000a28:	0014c503          	lbu	a0,1(s1)
    80000a2c:	00300593          	li	a1,3
    80000a30:	de0ff0ef          	jal	80000010 <common_bit_set>
    80000a34:	00050e63          	beqz	a0,80000a50 <ppu_draw_sprite_scanline+0x3fc>
    80000a38:	0017b797          	auipc	a5,0x17b
    80000a3c:	98078793          	add	a5,a5,-1664 # 8017b3b8 <ppu_sprite_hit_occured>
    80000a40:	0007c783          	lbu	a5,0(a5)
    80000a44:	00079663          	bnez	a5,80000a50 <ppu_draw_sprite_scanline+0x3fc>
    80000a48:	000bc783          	lbu	a5,0(s7)
    80000a4c:	0b978063          	beq	a5,s9,80000aec <ppu_draw_sprite_scanline+0x498>
    80000a50:	001a8a9b          	addw	s5,s5,1
    80000a54:	00140413          	add	s0,s0,1
    80000a58:	0f8b8b93          	add	s7,s7,248
    80000a5c:	056a8463          	beq	s5,s6,80000aa4 <ppu_draw_sprite_scanline+0x450>
    80000a60:	00044c83          	lbu	s9,0(s0)
    80000a64:	000a851b          	sext.w	a0,s5
    80000a68:	014c8333          	add	t1,s9,s4
    80000a6c:	fe0c82e3          	beqz	s9,80000a50 <ppu_draw_sprite_scanline+0x3fc>
    80000a70:	000045b7          	lui	a1,0x4
    80000a74:	f0058593          	add	a1,a1,-256 # 3f00 <_entry_offset+0x3f00>
    80000a78:	ffffc637          	lui	a2,0xffffc
    80000a7c:	01f37793          	and	a5,t1,31
    80000a80:	00b7e7b3          	or	a5,a5,a1
    80000a84:	1006061b          	addw	a2,a2,256 # ffffffffffffc100 <_end+0xffffffff7fe78100>
    80000a88:	00c7863b          	addw	a2,a5,a2
    80000a8c:	111105b7          	lui	a1,0x11110
    80000a90:	00c5d633          	srl	a2,a1,a2
    80000a94:	00167613          	and	a2,a2,1
    80000a98:	f7a366e3          	bltu	t1,s10,80000a04 <ppu_draw_sprite_scanline+0x3b0>
    80000a9c:	00098793          	mv	a5,s3
    80000aa0:	f79ff06f          	j	80000a18 <ppu_draw_sprite_scanline+0x3c4>
    80000aa4:	004d8d93          	add	s11,s11,4
    80000aa8:	00400b93          	li	s7,4
    80000aac:	c29ff06f          	j	800006d4 <ppu_draw_sprite_scanline+0x80>
    80000ab0:	08813083          	ld	ra,136(sp)
    80000ab4:	08013403          	ld	s0,128(sp)
    80000ab8:	07813483          	ld	s1,120(sp)
    80000abc:	07013903          	ld	s2,112(sp)
    80000ac0:	06813983          	ld	s3,104(sp)
    80000ac4:	06013a03          	ld	s4,96(sp)
    80000ac8:	05813a83          	ld	s5,88(sp)
    80000acc:	05013b03          	ld	s6,80(sp)
    80000ad0:	04813b83          	ld	s7,72(sp)
    80000ad4:	04013c03          	ld	s8,64(sp)
    80000ad8:	03813c83          	ld	s9,56(sp)
    80000adc:	03013d03          	ld	s10,48(sp)
    80000ae0:	02813d83          	ld	s11,40(sp)
    80000ae4:	09010113          	add	sp,sp,144
    80000ae8:	00008067          	ret
    80000aec:	00100613          	li	a2,1
    80000af0:	00600593          	li	a1,6
    80000af4:	00123517          	auipc	a0,0x123
    80000af8:	09e50513          	add	a0,a0,158 # 80123b92 <ppu+0x2>
    80000afc:	d5cff0ef          	jal	80000058 <common_modify_bitb>
    80000b00:	00100793          	li	a5,1
    80000b04:	0017b717          	auipc	a4,0x17b
    80000b08:	8b470713          	add	a4,a4,-1868 # 8017b3b8 <ppu_sprite_hit_occured>
    80000b0c:	00f70023          	sb	a5,0(a4)
    80000b10:	f41ff06f          	j	80000a50 <ppu_draw_sprite_scanline+0x3fc>

0000000080000b14 <ppu_cycle>:
    80000b14:	ff010113          	add	sp,sp,-16
    80000b18:	00813023          	sd	s0,0(sp)
    80000b1c:	00123417          	auipc	s0,0x123
    80000b20:	07440413          	add	s0,s0,116 # 80123b90 <ppu>
    80000b24:	01044783          	lbu	a5,16(s0)
    80000b28:	00113423          	sd	ra,8(sp)
    80000b2c:	06078063          	beqz	a5,80000b8c <ppu_cycle+0x78>
    80000b30:	10000513          	li	a0,256
    80000b34:	6c5020ef          	jal	800039f8 <cpu_run>
    80000b38:	02042783          	lw	a5,32(s0)
    80000b3c:	0ef00713          	li	a4,239
    80000b40:	0017869b          	addw	a3,a5,1
    80000b44:	02d42023          	sw	a3,32(s0)
    80000b48:	06d75c63          	bge	a4,a3,80000bc0 <ppu_cycle+0xac>
    80000b4c:	04500513          	li	a0,69
    80000b50:	6a9020ef          	jal	800039f8 <cpu_run>
    80000b54:	02042703          	lw	a4,32(s0)
    80000b58:	0ef00793          	li	a5,239
    80000b5c:	08e7dc63          	bge	a5,a4,80000bf4 <ppu_cycle+0xe0>
    80000b60:	01000513          	li	a0,16
    80000b64:	695020ef          	jal	800039f8 <cpu_run>
    80000b68:	02042783          	lw	a5,32(s0)
    80000b6c:	0f100713          	li	a4,241
    80000b70:	0ae78663          	beq	a5,a4,80000c1c <ppu_cycle+0x108>
    80000b74:	10600713          	li	a4,262
    80000b78:	0ce78e63          	beq	a5,a4,80000c54 <ppu_cycle+0x140>
    80000b7c:	00813083          	ld	ra,8(sp)
    80000b80:	00013403          	ld	s0,0(sp)
    80000b84:	01010113          	add	sp,sp,16
    80000b88:	00008067          	ret
    80000b8c:	661020ef          	jal	800039ec <cpu_clock>
    80000b90:	000077b7          	lui	a5,0x7
    80000b94:	3da78793          	add	a5,a5,986 # 73da <_entry_offset+0x73da>
    80000b98:	f8a7fce3          	bgeu	a5,a0,80000b30 <ppu_cycle+0x1c>
    80000b9c:	00100793          	li	a5,1
    80000ba0:	10000513          	li	a0,256
    80000ba4:	00f40823          	sb	a5,16(s0)
    80000ba8:	651020ef          	jal	800039f8 <cpu_run>
    80000bac:	02042783          	lw	a5,32(s0)
    80000bb0:	0ef00713          	li	a4,239
    80000bb4:	0017869b          	addw	a3,a5,1
    80000bb8:	02d42023          	sw	a3,32(s0)
    80000bbc:	f8d748e3          	blt	a4,a3,80000b4c <ppu_cycle+0x38>
    80000bc0:	00144503          	lbu	a0,1(s0)
    80000bc4:	00300593          	li	a1,3
    80000bc8:	c48ff0ef          	jal	80000010 <common_bit_set>
    80000bcc:	f80500e3          	beqz	a0,80000b4c <ppu_cycle+0x38>
    80000bd0:	00000513          	li	a0,0
    80000bd4:	d70ff0ef          	jal	80000144 <ppu_draw_background_scanline>
    80000bd8:	00100513          	li	a0,1
    80000bdc:	d68ff0ef          	jal	80000144 <ppu_draw_background_scanline>
    80000be0:	04500513          	li	a0,69
    80000be4:	615020ef          	jal	800039f8 <cpu_run>
    80000be8:	02042703          	lw	a4,32(s0)
    80000bec:	0ef00793          	li	a5,239
    80000bf0:	f6e7c8e3          	blt	a5,a4,80000b60 <ppu_cycle+0x4c>
    80000bf4:	00144503          	lbu	a0,1(s0)
    80000bf8:	00400593          	li	a1,4
    80000bfc:	c14ff0ef          	jal	80000010 <common_bit_set>
    80000c00:	f60500e3          	beqz	a0,80000b60 <ppu_cycle+0x4c>
    80000c04:	a51ff0ef          	jal	80000654 <ppu_draw_sprite_scanline>
    80000c08:	01000513          	li	a0,16
    80000c0c:	5ed020ef          	jal	800039f8 <cpu_run>
    80000c10:	02042783          	lw	a5,32(s0)
    80000c14:	0f100713          	li	a4,241
    80000c18:	f4e79ee3          	bne	a5,a4,80000b74 <ppu_cycle+0x60>
    80000c1c:	00100613          	li	a2,1
    80000c20:	00700593          	li	a1,7
    80000c24:	00123517          	auipc	a0,0x123
    80000c28:	f6e50513          	add	a0,a0,-146 # 80123b92 <ppu+0x2>
    80000c2c:	c2cff0ef          	jal	80000058 <common_modify_bitb>
    80000c30:	00000613          	li	a2,0
    80000c34:	00600593          	li	a1,6
    80000c38:	00123517          	auipc	a0,0x123
    80000c3c:	f5a50513          	add	a0,a0,-166 # 80123b92 <ppu+0x2>
    80000c40:	c18ff0ef          	jal	80000058 <common_modify_bitb>
    80000c44:	00013403          	ld	s0,0(sp)
    80000c48:	00813083          	ld	ra,8(sp)
    80000c4c:	01010113          	add	sp,sp,16
    80000c50:	5010206f          	j	80003950 <cpu_interrupt>
    80000c54:	fff00793          	li	a5,-1
    80000c58:	00000613          	li	a2,0
    80000c5c:	00700593          	li	a1,7
    80000c60:	00123517          	auipc	a0,0x123
    80000c64:	f3250513          	add	a0,a0,-206 # 80123b92 <ppu+0x2>
    80000c68:	02f42023          	sw	a5,32(s0)
    80000c6c:	0017a797          	auipc	a5,0x17a
    80000c70:	74078623          	sb	zero,1868(a5) # 8017b3b8 <ppu_sprite_hit_occured>
    80000c74:	be4ff0ef          	jal	80000058 <common_modify_bitb>
    80000c78:	00013403          	ld	s0,0(sp)
    80000c7c:	00813083          	ld	ra,8(sp)
    80000c80:	01010113          	add	sp,sp,16
    80000c84:	1890306f          	j	8000460c <fce_update_screen>

0000000080000c88 <ppu_copy>:
    80000c88:	0011f797          	auipc	a5,0x11f
    80000c8c:	e0878793          	add	a5,a5,-504 # 8011fa90 <PPU_RAM>
    80000c90:	00a78533          	add	a0,a5,a0
    80000c94:	0c00406f          	j	80004d54 <memcpy>

0000000080000c98 <ppuio_read>:
    80000c98:	fe010113          	add	sp,sp,-32
    80000c9c:	00813823          	sd	s0,16(sp)
    80000ca0:	00123417          	auipc	s0,0x123
    80000ca4:	ef040413          	add	s0,s0,-272 # 80123b90 <ppu>
    80000ca8:	00a45703          	lhu	a4,10(s0)
    80000cac:	00113c23          	sd	ra,24(sp)
    80000cb0:	00913423          	sd	s1,8(sp)
    80000cb4:	03271793          	sll	a5,a4,0x32
    80000cb8:	0327d793          	srl	a5,a5,0x32
    80000cbc:	00757513          	and	a0,a0,7
    80000cc0:	00f41523          	sh	a5,10(s0)
    80000cc4:	00400693          	li	a3,4
    80000cc8:	10d50263          	beq	a0,a3,80000dcc <ppuio_read+0x134>
    80000ccc:	00700693          	li	a3,7
    80000cd0:	06d50c63          	beq	a0,a3,80000d48 <ppuio_read+0xb0>
    80000cd4:	00200793          	li	a5,2
    80000cd8:	0ff00493          	li	s1,255
    80000cdc:	04f51a63          	bne	a0,a5,80000d30 <ppuio_read+0x98>
    80000ce0:	00000613          	li	a2,0
    80000ce4:	00700593          	li	a1,7
    80000ce8:	00123517          	auipc	a0,0x123
    80000cec:	eaa50513          	add	a0,a0,-342 # 80123b92 <ppu+0x2>
    80000cf0:	00244483          	lbu	s1,2(s0)
    80000cf4:	b64ff0ef          	jal	80000058 <common_modify_bitb>
    80000cf8:	00000613          	li	a2,0
    80000cfc:	00600593          	li	a1,6
    80000d00:	00123517          	auipc	a0,0x123
    80000d04:	e9250513          	add	a0,a0,-366 # 80123b92 <ppu+0x2>
    80000d08:	b50ff0ef          	jal	80000058 <common_modify_bitb>
    80000d0c:	00123797          	auipc	a5,0x123
    80000d10:	e8079523          	sh	zero,-374(a5) # 80123b96 <ppu+0x6>
    80000d14:	00123797          	auipc	a5,0x123
    80000d18:	e8079523          	sh	zero,-374(a5) # 80123b9e <ppu+0xe>
    80000d1c:	0017a797          	auipc	a5,0x17a
    80000d20:	68078ea3          	sb	zero,1693(a5) # 8017b3b9 <ppu_addr_latch>
    80000d24:	00100793          	li	a5,1
    80000d28:	0017a717          	auipc	a4,0x17a
    80000d2c:	68f70923          	sb	a5,1682(a4) # 8017b3ba <ppu_2007_first_read>
    80000d30:	01813083          	ld	ra,24(sp)
    80000d34:	01013403          	ld	s0,16(sp)
    80000d38:	00048513          	mv	a0,s1
    80000d3c:	00813483          	ld	s1,8(sp)
    80000d40:	02010113          	add	sp,sp,32
    80000d44:	00008067          	ret
    80000d48:	000046b7          	lui	a3,0x4
    80000d4c:	eff68693          	add	a3,a3,-257 # 3eff <_entry_offset+0x3eff>
    80000d50:	0007861b          	sext.w	a2,a5
    80000d54:	02f6fe63          	bgeu	a3,a5,80000d90 <ppuio_read+0xf8>
    80000d58:	03271793          	sll	a5,a4,0x32
    80000d5c:	0207da63          	bgez	a5,80000d90 <ppuio_read+0xf8>
    80000d60:	000047b7          	lui	a5,0x4
    80000d64:	01f77713          	and	a4,a4,31
    80000d68:	f0078793          	add	a5,a5,-256 # 3f00 <_entry_offset+0x3f00>
    80000d6c:	ffffc6b7          	lui	a3,0xffffc
    80000d70:	00f767b3          	or	a5,a4,a5
    80000d74:	1006869b          	addw	a3,a3,256 # ffffffffffffc100 <_end+0xffffffff7fe78100>
    80000d78:	00d786bb          	addw	a3,a5,a3
    80000d7c:	11110737          	lui	a4,0x11110
    80000d80:	00d75733          	srl	a4,a4,a3
    80000d84:	00177713          	and	a4,a4,1
    80000d88:	0007861b          	sext.w	a2,a5
    80000d8c:	08071a63          	bnez	a4,80000e20 <ppuio_read+0x188>
    80000d90:	0011f797          	auipc	a5,0x11f
    80000d94:	d0078793          	add	a5,a5,-768 # 8011fa90 <PPU_RAM>
    80000d98:	00c787b3          	add	a5,a5,a2
    80000d9c:	0007c483          	lbu	s1,0(a5)
    80000da0:	0017a797          	auipc	a5,0x17a
    80000da4:	61a7c783          	lbu	a5,1562(a5) # 8017b3ba <ppu_2007_first_read>
    80000da8:	04078863          	beqz	a5,80000df8 <ppuio_read+0x160>
    80000dac:	01813083          	ld	ra,24(sp)
    80000db0:	01013403          	ld	s0,16(sp)
    80000db4:	0017a797          	auipc	a5,0x17a
    80000db8:	60078323          	sb	zero,1542(a5) # 8017b3ba <ppu_2007_first_read>
    80000dbc:	00048513          	mv	a0,s1
    80000dc0:	00813483          	ld	s1,8(sp)
    80000dc4:	02010113          	add	sp,sp,32
    80000dc8:	00008067          	ret
    80000dcc:	00344703          	lbu	a4,3(s0)
    80000dd0:	00123797          	auipc	a5,0x123
    80000dd4:	cc078793          	add	a5,a5,-832 # 80123a90 <PPU_SPRRAM>
    80000dd8:	01813083          	ld	ra,24(sp)
    80000ddc:	00e787b3          	add	a5,a5,a4
    80000de0:	0007c483          	lbu	s1,0(a5)
    80000de4:	01013403          	ld	s0,16(sp)
    80000de8:	00048513          	mv	a0,s1
    80000dec:	00813483          	ld	s1,8(sp)
    80000df0:	02010113          	add	sp,sp,32
    80000df4:	00008067          	ret
    80000df8:	00044503          	lbu	a0,0(s0)
    80000dfc:	00200593          	li	a1,2
    80000e00:	a10ff0ef          	jal	80000010 <common_bit_set>
    80000e04:	00100713          	li	a4,1
    80000e08:	00050463          	beqz	a0,80000e10 <ppuio_read+0x178>
    80000e0c:	02000713          	li	a4,32
    80000e10:	00a45783          	lhu	a5,10(s0)
    80000e14:	00e787bb          	addw	a5,a5,a4
    80000e18:	00f41523          	sh	a5,10(s0)
    80000e1c:	f15ff06f          	j	80000d30 <ppuio_read+0x98>
    80000e20:	ff07879b          	addw	a5,a5,-16
    80000e24:	03079613          	sll	a2,a5,0x30
    80000e28:	03065613          	srl	a2,a2,0x30
    80000e2c:	f65ff06f          	j	80000d90 <ppuio_read+0xf8>

0000000080000e30 <ppuio_write>:
    80000e30:	00757513          	and	a0,a0,7
    80000e34:	00123717          	auipc	a4,0x123
    80000e38:	d5c70713          	add	a4,a4,-676 # 80123b90 <ppu>
    80000e3c:	00004617          	auipc	a2,0x4
    80000e40:	fdc60613          	add	a2,a2,-36 # 80004e18 <_etext>
    80000e44:	00251513          	sll	a0,a0,0x2
    80000e48:	00a75803          	lhu	a6,10(a4)
    80000e4c:	00c50533          	add	a0,a0,a2
    80000e50:	00052683          	lw	a3,0(a0)
    80000e54:	03281793          	sll	a5,a6,0x32
    80000e58:	0327d793          	srl	a5,a5,0x32
    80000e5c:	00c686b3          	add	a3,a3,a2
    80000e60:	00f71523          	sh	a5,10(a4)
    80000e64:	00068067          	jr	a3
    80000e68:	01875683          	lhu	a3,24(a4)
    80000e6c:	00004637          	lui	a2,0x4
    80000e70:	eff60613          	add	a2,a2,-257 # 3eff <_entry_offset+0x3eff>
    80000e74:	00d7c733          	xor	a4,a5,a3
    80000e78:	00004537          	lui	a0,0x4
    80000e7c:	10e66063          	bltu	a2,a4,80000f7c <ppuio_write+0x14c>
    80000e80:	0011f697          	auipc	a3,0x11f
    80000e84:	c1068693          	add	a3,a3,-1008 # 8011fa90 <PPU_RAM>
    80000e88:	00e68733          	add	a4,a3,a4
    80000e8c:	00b70023          	sb	a1,0(a4)
    80000e90:	0007871b          	sext.w	a4,a5
    80000e94:	03281793          	sll	a5,a6,0x32
    80000e98:	0407d063          	bgez	a5,80000ed8 <ppuio_write+0xa8>
    80000e9c:	000047b7          	lui	a5,0x4
    80000ea0:	eff78793          	add	a5,a5,-257 # 3eff <_entry_offset+0x3eff>
    80000ea4:	02e7fa63          	bgeu	a5,a4,80000ed8 <ppuio_write+0xa8>
    80000ea8:	000047b7          	lui	a5,0x4
    80000eac:	01f87713          	and	a4,a6,31
    80000eb0:	f0078793          	add	a5,a5,-256 # 3f00 <_entry_offset+0x3f00>
    80000eb4:	ffffc637          	lui	a2,0xffffc
    80000eb8:	00f767b3          	or	a5,a4,a5
    80000ebc:	1006061b          	addw	a2,a2,256 # ffffffffffffc100 <_end+0xffffffff7fe78100>
    80000ec0:	00c7873b          	addw	a4,a5,a2
    80000ec4:	11110637          	lui	a2,0x11110
    80000ec8:	00e65633          	srl	a2,a2,a4
    80000ecc:	00167613          	and	a2,a2,1
    80000ed0:	0007871b          	sext.w	a4,a5
    80000ed4:	10061263          	bnez	a2,80000fd8 <ppuio_write+0x1a8>
    80000ed8:	00e686b3          	add	a3,a3,a4
    80000edc:	00b68023          	sb	a1,0(a3)
    80000ee0:	00008067          	ret
    80000ee4:	01074783          	lbu	a5,16(a4)
    80000ee8:	fe078ce3          	beqz	a5,80000ee0 <ppuio_write+0xb0>
    80000eec:	00b70023          	sb	a1,0(a4)
    80000ef0:	00008067          	ret
    80000ef4:	01074783          	lbu	a5,16(a4)
    80000ef8:	fe0784e3          	beqz	a5,80000ee0 <ppuio_write+0xb0>
    80000efc:	00b700a3          	sb	a1,1(a4)
    80000f00:	00008067          	ret
    80000f04:	00b701a3          	sb	a1,3(a4)
    80000f08:	00008067          	ret
    80000f0c:	00374683          	lbu	a3,3(a4)
    80000f10:	00123797          	auipc	a5,0x123
    80000f14:	b8078793          	add	a5,a5,-1152 # 80123a90 <PPU_SPRRAM>
    80000f18:	0016861b          	addw	a2,a3,1
    80000f1c:	00d787b3          	add	a5,a5,a3
    80000f20:	00c701a3          	sb	a2,3(a4)
    80000f24:	00b78023          	sb	a1,0(a5)
    80000f28:	00008067          	ret
    80000f2c:	00e74783          	lbu	a5,14(a4)
    80000f30:	04078263          	beqz	a5,80000f74 <ppuio_write+0x144>
    80000f34:	00b704a3          	sb	a1,9(a4)
    80000f38:	0017c793          	xor	a5,a5,1
    80000f3c:	00f70723          	sb	a5,14(a4)
    80000f40:	00008067          	ret
    80000f44:	01074783          	lbu	a5,16(a4)
    80000f48:	f8078ce3          	beqz	a5,80000ee0 <ppuio_write+0xb0>
    80000f4c:	00f74783          	lbu	a5,15(a4)
    80000f50:	02079e63          	bnez	a5,80000f8c <ppuio_write+0x15c>
    80000f54:	0017a697          	auipc	a3,0x17a
    80000f58:	46b682a3          	sb	a1,1125(a3) # 8017b3b9 <ppu_addr_latch>
    80000f5c:	0017c793          	xor	a5,a5,1
    80000f60:	00f707a3          	sb	a5,15(a4)
    80000f64:	00100793          	li	a5,1
    80000f68:	0017a717          	auipc	a4,0x17a
    80000f6c:	44f70923          	sb	a5,1106(a4) # 8017b3ba <ppu_2007_first_read>
    80000f70:	00008067          	ret
    80000f74:	00b70423          	sb	a1,8(a4)
    80000f78:	fc1ff06f          	j	80000f38 <ppuio_write+0x108>
    80000f7c:	02a76463          	bltu	a4,a0,80000fa4 <ppuio_write+0x174>
    80000f80:	00010737          	lui	a4,0x10
    80000f84:	fff70713          	add	a4,a4,-1 # ffff <_entry_offset+0xffff>
    80000f88:	ef9ff06f          	j	80000e80 <ppuio_write+0x50>
    80000f8c:	0017a697          	auipc	a3,0x17a
    80000f90:	42d6c683          	lbu	a3,1069(a3) # 8017b3b9 <ppu_addr_latch>
    80000f94:	0086969b          	sllw	a3,a3,0x8
    80000f98:	00b686bb          	addw	a3,a3,a1
    80000f9c:	00d71523          	sh	a3,10(a4)
    80000fa0:	fbdff06f          	j	80000f5c <ppuio_write+0x12c>
    80000fa4:	00004637          	lui	a2,0x4
    80000fa8:	01f77693          	and	a3,a4,31
    80000fac:	f0060613          	add	a2,a2,-256 # 3f00 <_entry_offset+0x3f00>
    80000fb0:	ffffc737          	lui	a4,0xffffc
    80000fb4:	1007071b          	addw	a4,a4,256 # ffffffffffffc100 <_end+0xffffffff7fe78100>
    80000fb8:	00c6e6b3          	or	a3,a3,a2
    80000fbc:	00e6863b          	addw	a2,a3,a4
    80000fc0:	11110737          	lui	a4,0x11110
    80000fc4:	00c75733          	srl	a4,a4,a2
    80000fc8:	00177713          	and	a4,a4,1
    80000fcc:	00071e63          	bnez	a4,80000fe8 <ppuio_write+0x1b8>
    80000fd0:	0006871b          	sext.w	a4,a3
    80000fd4:	eadff06f          	j	80000e80 <ppuio_write+0x50>
    80000fd8:	ff07879b          	addw	a5,a5,-16
    80000fdc:	03079713          	sll	a4,a5,0x30
    80000fe0:	03075713          	srl	a4,a4,0x30
    80000fe4:	ef5ff06f          	j	80000ed8 <ppuio_write+0xa8>
    80000fe8:	ff06869b          	addw	a3,a3,-16
    80000fec:	03069713          	sll	a4,a3,0x30
    80000ff0:	03075713          	srl	a4,a4,0x30
    80000ff4:	e8dff06f          	j	80000e80 <ppuio_write+0x50>

0000000080000ff8 <ppu_init>:
    80000ff8:	00a007b7          	lui	a5,0xa00
    80000ffc:	00123717          	auipc	a4,0x123
    80001000:	b8f72a23          	sw	a5,-1132(a4) # 80123b90 <ppu>
    80001004:	00123797          	auipc	a5,0x123
    80001008:	b807aa23          	sw	zero,-1132(a5) # 80123b98 <ppu+0x8>
    8000100c:	00123797          	auipc	a5,0x123
    80001010:	b8079823          	sh	zero,-1136(a5) # 80123b9c <ppu+0xc>
    80001014:	f9010113          	add	sp,sp,-112
    80001018:	00100793          	li	a5,1
    8000101c:	06813423          	sd	s0,104(sp)
    80001020:	06913023          	sd	s1,96(sp)
    80001024:	00001437          	lui	s0,0x1
    80001028:	0017a717          	auipc	a4,0x17a
    8000102c:	38f70923          	sb	a5,914(a4) # 8017b3ba <ppu_2007_first_read>
    80001030:	fff00493          	li	s1,-1
    80001034:	03913023          	sd	s9,32(sp)
    80001038:	01b13823          	sd	s11,16(sp)
    8000103c:	05213c23          	sd	s2,88(sp)
    80001040:	05313823          	sd	s3,80(sp)
    80001044:	05413423          	sd	s4,72(sp)
    80001048:	05513023          	sd	s5,64(sp)
    8000104c:	03613c23          	sd	s6,56(sp)
    80001050:	03713823          	sd	s7,48(sp)
    80001054:	03813423          	sd	s8,40(sp)
    80001058:	01a13c23          	sd	s10,24(sp)
    8000105c:	0008f717          	auipc	a4,0x8f
    80001060:	a7470713          	add	a4,a4,-1420 # 8008fad0 <ppu_l_h_addition_table>
    80001064:	0000fe97          	auipc	t4,0xf
    80001068:	a6ce8e93          	add	t4,t4,-1428 # 8000fad0 <ppu_l_h_addition_flip_table>
    8000106c:	00000d93          	li	s11,0
    80001070:	0084d493          	srl	s1,s1,0x8
    80001074:	80040413          	add	s0,s0,-2048 # 800 <_entry_offset+0x800>
    80001078:	10000c93          	li	s9,256
    8000107c:	407ddc1b          	sraw	s8,s11,0x7
    80001080:	001c1c1b          	sllw	s8,s8,0x1
    80001084:	001d9b9b          	sllw	s7,s11,0x1
    80001088:	005ddb13          	srl	s6,s11,0x5
    8000108c:	004dda93          	srl	s5,s11,0x4
    80001090:	001dda13          	srl	s4,s11,0x1
    80001094:	003dd993          	srl	s3,s11,0x3
    80001098:	002dd913          	srl	s2,s11,0x2
    8000109c:	018c1c1b          	sllw	s8,s8,0x18
    800010a0:	418c5c1b          	sraw	s8,s8,0x18
    800010a4:	002bfb93          	and	s7,s7,2
    800010a8:	002b7b13          	and	s6,s6,2
    800010ac:	002dfd13          	and	s10,s11,2
    800010b0:	002afa93          	and	s5,s5,2
    800010b4:	002a7a13          	and	s4,s4,2
    800010b8:	0029f993          	and	s3,s3,2
    800010bc:	00297913          	and	s2,s2,2
    800010c0:	000e8393          	mv	t2,t4
    800010c4:	00070293          	mv	t0,a4
    800010c8:	00000693          	li	a3,0
    800010cc:	01b13023          	sd	s11,0(sp)
    800010d0:	01d13423          	sd	t4,8(sp)
    800010d4:	4066d51b          	sraw	a0,a3,0x6
    800010d8:	4016d81b          	sraw	a6,a3,0x1
    800010dc:	4076d59b          	sraw	a1,a3,0x7
    800010e0:	4056d89b          	sraw	a7,a3,0x5
    800010e4:	00157513          	and	a0,a0,1
    800010e8:	4026d31b          	sraw	t1,a3,0x2
    800010ec:	4046d79b          	sraw	a5,a3,0x4
    800010f0:	00ab6533          	or	a0,s6,a0
    800010f4:	00187813          	and	a6,a6,1
    800010f8:	00bc65b3          	or	a1,s8,a1
    800010fc:	0018f893          	and	a7,a7,1
    80001100:	0016fe13          	and	t3,a3,1
    80001104:	4036d61b          	sraw	a2,a3,0x3
    80001108:	010d6833          	or	a6,s10,a6
    8000110c:	0ff5f593          	zext.b	a1,a1
    80001110:	011ae8b3          	or	a7,s5,a7
    80001114:	00851f93          	sll	t6,a0,0x8
    80001118:	00137313          	and	t1,t1,1
    8000111c:	0017f793          	and	a5,a5,1
    80001120:	01089d93          	sll	s11,a7,0x10
    80001124:	006a6333          	or	t1,s4,t1
    80001128:	01cbee33          	or	t3,s7,t3
    8000112c:	00881f13          	sll	t5,a6,0x8
    80001130:	00f9e7b3          	or	a5,s3,a5
    80001134:	01f5efb3          	or	t6,a1,t6
    80001138:	00167613          	and	a2,a2,1
    8000113c:	01031e93          	sll	t4,t1,0x10
    80001140:	00c96633          	or	a2,s2,a2
    80001144:	01ee6f33          	or	t5,t3,t5
    80001148:	01bfefb3          	or	t6,t6,s11
    8000114c:	01879d93          	sll	s11,a5,0x18
    80001150:	01df6f33          	or	t5,t5,t4
    80001154:	01bfedb3          	or	s11,t6,s11
    80001158:	01861e93          	sll	t4,a2,0x18
    8000115c:	02061613          	sll	a2,a2,0x20
    80001160:	01df6eb3          	or	t4,t5,t4
    80001164:	02079793          	sll	a5,a5,0x20
    80001168:	00cde633          	or	a2,s11,a2
    8000116c:	02831313          	sll	t1,t1,0x28
    80001170:	00fee7b3          	or	a5,t4,a5
    80001174:	02889893          	sll	a7,a7,0x28
    80001178:	00666633          	or	a2,a2,t1
    8000117c:	03081813          	sll	a6,a6,0x30
    80001180:	0117e7b3          	or	a5,a5,a7
    80001184:	03051513          	sll	a0,a0,0x30
    80001188:	01066633          	or	a2,a2,a6
    8000118c:	00a7e7b3          	or	a5,a5,a0
    80001190:	038e1e13          	sll	t3,t3,0x38
    80001194:	00967633          	and	a2,a2,s1
    80001198:	03859593          	sll	a1,a1,0x38
    8000119c:	0097f7b3          	and	a5,a5,s1
    800011a0:	01c66633          	or	a2,a2,t3
    800011a4:	00c2b023          	sd	a2,0(t0)
    800011a8:	00b7e7b3          	or	a5,a5,a1
    800011ac:	00f3b023          	sd	a5,0(t2)
    800011b0:	0016869b          	addw	a3,a3,1
    800011b4:	008282b3          	add	t0,t0,s0
    800011b8:	008383b3          	add	t2,t2,s0
    800011bc:	f1969ce3          	bne	a3,s9,800010d4 <ppu_init+0xdc>
    800011c0:	00013d83          	ld	s11,0(sp)
    800011c4:	00813e83          	ld	t4,8(sp)
    800011c8:	00870713          	add	a4,a4,8
    800011cc:	001d8d9b          	addw	s11,s11,1
    800011d0:	008e8e93          	add	t4,t4,8
    800011d4:	eadd94e3          	bne	s11,a3,8000107c <ppu_init+0x84>
    800011d8:	06813403          	ld	s0,104(sp)
    800011dc:	06013483          	ld	s1,96(sp)
    800011e0:	05813903          	ld	s2,88(sp)
    800011e4:	05013983          	ld	s3,80(sp)
    800011e8:	04813a03          	ld	s4,72(sp)
    800011ec:	04013a83          	ld	s5,64(sp)
    800011f0:	03813b03          	ld	s6,56(sp)
    800011f4:	03013b83          	ld	s7,48(sp)
    800011f8:	02813c03          	ld	s8,40(sp)
    800011fc:	02013c83          	ld	s9,32(sp)
    80001200:	01813d03          	ld	s10,24(sp)
    80001204:	01013d83          	ld	s11,16(sp)
    80001208:	07010113          	add	sp,sp,112
    8000120c:	00008067          	ret

0000000080001210 <ppu_sprram_write>:
    80001210:	00123717          	auipc	a4,0x123
    80001214:	98070713          	add	a4,a4,-1664 # 80123b90 <ppu>
    80001218:	00374683          	lbu	a3,3(a4)
    8000121c:	00123797          	auipc	a5,0x123
    80001220:	87478793          	add	a5,a5,-1932 # 80123a90 <PPU_SPRRAM>
    80001224:	0016861b          	addw	a2,a3,1
    80001228:	00d787b3          	add	a5,a5,a3
    8000122c:	00c701a3          	sb	a2,3(a4)
    80001230:	00a78023          	sb	a0,0(a5)
    80001234:	00008067          	ret

0000000080001238 <ppu_set_mirroring>:
    80001238:	40000793          	li	a5,1024
    8000123c:	00123717          	auipc	a4,0x123
    80001240:	95470713          	add	a4,a4,-1708 # 80123b90 <ppu>
    80001244:	00a797bb          	sllw	a5,a5,a0
    80001248:	00a72a23          	sw	a0,20(a4)
    8000124c:	00f72c23          	sw	a5,24(a4)
    80001250:	00008067          	ret

0000000080001254 <memory_readb>:
    80001254:	00d55713          	srl	a4,a0,0xd
    80001258:	00200693          	li	a3,2
    8000125c:	02d70463          	beq	a4,a3,80001284 <memory_readb+0x30>
    80001260:	00e6e663          	bltu	a3,a4,8000126c <memory_readb+0x18>
    80001264:	02070263          	beqz	a4,80001288 <memory_readb+0x34>
    80001268:	a31ff06f          	j	80000c98 <ppuio_read>
    8000126c:	00300693          	li	a3,3
    80001270:	00d71863          	bne	a4,a3,80001280 <memory_readb+0x2c>
    80001274:	03351513          	sll	a0,a0,0x33
    80001278:	03355513          	srl	a0,a0,0x33
    8000127c:	7c00106f          	j	80002a3c <cpu_ram_read>
    80001280:	6ad0206f          	j	8000412c <mmc_read>
    80001284:	7b90206f          	j	8000423c <psgio_read>
    80001288:	7ff57513          	and	a0,a0,2047
    8000128c:	7b00106f          	j	80002a3c <cpu_ram_read>

0000000080001290 <memory_writeb>:
    80001290:	00004737          	lui	a4,0x4
    80001294:	01470713          	add	a4,a4,20 # 4014 <_entry_offset+0x4014>
    80001298:	02e50863          	beq	a0,a4,800012c8 <memory_writeb+0x38>
    8000129c:	00d55713          	srl	a4,a0,0xd
    800012a0:	00200693          	li	a3,2
    800012a4:	08d70463          	beq	a4,a3,8000132c <memory_writeb+0x9c>
    800012a8:	00e6e663          	bltu	a3,a4,800012b4 <memory_writeb+0x24>
    800012ac:	06070c63          	beqz	a4,80001324 <memory_writeb+0x94>
    800012b0:	b81ff06f          	j	80000e30 <ppuio_write>
    800012b4:	00300693          	li	a3,3
    800012b8:	06d71463          	bne	a4,a3,80001320 <memory_writeb+0x90>
    800012bc:	03351793          	sll	a5,a0,0x33
    800012c0:	0337d513          	srl	a0,a5,0x33
    800012c4:	7900106f          	j	80002a54 <cpu_ram_write>
    800012c8:	fe010113          	add	sp,sp,-32
    800012cc:	00913423          	sd	s1,8(sp)
    800012d0:	0015849b          	addw	s1,a1,1 # 11110001 <_entry_offset+0x11110001>
    800012d4:	0084949b          	sllw	s1,s1,0x8
    800012d8:	03049493          	sll	s1,s1,0x30
    800012dc:	0304d493          	srl	s1,s1,0x30
    800012e0:	00813823          	sd	s0,16(sp)
    800012e4:	00113c23          	sd	ra,24(sp)
    800012e8:	00859413          	sll	s0,a1,0x8
    800012ec:	0004849b          	sext.w	s1,s1
    800012f0:	00040513          	mv	a0,s0
    800012f4:	0014041b          	addw	s0,s0,1
    800012f8:	03041413          	sll	s0,s0,0x30
    800012fc:	740010ef          	jal	80002a3c <cpu_ram_read>
    80001300:	03045413          	srl	s0,s0,0x30
    80001304:	f0dff0ef          	jal	80001210 <ppu_sprram_write>
    80001308:	fe9414e3          	bne	s0,s1,800012f0 <memory_writeb+0x60>
    8000130c:	01813083          	ld	ra,24(sp)
    80001310:	01013403          	ld	s0,16(sp)
    80001314:	00813483          	ld	s1,8(sp)
    80001318:	02010113          	add	sp,sp,32
    8000131c:	00008067          	ret
    80001320:	6210206f          	j	80004140 <mmc_write>
    80001324:	7ff57513          	and	a0,a0,2047
    80001328:	72c0106f          	j	80002a54 <cpu_ram_write>
    8000132c:	76d0206f          	j	80004298 <psgio_write>

0000000080001330 <memory_readw>:
    80001330:	fd010113          	add	sp,sp,-48
    80001334:	02813023          	sd	s0,32(sp)
    80001338:	01213823          	sd	s2,16(sp)
    8000133c:	01313423          	sd	s3,8(sp)
    80001340:	02113423          	sd	ra,40(sp)
    80001344:	00913c23          	sd	s1,24(sp)
    80001348:	00d55913          	srl	s2,a0,0xd
    8000134c:	00200993          	li	s3,2
    80001350:	00050413          	mv	s0,a0
    80001354:	11390463          	beq	s2,s3,8000145c <memory_readw+0x12c>
    80001358:	0529ee63          	bltu	s3,s2,800013b4 <memory_readw+0x84>
    8000135c:	0c090263          	beqz	s2,80001420 <memory_readw+0xf0>
    80001360:	939ff0ef          	jal	80000c98 <ppuio_read>
    80001364:	0014041b          	addw	s0,s0,1
    80001368:	03041793          	sll	a5,s0,0x30
    8000136c:	0307d793          	srl	a5,a5,0x30
    80001370:	00d7d713          	srl	a4,a5,0xd
    80001374:	00050493          	mv	s1,a0
    80001378:	00004437          	lui	s0,0x4
    8000137c:	0d371463          	bne	a4,s3,80001444 <memory_readw+0x114>
    80001380:	00040513          	mv	a0,s0
    80001384:	6b9020ef          	jal	8000423c <psgio_read>
    80001388:	02813083          	ld	ra,40(sp)
    8000138c:	02013403          	ld	s0,32(sp)
    80001390:	0085179b          	sllw	a5,a0,0x8
    80001394:	0097853b          	addw	a0,a5,s1
    80001398:	03051513          	sll	a0,a0,0x30
    8000139c:	01813483          	ld	s1,24(sp)
    800013a0:	01013903          	ld	s2,16(sp)
    800013a4:	00813983          	ld	s3,8(sp)
    800013a8:	03055513          	srl	a0,a0,0x30
    800013ac:	03010113          	add	sp,sp,48
    800013b0:	00008067          	ret
    800013b4:	00300793          	li	a5,3
    800013b8:	02f91e63          	bne	s2,a5,800013f4 <memory_readw+0xc4>
    800013bc:	03351513          	sll	a0,a0,0x33
    800013c0:	03355513          	srl	a0,a0,0x33
    800013c4:	678010ef          	jal	80002a3c <cpu_ram_read>
    800013c8:	0014041b          	addw	s0,s0,1 # 4001 <_entry_offset+0x4001>
    800013cc:	03041793          	sll	a5,s0,0x30
    800013d0:	0307d793          	srl	a5,a5,0x30
    800013d4:	00050493          	mv	s1,a0
    800013d8:	00d7d713          	srl	a4,a5,0xd
    800013dc:	00300693          	li	a3,3
    800013e0:	06d71863          	bne	a4,a3,80001450 <memory_readw+0x120>
    800013e4:	03379513          	sll	a0,a5,0x33
    800013e8:	03355513          	srl	a0,a0,0x33
    800013ec:	650010ef          	jal	80002a3c <cpu_ram_read>
    800013f0:	f99ff06f          	j	80001388 <memory_readw+0x58>
    800013f4:	539020ef          	jal	8000412c <mmc_read>
    800013f8:	0014041b          	addw	s0,s0,1
    800013fc:	03041793          	sll	a5,s0,0x30
    80001400:	0307d793          	srl	a5,a5,0x30
    80001404:	00d7d713          	srl	a4,a5,0xd
    80001408:	00050493          	mv	s1,a0
    8000140c:	00000413          	li	s0,0
    80001410:	fce9e6e3          	bltu	s3,a4,800013dc <memory_readw+0xac>
    80001414:	7ff47513          	and	a0,s0,2047
    80001418:	624010ef          	jal	80002a3c <cpu_ram_read>
    8000141c:	f6dff06f          	j	80001388 <memory_readw+0x58>
    80001420:	0014041b          	addw	s0,s0,1
    80001424:	7ff57513          	and	a0,a0,2047
    80001428:	03041413          	sll	s0,s0,0x30
    8000142c:	610010ef          	jal	80002a3c <cpu_ram_read>
    80001430:	03045413          	srl	s0,s0,0x30
    80001434:	00d45793          	srl	a5,s0,0xd
    80001438:	00050493          	mv	s1,a0
    8000143c:	fc078ce3          	beqz	a5,80001414 <memory_readw+0xe4>
    80001440:	000027b7          	lui	a5,0x2
    80001444:	00078513          	mv	a0,a5
    80001448:	851ff0ef          	jal	80000c98 <ppuio_read>
    8000144c:	f3dff06f          	j	80001388 <memory_readw+0x58>
    80001450:	00078513          	mv	a0,a5
    80001454:	4d9020ef          	jal	8000412c <mmc_read>
    80001458:	f31ff06f          	j	80001388 <memory_readw+0x58>
    8000145c:	0014041b          	addw	s0,s0,1
    80001460:	03041413          	sll	s0,s0,0x30
    80001464:	5d9020ef          	jal	8000423c <psgio_read>
    80001468:	03045413          	srl	s0,s0,0x30
    8000146c:	00d45793          	srl	a5,s0,0xd
    80001470:	00050493          	mv	s1,a0
    80001474:	f12786e3          	beq	a5,s2,80001380 <memory_readw+0x50>
    80001478:	000067b7          	lui	a5,0x6
    8000147c:	f69ff06f          	j	800013e4 <memory_readw+0xb4>

0000000080001480 <memory_writew>:
    80001480:	fe010113          	add	sp,sp,-32
    80001484:	00913423          	sd	s1,8(sp)
    80001488:	00058493          	mv	s1,a1
    8000148c:	0ff5f593          	zext.b	a1,a1
    80001490:	00813823          	sd	s0,16(sp)
    80001494:	00113c23          	sd	ra,24(sp)
    80001498:	00050413          	mv	s0,a0
    8000149c:	df5ff0ef          	jal	80001290 <memory_writeb>
    800014a0:	0014051b          	addw	a0,s0,1
    800014a4:	01013403          	ld	s0,16(sp)
    800014a8:	01813083          	ld	ra,24(sp)
    800014ac:	0084d593          	srl	a1,s1,0x8
    800014b0:	00813483          	ld	s1,8(sp)
    800014b4:	03051513          	sll	a0,a0,0x30
    800014b8:	03055513          	srl	a0,a0,0x30
    800014bc:	02010113          	add	sp,sp,32
    800014c0:	dd1ff06f          	j	80001290 <memory_writeb>

00000000800014c4 <____FE____>:
    800014c4:	00008067          	ret

00000000800014c8 <cpu_op_and>:
    800014c8:	0017a717          	auipc	a4,0x17a
    800014cc:	f1070713          	add	a4,a4,-240 # 8017b3d8 <cpu>
    800014d0:	00374683          	lbu	a3,3(a4)
    800014d4:	0017a797          	auipc	a5,0x17a
    800014d8:	efc7a783          	lw	a5,-260(a5) # 8017b3d0 <op_value>
    800014dc:	00004617          	auipc	a2,0x4
    800014e0:	95c60613          	add	a2,a2,-1700 # 80004e38 <cpu_zn_flag_table>
    800014e4:	00f6f6b3          	and	a3,a3,a5
    800014e8:	00d60633          	add	a2,a2,a3
    800014ec:	00674783          	lbu	a5,6(a4)
    800014f0:	00064603          	lbu	a2,0(a2)
    800014f4:	00d701a3          	sb	a3,3(a4)
    800014f8:	07d7f793          	and	a5,a5,125
    800014fc:	00c7e7b3          	or	a5,a5,a2
    80001500:	00f70323          	sb	a5,6(a4)
    80001504:	00008067          	ret

0000000080001508 <cpu_op_eor>:
    80001508:	0017a717          	auipc	a4,0x17a
    8000150c:	ed070713          	add	a4,a4,-304 # 8017b3d8 <cpu>
    80001510:	00374683          	lbu	a3,3(a4)
    80001514:	0017a797          	auipc	a5,0x17a
    80001518:	ebc7c783          	lbu	a5,-324(a5) # 8017b3d0 <op_value>
    8000151c:	00004617          	auipc	a2,0x4
    80001520:	91c60613          	add	a2,a2,-1764 # 80004e38 <cpu_zn_flag_table>
    80001524:	00f6c6b3          	xor	a3,a3,a5
    80001528:	00d60633          	add	a2,a2,a3
    8000152c:	00674783          	lbu	a5,6(a4)
    80001530:	00064603          	lbu	a2,0(a2)
    80001534:	00d701a3          	sb	a3,3(a4)
    80001538:	07d7f793          	and	a5,a5,125
    8000153c:	00c7e7b3          	or	a5,a5,a2
    80001540:	00f70323          	sb	a5,6(a4)
    80001544:	00008067          	ret

0000000080001548 <cpu_op_ora>:
    80001548:	0017a717          	auipc	a4,0x17a
    8000154c:	e9070713          	add	a4,a4,-368 # 8017b3d8 <cpu>
    80001550:	00374683          	lbu	a3,3(a4)
    80001554:	0017a797          	auipc	a5,0x17a
    80001558:	e7c7c783          	lbu	a5,-388(a5) # 8017b3d0 <op_value>
    8000155c:	00004617          	auipc	a2,0x4
    80001560:	8dc60613          	add	a2,a2,-1828 # 80004e38 <cpu_zn_flag_table>
    80001564:	00f6e6b3          	or	a3,a3,a5
    80001568:	00d60633          	add	a2,a2,a3
    8000156c:	00674783          	lbu	a5,6(a4)
    80001570:	00064603          	lbu	a2,0(a2)
    80001574:	00d701a3          	sb	a3,3(a4)
    80001578:	07d7f793          	and	a5,a5,125
    8000157c:	00c7e7b3          	or	a5,a5,a2
    80001580:	00f70323          	sb	a5,6(a4)
    80001584:	00008067          	ret

0000000080001588 <cpu_op_lda>:
    80001588:	0017a617          	auipc	a2,0x17a
    8000158c:	e4862603          	lw	a2,-440(a2) # 8017b3d0 <op_value>
    80001590:	0017a717          	auipc	a4,0x17a
    80001594:	e4870713          	add	a4,a4,-440 # 8017b3d8 <cpu>
    80001598:	0ff67593          	zext.b	a1,a2
    8000159c:	00004697          	auipc	a3,0x4
    800015a0:	89c68693          	add	a3,a3,-1892 # 80004e38 <cpu_zn_flag_table>
    800015a4:	00674783          	lbu	a5,6(a4)
    800015a8:	00b686b3          	add	a3,a3,a1
    800015ac:	0006c683          	lbu	a3,0(a3)
    800015b0:	07d7f793          	and	a5,a5,125
    800015b4:	00c701a3          	sb	a2,3(a4)
    800015b8:	00d7e7b3          	or	a5,a5,a3
    800015bc:	00f70323          	sb	a5,6(a4)
    800015c0:	00008067          	ret

00000000800015c4 <cpu_op_ldx>:
    800015c4:	0017a617          	auipc	a2,0x17a
    800015c8:	e0c62603          	lw	a2,-500(a2) # 8017b3d0 <op_value>
    800015cc:	0017a717          	auipc	a4,0x17a
    800015d0:	e0c70713          	add	a4,a4,-500 # 8017b3d8 <cpu>
    800015d4:	0ff67593          	zext.b	a1,a2
    800015d8:	00004697          	auipc	a3,0x4
    800015dc:	86068693          	add	a3,a3,-1952 # 80004e38 <cpu_zn_flag_table>
    800015e0:	00674783          	lbu	a5,6(a4)
    800015e4:	00b686b3          	add	a3,a3,a1
    800015e8:	0006c683          	lbu	a3,0(a3)
    800015ec:	07d7f793          	and	a5,a5,125
    800015f0:	00c70223          	sb	a2,4(a4)
    800015f4:	00d7e7b3          	or	a5,a5,a3
    800015f8:	00f70323          	sb	a5,6(a4)
    800015fc:	00008067          	ret

0000000080001600 <cpu_op_ldy>:
    80001600:	0017a617          	auipc	a2,0x17a
    80001604:	dd062603          	lw	a2,-560(a2) # 8017b3d0 <op_value>
    80001608:	0017a717          	auipc	a4,0x17a
    8000160c:	dd070713          	add	a4,a4,-560 # 8017b3d8 <cpu>
    80001610:	0ff67593          	zext.b	a1,a2
    80001614:	00004697          	auipc	a3,0x4
    80001618:	82468693          	add	a3,a3,-2012 # 80004e38 <cpu_zn_flag_table>
    8000161c:	00674783          	lbu	a5,6(a4)
    80001620:	00b686b3          	add	a3,a3,a1
    80001624:	0006c683          	lbu	a3,0(a3)
    80001628:	07d7f793          	and	a5,a5,125
    8000162c:	00c702a3          	sb	a2,5(a4)
    80001630:	00d7e7b3          	or	a5,a5,a3
    80001634:	00f70323          	sb	a5,6(a4)
    80001638:	00008067          	ret

000000008000163c <cpu_op_tax>:
    8000163c:	0017a717          	auipc	a4,0x17a
    80001640:	d9c70713          	add	a4,a4,-612 # 8017b3d8 <cpu>
    80001644:	00374603          	lbu	a2,3(a4)
    80001648:	00003697          	auipc	a3,0x3
    8000164c:	7f068693          	add	a3,a3,2032 # 80004e38 <cpu_zn_flag_table>
    80001650:	00674783          	lbu	a5,6(a4)
    80001654:	00c686b3          	add	a3,a3,a2
    80001658:	0006c683          	lbu	a3,0(a3)
    8000165c:	07d7f793          	and	a5,a5,125
    80001660:	00c70223          	sb	a2,4(a4)
    80001664:	00d7e7b3          	or	a5,a5,a3
    80001668:	00f70323          	sb	a5,6(a4)
    8000166c:	00008067          	ret

0000000080001670 <cpu_op_txa>:
    80001670:	0017a717          	auipc	a4,0x17a
    80001674:	d6870713          	add	a4,a4,-664 # 8017b3d8 <cpu>
    80001678:	00474603          	lbu	a2,4(a4)
    8000167c:	00003697          	auipc	a3,0x3
    80001680:	7bc68693          	add	a3,a3,1980 # 80004e38 <cpu_zn_flag_table>
    80001684:	00674783          	lbu	a5,6(a4)
    80001688:	00c686b3          	add	a3,a3,a2
    8000168c:	0006c683          	lbu	a3,0(a3)
    80001690:	07d7f793          	and	a5,a5,125
    80001694:	00c701a3          	sb	a2,3(a4)
    80001698:	00d7e7b3          	or	a5,a5,a3
    8000169c:	00f70323          	sb	a5,6(a4)
    800016a0:	00008067          	ret

00000000800016a4 <cpu_op_tay>:
    800016a4:	0017a717          	auipc	a4,0x17a
    800016a8:	d3470713          	add	a4,a4,-716 # 8017b3d8 <cpu>
    800016ac:	00374603          	lbu	a2,3(a4)
    800016b0:	00003697          	auipc	a3,0x3
    800016b4:	78868693          	add	a3,a3,1928 # 80004e38 <cpu_zn_flag_table>
    800016b8:	00674783          	lbu	a5,6(a4)
    800016bc:	00c686b3          	add	a3,a3,a2
    800016c0:	0006c683          	lbu	a3,0(a3)
    800016c4:	07d7f793          	and	a5,a5,125
    800016c8:	00c702a3          	sb	a2,5(a4)
    800016cc:	00d7e7b3          	or	a5,a5,a3
    800016d0:	00f70323          	sb	a5,6(a4)
    800016d4:	00008067          	ret

00000000800016d8 <cpu_op_tya>:
    800016d8:	0017a717          	auipc	a4,0x17a
    800016dc:	d0070713          	add	a4,a4,-768 # 8017b3d8 <cpu>
    800016e0:	00574603          	lbu	a2,5(a4)
    800016e4:	00003697          	auipc	a3,0x3
    800016e8:	75468693          	add	a3,a3,1876 # 80004e38 <cpu_zn_flag_table>
    800016ec:	00674783          	lbu	a5,6(a4)
    800016f0:	00c686b3          	add	a3,a3,a2
    800016f4:	0006c683          	lbu	a3,0(a3)
    800016f8:	07d7f793          	and	a5,a5,125
    800016fc:	00c701a3          	sb	a2,3(a4)
    80001700:	00d7e7b3          	or	a5,a5,a3
    80001704:	00f70323          	sb	a5,6(a4)
    80001708:	00008067          	ret

000000008000170c <cpu_op_tsx>:
    8000170c:	0017a717          	auipc	a4,0x17a
    80001710:	ccc70713          	add	a4,a4,-820 # 8017b3d8 <cpu>
    80001714:	00274603          	lbu	a2,2(a4)
    80001718:	00003697          	auipc	a3,0x3
    8000171c:	72068693          	add	a3,a3,1824 # 80004e38 <cpu_zn_flag_table>
    80001720:	00674783          	lbu	a5,6(a4)
    80001724:	00c686b3          	add	a3,a3,a2
    80001728:	0006c683          	lbu	a3,0(a3)
    8000172c:	07d7f793          	and	a5,a5,125
    80001730:	00c70223          	sb	a2,4(a4)
    80001734:	00d7e7b3          	or	a5,a5,a3
    80001738:	00f70323          	sb	a5,6(a4)
    8000173c:	00008067          	ret

0000000080001740 <cpu_op_txs>:
    80001740:	0017a797          	auipc	a5,0x17a
    80001744:	c9878793          	add	a5,a5,-872 # 8017b3d8 <cpu>
    80001748:	0047c703          	lbu	a4,4(a5)
    8000174c:	00e78123          	sb	a4,2(a5)
    80001750:	00008067          	ret

0000000080001754 <cpu_op_jmp>:
    80001754:	0017a797          	auipc	a5,0x17a
    80001758:	c787a783          	lw	a5,-904(a5) # 8017b3cc <op_address>
    8000175c:	0017a717          	auipc	a4,0x17a
    80001760:	c6f71e23          	sh	a5,-900(a4) # 8017b3d8 <cpu>
    80001764:	00008067          	ret

0000000080001768 <cpu_op_inx>:
    80001768:	0017a697          	auipc	a3,0x17a
    8000176c:	c7068693          	add	a3,a3,-912 # 8017b3d8 <cpu>
    80001770:	0046c783          	lbu	a5,4(a3)
    80001774:	00003617          	auipc	a2,0x3
    80001778:	6c460613          	add	a2,a2,1732 # 80004e38 <cpu_zn_flag_table>
    8000177c:	0066c703          	lbu	a4,6(a3)
    80001780:	0017879b          	addw	a5,a5,1
    80001784:	0ff7f793          	zext.b	a5,a5
    80001788:	00f60633          	add	a2,a2,a5
    8000178c:	00064603          	lbu	a2,0(a2)
    80001790:	07d77713          	and	a4,a4,125
    80001794:	00f68223          	sb	a5,4(a3)
    80001798:	00c767b3          	or	a5,a4,a2
    8000179c:	00f68323          	sb	a5,6(a3)
    800017a0:	00008067          	ret

00000000800017a4 <cpu_op_iny>:
    800017a4:	0017a697          	auipc	a3,0x17a
    800017a8:	c3468693          	add	a3,a3,-972 # 8017b3d8 <cpu>
    800017ac:	0056c783          	lbu	a5,5(a3)
    800017b0:	00003617          	auipc	a2,0x3
    800017b4:	68860613          	add	a2,a2,1672 # 80004e38 <cpu_zn_flag_table>
    800017b8:	0066c703          	lbu	a4,6(a3)
    800017bc:	0017879b          	addw	a5,a5,1
    800017c0:	0ff7f793          	zext.b	a5,a5
    800017c4:	00f60633          	add	a2,a2,a5
    800017c8:	00064603          	lbu	a2,0(a2)
    800017cc:	07d77713          	and	a4,a4,125
    800017d0:	00f682a3          	sb	a5,5(a3)
    800017d4:	00c767b3          	or	a5,a4,a2
    800017d8:	00f68323          	sb	a5,6(a3)
    800017dc:	00008067          	ret

00000000800017e0 <cpu_op_dex>:
    800017e0:	0017a697          	auipc	a3,0x17a
    800017e4:	bf868693          	add	a3,a3,-1032 # 8017b3d8 <cpu>
    800017e8:	0046c783          	lbu	a5,4(a3)
    800017ec:	00003617          	auipc	a2,0x3
    800017f0:	64c60613          	add	a2,a2,1612 # 80004e38 <cpu_zn_flag_table>
    800017f4:	0066c703          	lbu	a4,6(a3)
    800017f8:	fff7879b          	addw	a5,a5,-1
    800017fc:	0ff7f793          	zext.b	a5,a5
    80001800:	00f60633          	add	a2,a2,a5
    80001804:	00064603          	lbu	a2,0(a2)
    80001808:	07d77713          	and	a4,a4,125
    8000180c:	00f68223          	sb	a5,4(a3)
    80001810:	00c767b3          	or	a5,a4,a2
    80001814:	00f68323          	sb	a5,6(a3)
    80001818:	00008067          	ret

000000008000181c <cpu_op_dey>:
    8000181c:	0017a697          	auipc	a3,0x17a
    80001820:	bbc68693          	add	a3,a3,-1092 # 8017b3d8 <cpu>
    80001824:	0056c783          	lbu	a5,5(a3)
    80001828:	00003617          	auipc	a2,0x3
    8000182c:	61060613          	add	a2,a2,1552 # 80004e38 <cpu_zn_flag_table>
    80001830:	0066c703          	lbu	a4,6(a3)
    80001834:	fff7879b          	addw	a5,a5,-1
    80001838:	0ff7f793          	zext.b	a5,a5
    8000183c:	00f60633          	add	a2,a2,a5
    80001840:	00064603          	lbu	a2,0(a2)
    80001844:	07d77713          	and	a4,a4,125
    80001848:	00f682a3          	sb	a5,5(a3)
    8000184c:	00c767b3          	or	a5,a4,a2
    80001850:	00f68323          	sb	a5,6(a3)
    80001854:	00008067          	ret

0000000080001858 <cpu_op_lax>:
    80001858:	0017a717          	auipc	a4,0x17a
    8000185c:	b7872703          	lw	a4,-1160(a4) # 8017b3d0 <op_value>
    80001860:	0017a697          	auipc	a3,0x17a
    80001864:	b7868693          	add	a3,a3,-1160 # 8017b3d8 <cpu>
    80001868:	0ff77593          	zext.b	a1,a4
    8000186c:	00003617          	auipc	a2,0x3
    80001870:	5cc60613          	add	a2,a2,1484 # 80004e38 <cpu_zn_flag_table>
    80001874:	0066c783          	lbu	a5,6(a3)
    80001878:	00b60633          	add	a2,a2,a1
    8000187c:	00064603          	lbu	a2,0(a2)
    80001880:	07d7f793          	and	a5,a5,125
    80001884:	00b68223          	sb	a1,4(a3)
    80001888:	00c7e7b3          	or	a5,a5,a2
    8000188c:	00b681a3          	sb	a1,3(a3)
    80001890:	00f68323          	sb	a5,6(a3)
    80001894:	00008067          	ret

0000000080001898 <cpu_op_rts>:
    80001898:	ff010113          	add	sp,sp,-16
    8000189c:	00813023          	sd	s0,0(sp)
    800018a0:	00113423          	sd	ra,8(sp)
    800018a4:	0017a417          	auipc	s0,0x17a
    800018a8:	b3440413          	add	s0,s0,-1228 # 8017b3d8 <cpu>
    800018ac:	00244783          	lbu	a5,2(s0)
    800018b0:	0027879b          	addw	a5,a5,2
    800018b4:	0ff7f793          	zext.b	a5,a5
    800018b8:	0ff78513          	add	a0,a5,255
    800018bc:	00f40123          	sb	a5,2(s0)
    800018c0:	a71ff0ef          	jal	80001330 <memory_readw>
    800018c4:	0015051b          	addw	a0,a0,1 # 4001 <_entry_offset+0x4001>
    800018c8:	00813083          	ld	ra,8(sp)
    800018cc:	00a41023          	sh	a0,0(s0)
    800018d0:	00013403          	ld	s0,0(sp)
    800018d4:	01010113          	add	sp,sp,16
    800018d8:	00008067          	ret

00000000800018dc <cpu_op_sta>:
    800018dc:	0017a597          	auipc	a1,0x17a
    800018e0:	aff5c583          	lbu	a1,-1281(a1) # 8017b3db <cpu+0x3>
    800018e4:	0017a517          	auipc	a0,0x17a
    800018e8:	ae855503          	lhu	a0,-1304(a0) # 8017b3cc <op_address>
    800018ec:	9a5ff06f          	j	80001290 <memory_writeb>

00000000800018f0 <cpu_op_stx>:
    800018f0:	0017a597          	auipc	a1,0x17a
    800018f4:	aec5c583          	lbu	a1,-1300(a1) # 8017b3dc <cpu+0x4>
    800018f8:	0017a517          	auipc	a0,0x17a
    800018fc:	ad455503          	lhu	a0,-1324(a0) # 8017b3cc <op_address>
    80001900:	991ff06f          	j	80001290 <memory_writeb>

0000000080001904 <cpu_op_sty>:
    80001904:	0017a597          	auipc	a1,0x17a
    80001908:	ad95c583          	lbu	a1,-1319(a1) # 8017b3dd <cpu+0x5>
    8000190c:	0017a517          	auipc	a0,0x17a
    80001910:	ac055503          	lhu	a0,-1344(a0) # 8017b3cc <op_address>
    80001914:	97dff06f          	j	80001290 <memory_writeb>

0000000080001918 <cpu_op_inc>:
    80001918:	ff010113          	add	sp,sp,-16
    8000191c:	00813023          	sd	s0,0(sp)
    80001920:	0017a417          	auipc	s0,0x17a
    80001924:	ab042403          	lw	s0,-1360(s0) # 8017b3d0 <op_value>
    80001928:	0014041b          	addw	s0,s0,1
    8000192c:	0ff47413          	zext.b	s0,s0
    80001930:	00040593          	mv	a1,s0
    80001934:	0017a517          	auipc	a0,0x17a
    80001938:	a9855503          	lhu	a0,-1384(a0) # 8017b3cc <op_address>
    8000193c:	00113423          	sd	ra,8(sp)
    80001940:	951ff0ef          	jal	80001290 <memory_writeb>
    80001944:	0017a697          	auipc	a3,0x17a
    80001948:	a9468693          	add	a3,a3,-1388 # 8017b3d8 <cpu>
    8000194c:	00003717          	auipc	a4,0x3
    80001950:	4ec70713          	add	a4,a4,1260 # 80004e38 <cpu_zn_flag_table>
    80001954:	0066c783          	lbu	a5,6(a3)
    80001958:	00870733          	add	a4,a4,s0
    8000195c:	00074703          	lbu	a4,0(a4)
    80001960:	07d7f793          	and	a5,a5,125
    80001964:	00e7e7b3          	or	a5,a5,a4
    80001968:	00f68323          	sb	a5,6(a3)
    8000196c:	00813083          	ld	ra,8(sp)
    80001970:	00013403          	ld	s0,0(sp)
    80001974:	01010113          	add	sp,sp,16
    80001978:	00008067          	ret

000000008000197c <cpu_op_dec>:
    8000197c:	ff010113          	add	sp,sp,-16
    80001980:	00813023          	sd	s0,0(sp)
    80001984:	0017a417          	auipc	s0,0x17a
    80001988:	a4c42403          	lw	s0,-1460(s0) # 8017b3d0 <op_value>
    8000198c:	fff4041b          	addw	s0,s0,-1
    80001990:	0ff47413          	zext.b	s0,s0
    80001994:	00040593          	mv	a1,s0
    80001998:	0017a517          	auipc	a0,0x17a
    8000199c:	a3455503          	lhu	a0,-1484(a0) # 8017b3cc <op_address>
    800019a0:	00113423          	sd	ra,8(sp)
    800019a4:	8edff0ef          	jal	80001290 <memory_writeb>
    800019a8:	0017a697          	auipc	a3,0x17a
    800019ac:	a3068693          	add	a3,a3,-1488 # 8017b3d8 <cpu>
    800019b0:	00003717          	auipc	a4,0x3
    800019b4:	48870713          	add	a4,a4,1160 # 80004e38 <cpu_zn_flag_table>
    800019b8:	0066c783          	lbu	a5,6(a3)
    800019bc:	00870733          	add	a4,a4,s0
    800019c0:	00074703          	lbu	a4,0(a4)
    800019c4:	07d7f793          	and	a5,a5,125
    800019c8:	00e7e7b3          	or	a5,a5,a4
    800019cc:	00f68323          	sb	a5,6(a3)
    800019d0:	00813083          	ld	ra,8(sp)
    800019d4:	00013403          	ld	s0,0(sp)
    800019d8:	01010113          	add	sp,sp,16
    800019dc:	00008067          	ret

00000000800019e0 <cpu_op_axa>:
    800019e0:	0017a717          	auipc	a4,0x17a
    800019e4:	9f870713          	add	a4,a4,-1544 # 8017b3d8 <cpu>
    800019e8:	00374783          	lbu	a5,3(a4)
    800019ec:	00474703          	lbu	a4,4(a4)
    800019f0:	0017a517          	auipc	a0,0x17a
    800019f4:	9dc52503          	lw	a0,-1572(a0) # 8017b3cc <op_address>
    800019f8:	4085559b          	sraw	a1,a0,0x8
    800019fc:	00e7f7b3          	and	a5,a5,a4
    80001a00:	03051513          	sll	a0,a0,0x30
    80001a04:	00b7f5b3          	and	a1,a5,a1
    80001a08:	03055513          	srl	a0,a0,0x30
    80001a0c:	885ff06f          	j	80001290 <memory_writeb>

0000000080001a10 <cpu_op_axs>:
    80001a10:	0017a797          	auipc	a5,0x17a
    80001a14:	9c878793          	add	a5,a5,-1592 # 8017b3d8 <cpu>
    80001a18:	0037c583          	lbu	a1,3(a5)
    80001a1c:	0047c783          	lbu	a5,4(a5)
    80001a20:	0017a517          	auipc	a0,0x17a
    80001a24:	9ac55503          	lhu	a0,-1620(a0) # 8017b3cc <op_address>
    80001a28:	00f5f5b3          	and	a1,a1,a5
    80001a2c:	865ff06f          	j	80001290 <memory_writeb>

0000000080001a30 <cpu_op_php>:
    80001a30:	0017a797          	auipc	a5,0x17a
    80001a34:	9a878793          	add	a5,a5,-1624 # 8017b3d8 <cpu>
    80001a38:	0027c503          	lbu	a0,2(a5)
    80001a3c:	0067c583          	lbu	a1,6(a5)
    80001a40:	fff5071b          	addw	a4,a0,-1
    80001a44:	0305e593          	or	a1,a1,48
    80001a48:	10050513          	add	a0,a0,256
    80001a4c:	00e78123          	sb	a4,2(a5)
    80001a50:	841ff06f          	j	80001290 <memory_writeb>

0000000080001a54 <cpu_op_pha>:
    80001a54:	0017a797          	auipc	a5,0x17a
    80001a58:	98478793          	add	a5,a5,-1660 # 8017b3d8 <cpu>
    80001a5c:	0027c503          	lbu	a0,2(a5)
    80001a60:	0037c583          	lbu	a1,3(a5)
    80001a64:	fff5071b          	addw	a4,a0,-1
    80001a68:	10050513          	add	a0,a0,256
    80001a6c:	00e78123          	sb	a4,2(a5)
    80001a70:	821ff06f          	j	80001290 <memory_writeb>

0000000080001a74 <cpu_op_jsr>:
    80001a74:	ff010113          	add	sp,sp,-16
    80001a78:	00813023          	sd	s0,0(sp)
    80001a7c:	0017a417          	auipc	s0,0x17a
    80001a80:	95c40413          	add	s0,s0,-1700 # 8017b3d8 <cpu>
    80001a84:	00045583          	lhu	a1,0(s0)
    80001a88:	00113423          	sd	ra,8(sp)
    80001a8c:	00244503          	lbu	a0,2(s0)
    80001a90:	fff5859b          	addw	a1,a1,-1
    80001a94:	03059593          	sll	a1,a1,0x30
    80001a98:	0305d593          	srl	a1,a1,0x30
    80001a9c:	0ff50513          	add	a0,a0,255
    80001aa0:	9e1ff0ef          	jal	80001480 <memory_writew>
    80001aa4:	00244783          	lbu	a5,2(s0)
    80001aa8:	0017a717          	auipc	a4,0x17a
    80001aac:	92472703          	lw	a4,-1756(a4) # 8017b3cc <op_address>
    80001ab0:	00e41023          	sh	a4,0(s0)
    80001ab4:	ffe7879b          	addw	a5,a5,-2
    80001ab8:	00f40123          	sb	a5,2(s0)
    80001abc:	00813083          	ld	ra,8(sp)
    80001ac0:	00013403          	ld	s0,0(sp)
    80001ac4:	01010113          	add	sp,sp,16
    80001ac8:	00008067          	ret

0000000080001acc <cpu_op_brk>:
    80001acc:	ff010113          	add	sp,sp,-16
    80001ad0:	00813023          	sd	s0,0(sp)
    80001ad4:	0017a417          	auipc	s0,0x17a
    80001ad8:	90440413          	add	s0,s0,-1788 # 8017b3d8 <cpu>
    80001adc:	00045583          	lhu	a1,0(s0)
    80001ae0:	00113423          	sd	ra,8(sp)
    80001ae4:	00244503          	lbu	a0,2(s0)
    80001ae8:	fff5859b          	addw	a1,a1,-1
    80001aec:	03059593          	sll	a1,a1,0x30
    80001af0:	0305d593          	srl	a1,a1,0x30
    80001af4:	0ff50513          	add	a0,a0,255
    80001af8:	989ff0ef          	jal	80001480 <memory_writew>
    80001afc:	00244783          	lbu	a5,2(s0)
    80001b00:	00644583          	lbu	a1,6(s0)
    80001b04:	ffe7851b          	addw	a0,a5,-2
    80001b08:	0ff57513          	zext.b	a0,a0
    80001b0c:	1005051b          	addw	a0,a0,256
    80001b10:	03051513          	sll	a0,a0,0x30
    80001b14:	ffd7879b          	addw	a5,a5,-3
    80001b18:	03055513          	srl	a0,a0,0x30
    80001b1c:	00f40123          	sb	a5,2(s0)
    80001b20:	f70ff0ef          	jal	80001290 <memory_writeb>
    80001b24:	00644783          	lbu	a5,6(s0)
    80001b28:	00010537          	lui	a0,0x10
    80001b2c:	ffa50513          	add	a0,a0,-6 # fffa <_entry_offset+0xfffa>
    80001b30:	0307e793          	or	a5,a5,48
    80001b34:	00f40323          	sb	a5,6(s0)
    80001b38:	ff8ff0ef          	jal	80001330 <memory_readw>
    80001b3c:	00813083          	ld	ra,8(sp)
    80001b40:	00a41023          	sh	a0,0(s0)
    80001b44:	00013403          	ld	s0,0(sp)
    80001b48:	01010113          	add	sp,sp,16
    80001b4c:	00008067          	ret

0000000080001b50 <cpu_op_pla>:
    80001b50:	ff010113          	add	sp,sp,-16
    80001b54:	00813023          	sd	s0,0(sp)
    80001b58:	00113423          	sd	ra,8(sp)
    80001b5c:	0017a417          	auipc	s0,0x17a
    80001b60:	87c40413          	add	s0,s0,-1924 # 8017b3d8 <cpu>
    80001b64:	00244783          	lbu	a5,2(s0)
    80001b68:	0017879b          	addw	a5,a5,1
    80001b6c:	0ff7f793          	zext.b	a5,a5
    80001b70:	10078513          	add	a0,a5,256
    80001b74:	00f40123          	sb	a5,2(s0)
    80001b78:	edcff0ef          	jal	80001254 <memory_readb>
    80001b7c:	00003717          	auipc	a4,0x3
    80001b80:	2bc70713          	add	a4,a4,700 # 80004e38 <cpu_zn_flag_table>
    80001b84:	00644783          	lbu	a5,6(s0)
    80001b88:	00a70733          	add	a4,a4,a0
    80001b8c:	00074703          	lbu	a4,0(a4)
    80001b90:	07d7f793          	and	a5,a5,125
    80001b94:	00a401a3          	sb	a0,3(s0)
    80001b98:	00e7e7b3          	or	a5,a5,a4
    80001b9c:	00f40323          	sb	a5,6(s0)
    80001ba0:	00813083          	ld	ra,8(sp)
    80001ba4:	00013403          	ld	s0,0(sp)
    80001ba8:	01010113          	add	sp,sp,16
    80001bac:	00008067          	ret

0000000080001bb0 <cpu_op_plp>:
    80001bb0:	ff010113          	add	sp,sp,-16
    80001bb4:	00813023          	sd	s0,0(sp)
    80001bb8:	00113423          	sd	ra,8(sp)
    80001bbc:	0017a417          	auipc	s0,0x17a
    80001bc0:	81c40413          	add	s0,s0,-2020 # 8017b3d8 <cpu>
    80001bc4:	00244783          	lbu	a5,2(s0)
    80001bc8:	0017879b          	addw	a5,a5,1
    80001bcc:	0ff7f793          	zext.b	a5,a5
    80001bd0:	10078513          	add	a0,a5,256
    80001bd4:	00f40123          	sb	a5,2(s0)
    80001bd8:	e7cff0ef          	jal	80001254 <memory_readb>
    80001bdc:	fcf57513          	and	a0,a0,-49
    80001be0:	02056513          	or	a0,a0,32
    80001be4:	00a40323          	sb	a0,6(s0)
    80001be8:	00813083          	ld	ra,8(sp)
    80001bec:	00013403          	ld	s0,0(sp)
    80001bf0:	01010113          	add	sp,sp,16
    80001bf4:	00008067          	ret

0000000080001bf8 <cpu_op_rti>:
    80001bf8:	ff010113          	add	sp,sp,-16
    80001bfc:	00113423          	sd	ra,8(sp)
    80001c00:	00813023          	sd	s0,0(sp)
    80001c04:	00179417          	auipc	s0,0x179
    80001c08:	7d440413          	add	s0,s0,2004 # 8017b3d8 <cpu>
    80001c0c:	00244783          	lbu	a5,2(s0)
    80001c10:	0017879b          	addw	a5,a5,1
    80001c14:	0ff7f793          	zext.b	a5,a5
    80001c18:	10078513          	add	a0,a5,256
    80001c1c:	00f40123          	sb	a5,2(s0)
    80001c20:	e34ff0ef          	jal	80001254 <memory_readb>
    80001c24:	00244783          	lbu	a5,2(s0)
    80001c28:	02056513          	or	a0,a0,32
    80001c2c:	00a40323          	sb	a0,6(s0)
    80001c30:	0027879b          	addw	a5,a5,2
    80001c34:	0ff7f793          	zext.b	a5,a5
    80001c38:	0ff78513          	add	a0,a5,255
    80001c3c:	00f40123          	sb	a5,2(s0)
    80001c40:	ef0ff0ef          	jal	80001330 <memory_readw>
    80001c44:	00813083          	ld	ra,8(sp)
    80001c48:	00a41023          	sh	a0,0(s0)
    80001c4c:	00013403          	ld	s0,0(sp)
    80001c50:	01010113          	add	sp,sp,16
    80001c54:	00008067          	ret

0000000080001c58 <cpu_op_adc>:
    80001c58:	fe010113          	add	sp,sp,-32
    80001c5c:	00113c23          	sd	ra,24(sp)
    80001c60:	00913423          	sd	s1,8(sp)
    80001c64:	01213023          	sd	s2,0(sp)
    80001c68:	00813823          	sd	s0,16(sp)
    80001c6c:	00179497          	auipc	s1,0x179
    80001c70:	76c48493          	add	s1,s1,1900 # 8017b3d8 <cpu>
    80001c74:	00179917          	auipc	s2,0x179
    80001c78:	75c90913          	add	s2,s2,1884 # 8017b3d0 <op_value>
    80001c7c:	00092783          	lw	a5,0(s2)
    80001c80:	0034c403          	lbu	s0,3(s1)
    80001c84:	0064c503          	lbu	a0,6(s1)
    80001c88:	00000593          	li	a1,0
    80001c8c:	00f4043b          	addw	s0,s0,a5
    80001c90:	b80fe0ef          	jal	80000010 <common_bit_set>
    80001c94:	00a4043b          	addw	s0,s0,a0
    80001c98:	4084561b          	sraw	a2,s0,0x8
    80001c9c:	00167613          	and	a2,a2,1
    80001ca0:	00000593          	li	a1,0
    80001ca4:	00179517          	auipc	a0,0x179
    80001ca8:	73a50513          	add	a0,a0,1850 # 8017b3de <cpu+0x6>
    80001cac:	bacfe0ef          	jal	80000058 <common_modify_bitb>
    80001cb0:	0034c783          	lbu	a5,3(s1)
    80001cb4:	00092683          	lw	a3,0(s2)
    80001cb8:	00600593          	li	a1,6
    80001cbc:	0087c733          	xor	a4,a5,s0
    80001cc0:	00d7c633          	xor	a2,a5,a3
    80001cc4:	fff64613          	not	a2,a2
    80001cc8:	00e67633          	and	a2,a2,a4
    80001ccc:	4076561b          	sraw	a2,a2,0x7
    80001cd0:	00167613          	and	a2,a2,1
    80001cd4:	00179517          	auipc	a0,0x179
    80001cd8:	70a50513          	add	a0,a0,1802 # 8017b3de <cpu+0x6>
    80001cdc:	b7cfe0ef          	jal	80000058 <common_modify_bitb>
    80001ce0:	0ff47693          	zext.b	a3,s0
    80001ce4:	00003717          	auipc	a4,0x3
    80001ce8:	15470713          	add	a4,a4,340 # 80004e38 <cpu_zn_flag_table>
    80001cec:	0064c783          	lbu	a5,6(s1)
    80001cf0:	00d70733          	add	a4,a4,a3
    80001cf4:	00074703          	lbu	a4,0(a4)
    80001cf8:	07d7f793          	and	a5,a5,125
    80001cfc:	008481a3          	sb	s0,3(s1)
    80001d00:	00e7e7b3          	or	a5,a5,a4
    80001d04:	00f48323          	sb	a5,6(s1)
    80001d08:	01813083          	ld	ra,24(sp)
    80001d0c:	01013403          	ld	s0,16(sp)
    80001d10:	00813483          	ld	s1,8(sp)
    80001d14:	00013903          	ld	s2,0(sp)
    80001d18:	02010113          	add	sp,sp,32
    80001d1c:	00008067          	ret

0000000080001d20 <cpu_op_sbc>:
    80001d20:	fe010113          	add	sp,sp,-32
    80001d24:	00113c23          	sd	ra,24(sp)
    80001d28:	00913423          	sd	s1,8(sp)
    80001d2c:	01213023          	sd	s2,0(sp)
    80001d30:	00813823          	sd	s0,16(sp)
    80001d34:	00179497          	auipc	s1,0x179
    80001d38:	6a448493          	add	s1,s1,1700 # 8017b3d8 <cpu>
    80001d3c:	00179917          	auipc	s2,0x179
    80001d40:	69490913          	add	s2,s2,1684 # 8017b3d0 <op_value>
    80001d44:	00092783          	lw	a5,0(s2)
    80001d48:	0034c403          	lbu	s0,3(s1)
    80001d4c:	0064c503          	lbu	a0,6(s1)
    80001d50:	00000593          	li	a1,0
    80001d54:	40f4043b          	subw	s0,s0,a5
    80001d58:	ab8fe0ef          	jal	80000010 <common_bit_set>
    80001d5c:	00154513          	xor	a0,a0,1
    80001d60:	0ff57513          	zext.b	a0,a0
    80001d64:	40a4043b          	subw	s0,s0,a0
    80001d68:	4084561b          	sraw	a2,s0,0x8
    80001d6c:	00164613          	xor	a2,a2,1
    80001d70:	00167613          	and	a2,a2,1
    80001d74:	00000593          	li	a1,0
    80001d78:	00179517          	auipc	a0,0x179
    80001d7c:	66650513          	add	a0,a0,1638 # 8017b3de <cpu+0x6>
    80001d80:	ad8fe0ef          	jal	80000058 <common_modify_bitb>
    80001d84:	0034c603          	lbu	a2,3(s1)
    80001d88:	00092703          	lw	a4,0(s2)
    80001d8c:	00600593          	li	a1,6
    80001d90:	008647b3          	xor	a5,a2,s0
    80001d94:	00e64633          	xor	a2,a2,a4
    80001d98:	00f67633          	and	a2,a2,a5
    80001d9c:	4076561b          	sraw	a2,a2,0x7
    80001da0:	00167613          	and	a2,a2,1
    80001da4:	00179517          	auipc	a0,0x179
    80001da8:	63a50513          	add	a0,a0,1594 # 8017b3de <cpu+0x6>
    80001dac:	aacfe0ef          	jal	80000058 <common_modify_bitb>
    80001db0:	0ff47693          	zext.b	a3,s0
    80001db4:	00003797          	auipc	a5,0x3
    80001db8:	08478793          	add	a5,a5,132 # 80004e38 <cpu_zn_flag_table>
    80001dbc:	0064c703          	lbu	a4,6(s1)
    80001dc0:	00d787b3          	add	a5,a5,a3
    80001dc4:	0007c783          	lbu	a5,0(a5)
    80001dc8:	07d77713          	and	a4,a4,125
    80001dcc:	008481a3          	sb	s0,3(s1)
    80001dd0:	00e7e7b3          	or	a5,a5,a4
    80001dd4:	00f48323          	sb	a5,6(s1)
    80001dd8:	01813083          	ld	ra,24(sp)
    80001ddc:	01013403          	ld	s0,16(sp)
    80001de0:	00813483          	ld	s1,8(sp)
    80001de4:	00013903          	ld	s2,0(sp)
    80001de8:	02010113          	add	sp,sp,32
    80001dec:	00008067          	ret

0000000080001df0 <cpu_op_ins>:
    80001df0:	00179797          	auipc	a5,0x179
    80001df4:	5e078793          	add	a5,a5,1504 # 8017b3d0 <op_value>
    80001df8:	0007a583          	lw	a1,0(a5)
    80001dfc:	ff010113          	add	sp,sp,-16
    80001e00:	00113423          	sd	ra,8(sp)
    80001e04:	0015859b          	addw	a1,a1,1
    80001e08:	0ff5f713          	zext.b	a4,a1
    80001e0c:	00179517          	auipc	a0,0x179
    80001e10:	5c055503          	lhu	a0,1472(a0) # 8017b3cc <op_address>
    80001e14:	0ff5f593          	zext.b	a1,a1
    80001e18:	00e7a023          	sw	a4,0(a5)
    80001e1c:	c74ff0ef          	jal	80001290 <memory_writeb>
    80001e20:	00813083          	ld	ra,8(sp)
    80001e24:	01010113          	add	sp,sp,16
    80001e28:	ef9ff06f          	j	80001d20 <cpu_op_sbc>

0000000080001e2c <cpu_op_bit>:
    80001e2c:	fe010113          	add	sp,sp,-32
    80001e30:	00813823          	sd	s0,16(sp)
    80001e34:	00913423          	sd	s1,8(sp)
    80001e38:	00113c23          	sd	ra,24(sp)
    80001e3c:	00179417          	auipc	s0,0x179
    80001e40:	59c40413          	add	s0,s0,1436 # 8017b3d8 <cpu>
    80001e44:	00179497          	auipc	s1,0x179
    80001e48:	58c48493          	add	s1,s1,1420 # 8017b3d0 <op_value>
    80001e4c:	00344783          	lbu	a5,3(s0)
    80001e50:	0004a603          	lw	a2,0(s1)
    80001e54:	00100593          	li	a1,1
    80001e58:	00179517          	auipc	a0,0x179
    80001e5c:	58650513          	add	a0,a0,1414 # 8017b3de <cpu+0x6>
    80001e60:	00f67633          	and	a2,a2,a5
    80001e64:	00163613          	seqz	a2,a2
    80001e68:	9f0fe0ef          	jal	80000058 <common_modify_bitb>
    80001e6c:	00644783          	lbu	a5,6(s0)
    80001e70:	0004a703          	lw	a4,0(s1)
    80001e74:	03f7f793          	and	a5,a5,63
    80001e78:	fc077713          	and	a4,a4,-64
    80001e7c:	00e7e7b3          	or	a5,a5,a4
    80001e80:	00f40323          	sb	a5,6(s0)
    80001e84:	01813083          	ld	ra,24(sp)
    80001e88:	01013403          	ld	s0,16(sp)
    80001e8c:	00813483          	ld	s1,8(sp)
    80001e90:	02010113          	add	sp,sp,32
    80001e94:	00008067          	ret

0000000080001e98 <cpu_op_asla>:
    80001e98:	ff010113          	add	sp,sp,-16
    80001e9c:	00813023          	sd	s0,0(sp)
    80001ea0:	00113423          	sd	ra,8(sp)
    80001ea4:	00179417          	auipc	s0,0x179
    80001ea8:	53440413          	add	s0,s0,1332 # 8017b3d8 <cpu>
    80001eac:	00344603          	lbu	a2,3(s0)
    80001eb0:	00000593          	li	a1,0
    80001eb4:	00179517          	auipc	a0,0x179
    80001eb8:	52a50513          	add	a0,a0,1322 # 8017b3de <cpu+0x6>
    80001ebc:	00765613          	srl	a2,a2,0x7
    80001ec0:	998fe0ef          	jal	80000058 <common_modify_bitb>
    80001ec4:	00344783          	lbu	a5,3(s0)
    80001ec8:	00003697          	auipc	a3,0x3
    80001ecc:	f7068693          	add	a3,a3,-144 # 80004e38 <cpu_zn_flag_table>
    80001ed0:	00644703          	lbu	a4,6(s0)
    80001ed4:	0017979b          	sllw	a5,a5,0x1
    80001ed8:	0ff7f793          	zext.b	a5,a5
    80001edc:	00f686b3          	add	a3,a3,a5
    80001ee0:	0006c683          	lbu	a3,0(a3)
    80001ee4:	07d77713          	and	a4,a4,125
    80001ee8:	00f401a3          	sb	a5,3(s0)
    80001eec:	00d767b3          	or	a5,a4,a3
    80001ef0:	00f40323          	sb	a5,6(s0)
    80001ef4:	00813083          	ld	ra,8(sp)
    80001ef8:	00013403          	ld	s0,0(sp)
    80001efc:	01010113          	add	sp,sp,16
    80001f00:	00008067          	ret

0000000080001f04 <cpu_op_asl>:
    80001f04:	ff010113          	add	sp,sp,-16
    80001f08:	00813023          	sd	s0,0(sp)
    80001f0c:	00179417          	auipc	s0,0x179
    80001f10:	4c440413          	add	s0,s0,1220 # 8017b3d0 <op_value>
    80001f14:	00042603          	lw	a2,0(s0)
    80001f18:	00000593          	li	a1,0
    80001f1c:	00179517          	auipc	a0,0x179
    80001f20:	4c250513          	add	a0,a0,1218 # 8017b3de <cpu+0x6>
    80001f24:	4076561b          	sraw	a2,a2,0x7
    80001f28:	00167613          	and	a2,a2,1
    80001f2c:	00113423          	sd	ra,8(sp)
    80001f30:	928fe0ef          	jal	80000058 <common_modify_bitb>
    80001f34:	00042583          	lw	a1,0(s0)
    80001f38:	00179697          	auipc	a3,0x179
    80001f3c:	4a068693          	add	a3,a3,1184 # 8017b3d8 <cpu>
    80001f40:	00003717          	auipc	a4,0x3
    80001f44:	ef870713          	add	a4,a4,-264 # 80004e38 <cpu_zn_flag_table>
    80001f48:	0015959b          	sllw	a1,a1,0x1
    80001f4c:	0fe5f613          	and	a2,a1,254
    80001f50:	0066c783          	lbu	a5,6(a3)
    80001f54:	00c70733          	add	a4,a4,a2
    80001f58:	00074703          	lbu	a4,0(a4)
    80001f5c:	07d7f793          	and	a5,a5,125
    80001f60:	00c42023          	sw	a2,0(s0)
    80001f64:	00e7e7b3          	or	a5,a5,a4
    80001f68:	00f68323          	sb	a5,6(a3)
    80001f6c:	00013403          	ld	s0,0(sp)
    80001f70:	00813083          	ld	ra,8(sp)
    80001f74:	00179517          	auipc	a0,0x179
    80001f78:	45855503          	lhu	a0,1112(a0) # 8017b3cc <op_address>
    80001f7c:	00060593          	mv	a1,a2
    80001f80:	01010113          	add	sp,sp,16
    80001f84:	b0cff06f          	j	80001290 <memory_writeb>

0000000080001f88 <cpu_op_lsra>:
    80001f88:	fe010113          	add	sp,sp,-32
    80001f8c:	00913423          	sd	s1,8(sp)
    80001f90:	00113c23          	sd	ra,24(sp)
    80001f94:	00813823          	sd	s0,16(sp)
    80001f98:	00179497          	auipc	s1,0x179
    80001f9c:	44048493          	add	s1,s1,1088 # 8017b3d8 <cpu>
    80001fa0:	0034c403          	lbu	s0,3(s1)
    80001fa4:	00000593          	li	a1,0
    80001fa8:	00179517          	auipc	a0,0x179
    80001fac:	43650513          	add	a0,a0,1078 # 8017b3de <cpu+0x6>
    80001fb0:	00147613          	and	a2,s0,1
    80001fb4:	8a4fe0ef          	jal	80000058 <common_modify_bitb>
    80001fb8:	00145413          	srl	s0,s0,0x1
    80001fbc:	00003717          	auipc	a4,0x3
    80001fc0:	e7c70713          	add	a4,a4,-388 # 80004e38 <cpu_zn_flag_table>
    80001fc4:	0064c783          	lbu	a5,6(s1)
    80001fc8:	00870733          	add	a4,a4,s0
    80001fcc:	00074703          	lbu	a4,0(a4)
    80001fd0:	07d7f793          	and	a5,a5,125
    80001fd4:	008481a3          	sb	s0,3(s1)
    80001fd8:	00e7e7b3          	or	a5,a5,a4
    80001fdc:	00f48323          	sb	a5,6(s1)
    80001fe0:	01813083          	ld	ra,24(sp)
    80001fe4:	01013403          	ld	s0,16(sp)
    80001fe8:	00813483          	ld	s1,8(sp)
    80001fec:	02010113          	add	sp,sp,32
    80001ff0:	00008067          	ret

0000000080001ff4 <cpu_op_lsr>:
    80001ff4:	ff010113          	add	sp,sp,-16
    80001ff8:	00813023          	sd	s0,0(sp)
    80001ffc:	00179417          	auipc	s0,0x179
    80002000:	3d440413          	add	s0,s0,980 # 8017b3d0 <op_value>
    80002004:	00042603          	lw	a2,0(s0)
    80002008:	00000593          	li	a1,0
    8000200c:	00179517          	auipc	a0,0x179
    80002010:	3d250513          	add	a0,a0,978 # 8017b3de <cpu+0x6>
    80002014:	00167613          	and	a2,a2,1
    80002018:	00113423          	sd	ra,8(sp)
    8000201c:	83cfe0ef          	jal	80000058 <common_modify_bitb>
    80002020:	00042583          	lw	a1,0(s0)
    80002024:	00179517          	auipc	a0,0x179
    80002028:	3a855503          	lhu	a0,936(a0) # 8017b3cc <op_address>
    8000202c:	4015d593          	sra	a1,a1,0x1
    80002030:	0ff5f793          	zext.b	a5,a1
    80002034:	0ff5f593          	zext.b	a1,a1
    80002038:	00f42023          	sw	a5,0(s0)
    8000203c:	a54ff0ef          	jal	80001290 <memory_writeb>
    80002040:	00042603          	lw	a2,0(s0)
    80002044:	00179697          	auipc	a3,0x179
    80002048:	39468693          	add	a3,a3,916 # 8017b3d8 <cpu>
    8000204c:	00003797          	auipc	a5,0x3
    80002050:	dec78793          	add	a5,a5,-532 # 80004e38 <cpu_zn_flag_table>
    80002054:	0066c703          	lbu	a4,6(a3)
    80002058:	00c787b3          	add	a5,a5,a2
    8000205c:	0007c783          	lbu	a5,0(a5)
    80002060:	07d77713          	and	a4,a4,125
    80002064:	00e7e7b3          	or	a5,a5,a4
    80002068:	00f68323          	sb	a5,6(a3)
    8000206c:	00813083          	ld	ra,8(sp)
    80002070:	00013403          	ld	s0,0(sp)
    80002074:	01010113          	add	sp,sp,16
    80002078:	00008067          	ret

000000008000207c <cpu_op_rola>:
    8000207c:	fe010113          	add	sp,sp,-32
    80002080:	00113c23          	sd	ra,24(sp)
    80002084:	00913423          	sd	s1,8(sp)
    80002088:	00813823          	sd	s0,16(sp)
    8000208c:	00179497          	auipc	s1,0x179
    80002090:	34c48493          	add	s1,s1,844 # 8017b3d8 <cpu>
    80002094:	0034c403          	lbu	s0,3(s1)
    80002098:	0064c503          	lbu	a0,6(s1)
    8000209c:	00000593          	li	a1,0
    800020a0:	00141413          	sll	s0,s0,0x1
    800020a4:	f6dfd0ef          	jal	80000010 <common_bit_set>
    800020a8:	00a46433          	or	s0,s0,a0
    800020ac:	0004041b          	sext.w	s0,s0
    800020b0:	0ff00613          	li	a2,255
    800020b4:	00862633          	slt	a2,a2,s0
    800020b8:	00000593          	li	a1,0
    800020bc:	00179517          	auipc	a0,0x179
    800020c0:	32250513          	add	a0,a0,802 # 8017b3de <cpu+0x6>
    800020c4:	f95fd0ef          	jal	80000058 <common_modify_bitb>
    800020c8:	0ff47693          	zext.b	a3,s0
    800020cc:	00003717          	auipc	a4,0x3
    800020d0:	d6c70713          	add	a4,a4,-660 # 80004e38 <cpu_zn_flag_table>
    800020d4:	0064c783          	lbu	a5,6(s1)
    800020d8:	00d70733          	add	a4,a4,a3
    800020dc:	00074703          	lbu	a4,0(a4)
    800020e0:	07d7f793          	and	a5,a5,125
    800020e4:	008481a3          	sb	s0,3(s1)
    800020e8:	00e7e7b3          	or	a5,a5,a4
    800020ec:	00f48323          	sb	a5,6(s1)
    800020f0:	01813083          	ld	ra,24(sp)
    800020f4:	01013403          	ld	s0,16(sp)
    800020f8:	00813483          	ld	s1,8(sp)
    800020fc:	02010113          	add	sp,sp,32
    80002100:	00008067          	ret

0000000080002104 <cpu_op_rol>:
    80002104:	fe010113          	add	sp,sp,-32
    80002108:	00813823          	sd	s0,16(sp)
    8000210c:	00179417          	auipc	s0,0x179
    80002110:	2c440413          	add	s0,s0,708 # 8017b3d0 <op_value>
    80002114:	00113c23          	sd	ra,24(sp)
    80002118:	00913423          	sd	s1,8(sp)
    8000211c:	00042783          	lw	a5,0(s0)
    80002120:	00179497          	auipc	s1,0x179
    80002124:	2b848493          	add	s1,s1,696 # 8017b3d8 <cpu>
    80002128:	0064c503          	lbu	a0,6(s1)
    8000212c:	0017979b          	sllw	a5,a5,0x1
    80002130:	00000593          	li	a1,0
    80002134:	00f42023          	sw	a5,0(s0)
    80002138:	ed9fd0ef          	jal	80000010 <common_bit_set>
    8000213c:	00042783          	lw	a5,0(s0)
    80002140:	0ff00613          	li	a2,255
    80002144:	00000593          	li	a1,0
    80002148:	00a7e7b3          	or	a5,a5,a0
    8000214c:	0007879b          	sext.w	a5,a5
    80002150:	00f62633          	slt	a2,a2,a5
    80002154:	00179517          	auipc	a0,0x179
    80002158:	28a50513          	add	a0,a0,650 # 8017b3de <cpu+0x6>
    8000215c:	00f42023          	sw	a5,0(s0)
    80002160:	ef9fd0ef          	jal	80000058 <common_modify_bitb>
    80002164:	00042583          	lw	a1,0(s0)
    80002168:	00179517          	auipc	a0,0x179
    8000216c:	26455503          	lhu	a0,612(a0) # 8017b3cc <op_address>
    80002170:	0ff5f793          	zext.b	a5,a1
    80002174:	0ff5f593          	zext.b	a1,a1
    80002178:	00f42023          	sw	a5,0(s0)
    8000217c:	914ff0ef          	jal	80001290 <memory_writeb>
    80002180:	00042683          	lw	a3,0(s0)
    80002184:	00003717          	auipc	a4,0x3
    80002188:	cb470713          	add	a4,a4,-844 # 80004e38 <cpu_zn_flag_table>
    8000218c:	0064c783          	lbu	a5,6(s1)
    80002190:	00d70733          	add	a4,a4,a3
    80002194:	00074703          	lbu	a4,0(a4)
    80002198:	07d7f793          	and	a5,a5,125
    8000219c:	00e7e7b3          	or	a5,a5,a4
    800021a0:	00f48323          	sb	a5,6(s1)
    800021a4:	01813083          	ld	ra,24(sp)
    800021a8:	01013403          	ld	s0,16(sp)
    800021ac:	00813483          	ld	s1,8(sp)
    800021b0:	02010113          	add	sp,sp,32
    800021b4:	00008067          	ret

00000000800021b8 <cpu_op_rora>:
    800021b8:	fe010113          	add	sp,sp,-32
    800021bc:	00113c23          	sd	ra,24(sp)
    800021c0:	00813823          	sd	s0,16(sp)
    800021c4:	00913423          	sd	s1,8(sp)
    800021c8:	00179497          	auipc	s1,0x179
    800021cc:	21048493          	add	s1,s1,528 # 8017b3d8 <cpu>
    800021d0:	0064c503          	lbu	a0,6(s1)
    800021d4:	00000593          	li	a1,0
    800021d8:	e39fd0ef          	jal	80000010 <common_bit_set>
    800021dc:	0034c603          	lbu	a2,3(s1)
    800021e0:	00050413          	mv	s0,a0
    800021e4:	00000593          	li	a1,0
    800021e8:	00179517          	auipc	a0,0x179
    800021ec:	1f650513          	add	a0,a0,502 # 8017b3de <cpu+0x6>
    800021f0:	00167613          	and	a2,a2,1
    800021f4:	e65fd0ef          	jal	80000058 <common_modify_bitb>
    800021f8:	0034c783          	lbu	a5,3(s1)
    800021fc:	0074171b          	sllw	a4,s0,0x7
    80002200:	00100593          	li	a1,1
    80002204:	0017d79b          	srlw	a5,a5,0x1
    80002208:	00e7e7b3          	or	a5,a5,a4
    8000220c:	0ff7f793          	zext.b	a5,a5
    80002210:	0017b613          	seqz	a2,a5
    80002214:	00179517          	auipc	a0,0x179
    80002218:	1ca50513          	add	a0,a0,458 # 8017b3de <cpu+0x6>
    8000221c:	00f481a3          	sb	a5,3(s1)
    80002220:	e39fd0ef          	jal	80000058 <common_modify_bitb>
    80002224:	00040613          	mv	a2,s0
    80002228:	01013403          	ld	s0,16(sp)
    8000222c:	01813083          	ld	ra,24(sp)
    80002230:	00813483          	ld	s1,8(sp)
    80002234:	00700593          	li	a1,7
    80002238:	00179517          	auipc	a0,0x179
    8000223c:	1a650513          	add	a0,a0,422 # 8017b3de <cpu+0x6>
    80002240:	02010113          	add	sp,sp,32
    80002244:	e15fd06f          	j	80000058 <common_modify_bitb>

0000000080002248 <cpu_op_ror>:
    80002248:	fe010113          	add	sp,sp,-32
    8000224c:	00000593          	li	a1,0
    80002250:	00179517          	auipc	a0,0x179
    80002254:	18e54503          	lbu	a0,398(a0) # 8017b3de <cpu+0x6>
    80002258:	00113c23          	sd	ra,24(sp)
    8000225c:	00813823          	sd	s0,16(sp)
    80002260:	00913423          	sd	s1,8(sp)
    80002264:	00179417          	auipc	s0,0x179
    80002268:	16c40413          	add	s0,s0,364 # 8017b3d0 <op_value>
    8000226c:	da5fd0ef          	jal	80000010 <common_bit_set>
    80002270:	00042603          	lw	a2,0(s0)
    80002274:	00050493          	mv	s1,a0
    80002278:	00000593          	li	a1,0
    8000227c:	00179517          	auipc	a0,0x179
    80002280:	16250513          	add	a0,a0,354 # 8017b3de <cpu+0x6>
    80002284:	00167613          	and	a2,a2,1
    80002288:	dd1fd0ef          	jal	80000058 <common_modify_bitb>
    8000228c:	00042783          	lw	a5,0(s0)
    80002290:	0074971b          	sllw	a4,s1,0x7
    80002294:	00100593          	li	a1,1
    80002298:	4017d79b          	sraw	a5,a5,0x1
    8000229c:	00e7e7b3          	or	a5,a5,a4
    800022a0:	0ff7f793          	zext.b	a5,a5
    800022a4:	0017b613          	seqz	a2,a5
    800022a8:	00179517          	auipc	a0,0x179
    800022ac:	13650513          	add	a0,a0,310 # 8017b3de <cpu+0x6>
    800022b0:	00f42023          	sw	a5,0(s0)
    800022b4:	da5fd0ef          	jal	80000058 <common_modify_bitb>
    800022b8:	00048613          	mv	a2,s1
    800022bc:	00700593          	li	a1,7
    800022c0:	00179517          	auipc	a0,0x179
    800022c4:	11e50513          	add	a0,a0,286 # 8017b3de <cpu+0x6>
    800022c8:	d91fd0ef          	jal	80000058 <common_modify_bitb>
    800022cc:	00044583          	lbu	a1,0(s0)
    800022d0:	01013403          	ld	s0,16(sp)
    800022d4:	01813083          	ld	ra,24(sp)
    800022d8:	00813483          	ld	s1,8(sp)
    800022dc:	00179517          	auipc	a0,0x179
    800022e0:	0f055503          	lhu	a0,240(a0) # 8017b3cc <op_address>
    800022e4:	02010113          	add	sp,sp,32
    800022e8:	fa9fe06f          	j	80001290 <memory_writeb>

00000000800022ec <cpu_op_cmp>:
    800022ec:	fe010113          	add	sp,sp,-32
    800022f0:	00813823          	sd	s0,16(sp)
    800022f4:	00179797          	auipc	a5,0x179
    800022f8:	0dc7a783          	lw	a5,220(a5) # 8017b3d0 <op_value>
    800022fc:	00179417          	auipc	s0,0x179
    80002300:	0df44403          	lbu	s0,223(s0) # 8017b3db <cpu+0x3>
    80002304:	00913423          	sd	s1,8(sp)
    80002308:	40f404bb          	subw	s1,s0,a5
    8000230c:	fff4c613          	not	a2,s1
    80002310:	01f6561b          	srlw	a2,a2,0x1f
    80002314:	00000593          	li	a1,0
    80002318:	00179517          	auipc	a0,0x179
    8000231c:	0c650513          	add	a0,a0,198 # 8017b3de <cpu+0x6>
    80002320:	00113c23          	sd	ra,24(sp)
    80002324:	d35fd0ef          	jal	80000058 <common_modify_bitb>
    80002328:	0014b613          	seqz	a2,s1
    8000232c:	00100593          	li	a1,1
    80002330:	00179517          	auipc	a0,0x179
    80002334:	0ae50513          	add	a0,a0,174 # 8017b3de <cpu+0x6>
    80002338:	d21fd0ef          	jal	80000058 <common_modify_bitb>
    8000233c:	01013403          	ld	s0,16(sp)
    80002340:	01813083          	ld	ra,24(sp)
    80002344:	4074d61b          	sraw	a2,s1,0x7
    80002348:	00813483          	ld	s1,8(sp)
    8000234c:	00167613          	and	a2,a2,1
    80002350:	00700593          	li	a1,7
    80002354:	00179517          	auipc	a0,0x179
    80002358:	08a50513          	add	a0,a0,138 # 8017b3de <cpu+0x6>
    8000235c:	02010113          	add	sp,sp,32
    80002360:	cf9fd06f          	j	80000058 <common_modify_bitb>

0000000080002364 <cpu_op_cpx>:
    80002364:	fe010113          	add	sp,sp,-32
    80002368:	00813823          	sd	s0,16(sp)
    8000236c:	00179797          	auipc	a5,0x179
    80002370:	0647a783          	lw	a5,100(a5) # 8017b3d0 <op_value>
    80002374:	00179417          	auipc	s0,0x179
    80002378:	06844403          	lbu	s0,104(s0) # 8017b3dc <cpu+0x4>
    8000237c:	00913423          	sd	s1,8(sp)
    80002380:	40f404bb          	subw	s1,s0,a5
    80002384:	fff4c613          	not	a2,s1
    80002388:	01f6561b          	srlw	a2,a2,0x1f
    8000238c:	00000593          	li	a1,0
    80002390:	00179517          	auipc	a0,0x179
    80002394:	04e50513          	add	a0,a0,78 # 8017b3de <cpu+0x6>
    80002398:	00113c23          	sd	ra,24(sp)
    8000239c:	cbdfd0ef          	jal	80000058 <common_modify_bitb>
    800023a0:	0014b613          	seqz	a2,s1
    800023a4:	00100593          	li	a1,1
    800023a8:	00179517          	auipc	a0,0x179
    800023ac:	03650513          	add	a0,a0,54 # 8017b3de <cpu+0x6>
    800023b0:	ca9fd0ef          	jal	80000058 <common_modify_bitb>
    800023b4:	01013403          	ld	s0,16(sp)
    800023b8:	01813083          	ld	ra,24(sp)
    800023bc:	4074d61b          	sraw	a2,s1,0x7
    800023c0:	00813483          	ld	s1,8(sp)
    800023c4:	00167613          	and	a2,a2,1
    800023c8:	00700593          	li	a1,7
    800023cc:	00179517          	auipc	a0,0x179
    800023d0:	01250513          	add	a0,a0,18 # 8017b3de <cpu+0x6>
    800023d4:	02010113          	add	sp,sp,32
    800023d8:	c81fd06f          	j	80000058 <common_modify_bitb>

00000000800023dc <cpu_op_cpy>:
    800023dc:	fe010113          	add	sp,sp,-32
    800023e0:	00813823          	sd	s0,16(sp)
    800023e4:	00179797          	auipc	a5,0x179
    800023e8:	fec7a783          	lw	a5,-20(a5) # 8017b3d0 <op_value>
    800023ec:	00179417          	auipc	s0,0x179
    800023f0:	ff144403          	lbu	s0,-15(s0) # 8017b3dd <cpu+0x5>
    800023f4:	00913423          	sd	s1,8(sp)
    800023f8:	40f404bb          	subw	s1,s0,a5
    800023fc:	fff4c613          	not	a2,s1
    80002400:	01f6561b          	srlw	a2,a2,0x1f
    80002404:	00000593          	li	a1,0
    80002408:	00179517          	auipc	a0,0x179
    8000240c:	fd650513          	add	a0,a0,-42 # 8017b3de <cpu+0x6>
    80002410:	00113c23          	sd	ra,24(sp)
    80002414:	c45fd0ef          	jal	80000058 <common_modify_bitb>
    80002418:	0014b613          	seqz	a2,s1
    8000241c:	00100593          	li	a1,1
    80002420:	00179517          	auipc	a0,0x179
    80002424:	fbe50513          	add	a0,a0,-66 # 8017b3de <cpu+0x6>
    80002428:	c31fd0ef          	jal	80000058 <common_modify_bitb>
    8000242c:	01013403          	ld	s0,16(sp)
    80002430:	01813083          	ld	ra,24(sp)
    80002434:	4074d61b          	sraw	a2,s1,0x7
    80002438:	00813483          	ld	s1,8(sp)
    8000243c:	00167613          	and	a2,a2,1
    80002440:	00700593          	li	a1,7
    80002444:	00179517          	auipc	a0,0x179
    80002448:	f9a50513          	add	a0,a0,-102 # 8017b3de <cpu+0x6>
    8000244c:	02010113          	add	sp,sp,32
    80002450:	c09fd06f          	j	80000058 <common_modify_bitb>

0000000080002454 <cpu_op_clc>:
    80002454:	00000593          	li	a1,0
    80002458:	00179517          	auipc	a0,0x179
    8000245c:	f8650513          	add	a0,a0,-122 # 8017b3de <cpu+0x6>
    80002460:	bddfd06f          	j	8000003c <common_unset_bitb>

0000000080002464 <cpu_op_cld>:
    80002464:	00300593          	li	a1,3
    80002468:	00179517          	auipc	a0,0x179
    8000246c:	f7650513          	add	a0,a0,-138 # 8017b3de <cpu+0x6>
    80002470:	bcdfd06f          	j	8000003c <common_unset_bitb>

0000000080002474 <cpu_op_cli>:
    80002474:	00200593          	li	a1,2
    80002478:	00179517          	auipc	a0,0x179
    8000247c:	f6650513          	add	a0,a0,-154 # 8017b3de <cpu+0x6>
    80002480:	bbdfd06f          	j	8000003c <common_unset_bitb>

0000000080002484 <cpu_op_clv>:
    80002484:	00600593          	li	a1,6
    80002488:	00179517          	auipc	a0,0x179
    8000248c:	f5650513          	add	a0,a0,-170 # 8017b3de <cpu+0x6>
    80002490:	badfd06f          	j	8000003c <common_unset_bitb>

0000000080002494 <cpu_op_sec>:
    80002494:	00000593          	li	a1,0
    80002498:	00179517          	auipc	a0,0x179
    8000249c:	f4650513          	add	a0,a0,-186 # 8017b3de <cpu+0x6>
    800024a0:	b85fd06f          	j	80000024 <common_set_bitb>

00000000800024a4 <cpu_op_sed>:
    800024a4:	00300593          	li	a1,3
    800024a8:	00179517          	auipc	a0,0x179
    800024ac:	f3650513          	add	a0,a0,-202 # 8017b3de <cpu+0x6>
    800024b0:	b75fd06f          	j	80000024 <common_set_bitb>

00000000800024b4 <cpu_op_sei>:
    800024b4:	00200593          	li	a1,2
    800024b8:	00179517          	auipc	a0,0x179
    800024bc:	f2650513          	add	a0,a0,-218 # 8017b3de <cpu+0x6>
    800024c0:	b65fd06f          	j	80000024 <common_set_bitb>

00000000800024c4 <cpu_op_bvc>:
    800024c4:	ff010113          	add	sp,sp,-16
    800024c8:	00813023          	sd	s0,0(sp)
    800024cc:	00113423          	sd	ra,8(sp)
    800024d0:	00179417          	auipc	s0,0x179
    800024d4:	f0840413          	add	s0,s0,-248 # 8017b3d8 <cpu>
    800024d8:	00644503          	lbu	a0,6(s0)
    800024dc:	00600593          	li	a1,6
    800024e0:	b31fd0ef          	jal	80000010 <common_bit_set>
    800024e4:	00051863          	bnez	a0,800024f4 <cpu_op_bvc+0x30>
    800024e8:	00179797          	auipc	a5,0x179
    800024ec:	ee47a783          	lw	a5,-284(a5) # 8017b3cc <op_address>
    800024f0:	00f41023          	sh	a5,0(s0)
    800024f4:	00813083          	ld	ra,8(sp)
    800024f8:	00013403          	ld	s0,0(sp)
    800024fc:	01010113          	add	sp,sp,16
    80002500:	00008067          	ret

0000000080002504 <cpu_op_nop>:
    80002504:	00008067          	ret

0000000080002508 <cpu_op_bcs>:
    80002508:	ff010113          	add	sp,sp,-16
    8000250c:	00813023          	sd	s0,0(sp)
    80002510:	00113423          	sd	ra,8(sp)
    80002514:	00179417          	auipc	s0,0x179
    80002518:	ec440413          	add	s0,s0,-316 # 8017b3d8 <cpu>
    8000251c:	00644503          	lbu	a0,6(s0)
    80002520:	00000593          	li	a1,0
    80002524:	aedfd0ef          	jal	80000010 <common_bit_set>
    80002528:	00050863          	beqz	a0,80002538 <cpu_op_bcs+0x30>
    8000252c:	00179797          	auipc	a5,0x179
    80002530:	ea07a783          	lw	a5,-352(a5) # 8017b3cc <op_address>
    80002534:	00f41023          	sh	a5,0(s0)
    80002538:	00813083          	ld	ra,8(sp)
    8000253c:	00013403          	ld	s0,0(sp)
    80002540:	01010113          	add	sp,sp,16
    80002544:	00008067          	ret

0000000080002548 <cpu_op_beq>:
    80002548:	ff010113          	add	sp,sp,-16
    8000254c:	00813023          	sd	s0,0(sp)
    80002550:	00113423          	sd	ra,8(sp)
    80002554:	00179417          	auipc	s0,0x179
    80002558:	e8440413          	add	s0,s0,-380 # 8017b3d8 <cpu>
    8000255c:	00644503          	lbu	a0,6(s0)
    80002560:	00100593          	li	a1,1
    80002564:	aadfd0ef          	jal	80000010 <common_bit_set>
    80002568:	00050863          	beqz	a0,80002578 <cpu_op_beq+0x30>
    8000256c:	00179797          	auipc	a5,0x179
    80002570:	e607a783          	lw	a5,-416(a5) # 8017b3cc <op_address>
    80002574:	00f41023          	sh	a5,0(s0)
    80002578:	00813083          	ld	ra,8(sp)
    8000257c:	00013403          	ld	s0,0(sp)
    80002580:	01010113          	add	sp,sp,16
    80002584:	00008067          	ret

0000000080002588 <cpu_op_bmi>:
    80002588:	ff010113          	add	sp,sp,-16
    8000258c:	00813023          	sd	s0,0(sp)
    80002590:	00113423          	sd	ra,8(sp)
    80002594:	00179417          	auipc	s0,0x179
    80002598:	e4440413          	add	s0,s0,-444 # 8017b3d8 <cpu>
    8000259c:	00644503          	lbu	a0,6(s0)
    800025a0:	00700593          	li	a1,7
    800025a4:	a6dfd0ef          	jal	80000010 <common_bit_set>
    800025a8:	00050863          	beqz	a0,800025b8 <cpu_op_bmi+0x30>
    800025ac:	00179797          	auipc	a5,0x179
    800025b0:	e207a783          	lw	a5,-480(a5) # 8017b3cc <op_address>
    800025b4:	00f41023          	sh	a5,0(s0)
    800025b8:	00813083          	ld	ra,8(sp)
    800025bc:	00013403          	ld	s0,0(sp)
    800025c0:	01010113          	add	sp,sp,16
    800025c4:	00008067          	ret

00000000800025c8 <cpu_op_bvs>:
    800025c8:	ff010113          	add	sp,sp,-16
    800025cc:	00813023          	sd	s0,0(sp)
    800025d0:	00113423          	sd	ra,8(sp)
    800025d4:	00179417          	auipc	s0,0x179
    800025d8:	e0440413          	add	s0,s0,-508 # 8017b3d8 <cpu>
    800025dc:	00644503          	lbu	a0,6(s0)
    800025e0:	00600593          	li	a1,6
    800025e4:	a2dfd0ef          	jal	80000010 <common_bit_set>
    800025e8:	00050863          	beqz	a0,800025f8 <cpu_op_bvs+0x30>
    800025ec:	00179797          	auipc	a5,0x179
    800025f0:	de07a783          	lw	a5,-544(a5) # 8017b3cc <op_address>
    800025f4:	00f41023          	sh	a5,0(s0)
    800025f8:	00813083          	ld	ra,8(sp)
    800025fc:	00013403          	ld	s0,0(sp)
    80002600:	01010113          	add	sp,sp,16
    80002604:	00008067          	ret

0000000080002608 <cpu_op_bne>:
    80002608:	ff010113          	add	sp,sp,-16
    8000260c:	00813023          	sd	s0,0(sp)
    80002610:	00113423          	sd	ra,8(sp)
    80002614:	00179417          	auipc	s0,0x179
    80002618:	dc440413          	add	s0,s0,-572 # 8017b3d8 <cpu>
    8000261c:	00644503          	lbu	a0,6(s0)
    80002620:	00100593          	li	a1,1
    80002624:	9edfd0ef          	jal	80000010 <common_bit_set>
    80002628:	00051863          	bnez	a0,80002638 <cpu_op_bne+0x30>
    8000262c:	00179797          	auipc	a5,0x179
    80002630:	da07a783          	lw	a5,-608(a5) # 8017b3cc <op_address>
    80002634:	00f41023          	sh	a5,0(s0)
    80002638:	00813083          	ld	ra,8(sp)
    8000263c:	00013403          	ld	s0,0(sp)
    80002640:	01010113          	add	sp,sp,16
    80002644:	00008067          	ret

0000000080002648 <cpu_op_bcc>:
    80002648:	ff010113          	add	sp,sp,-16
    8000264c:	00813023          	sd	s0,0(sp)
    80002650:	00113423          	sd	ra,8(sp)
    80002654:	00179417          	auipc	s0,0x179
    80002658:	d8440413          	add	s0,s0,-636 # 8017b3d8 <cpu>
    8000265c:	00644503          	lbu	a0,6(s0)
    80002660:	00000593          	li	a1,0
    80002664:	9adfd0ef          	jal	80000010 <common_bit_set>
    80002668:	00051863          	bnez	a0,80002678 <cpu_op_bcc+0x30>
    8000266c:	00179797          	auipc	a5,0x179
    80002670:	d607a783          	lw	a5,-672(a5) # 8017b3cc <op_address>
    80002674:	00f41023          	sh	a5,0(s0)
    80002678:	00813083          	ld	ra,8(sp)
    8000267c:	00013403          	ld	s0,0(sp)
    80002680:	01010113          	add	sp,sp,16
    80002684:	00008067          	ret

0000000080002688 <cpu_op_bpl>:
    80002688:	ff010113          	add	sp,sp,-16
    8000268c:	00813023          	sd	s0,0(sp)
    80002690:	00113423          	sd	ra,8(sp)
    80002694:	00179417          	auipc	s0,0x179
    80002698:	d4440413          	add	s0,s0,-700 # 8017b3d8 <cpu>
    8000269c:	00644503          	lbu	a0,6(s0)
    800026a0:	00700593          	li	a1,7
    800026a4:	96dfd0ef          	jal	80000010 <common_bit_set>
    800026a8:	00051863          	bnez	a0,800026b8 <cpu_op_bpl+0x30>
    800026ac:	00179797          	auipc	a5,0x179
    800026b0:	d207a783          	lw	a5,-736(a5) # 8017b3cc <op_address>
    800026b4:	00f41023          	sh	a5,0(s0)
    800026b8:	00813083          	ld	ra,8(sp)
    800026bc:	00013403          	ld	s0,0(sp)
    800026c0:	01010113          	add	sp,sp,16
    800026c4:	00008067          	ret

00000000800026c8 <cpu_op_dcm>:
    800026c8:	fe010113          	add	sp,sp,-32
    800026cc:	00813823          	sd	s0,16(sp)
    800026d0:	00179417          	auipc	s0,0x179
    800026d4:	d0040413          	add	s0,s0,-768 # 8017b3d0 <op_value>
    800026d8:	00042583          	lw	a1,0(s0)
    800026dc:	00113c23          	sd	ra,24(sp)
    800026e0:	00913423          	sd	s1,8(sp)
    800026e4:	fff5859b          	addw	a1,a1,-1
    800026e8:	0ff5f793          	zext.b	a5,a1
    800026ec:	00179517          	auipc	a0,0x179
    800026f0:	ce055503          	lhu	a0,-800(a0) # 8017b3cc <op_address>
    800026f4:	0ff5f593          	zext.b	a1,a1
    800026f8:	00f42023          	sw	a5,0(s0)
    800026fc:	b95fe0ef          	jal	80001290 <memory_writeb>
    80002700:	00042783          	lw	a5,0(s0)
    80002704:	00179417          	auipc	s0,0x179
    80002708:	cd744403          	lbu	s0,-809(s0) # 8017b3db <cpu+0x3>
    8000270c:	00000593          	li	a1,0
    80002710:	40f404bb          	subw	s1,s0,a5
    80002714:	fff4c613          	not	a2,s1
    80002718:	01f6561b          	srlw	a2,a2,0x1f
    8000271c:	00179517          	auipc	a0,0x179
    80002720:	cc250513          	add	a0,a0,-830 # 8017b3de <cpu+0x6>
    80002724:	935fd0ef          	jal	80000058 <common_modify_bitb>
    80002728:	0014b613          	seqz	a2,s1
    8000272c:	00100593          	li	a1,1
    80002730:	00179517          	auipc	a0,0x179
    80002734:	cae50513          	add	a0,a0,-850 # 8017b3de <cpu+0x6>
    80002738:	921fd0ef          	jal	80000058 <common_modify_bitb>
    8000273c:	01013403          	ld	s0,16(sp)
    80002740:	01813083          	ld	ra,24(sp)
    80002744:	4074d61b          	sraw	a2,s1,0x7
    80002748:	00813483          	ld	s1,8(sp)
    8000274c:	00167613          	and	a2,a2,1
    80002750:	00700593          	li	a1,7
    80002754:	00179517          	auipc	a0,0x179
    80002758:	c8a50513          	add	a0,a0,-886 # 8017b3de <cpu+0x6>
    8000275c:	02010113          	add	sp,sp,32
    80002760:	8f9fd06f          	j	80000058 <common_modify_bitb>

0000000080002764 <cpu_op_lse>:
    80002764:	ff010113          	add	sp,sp,-16
    80002768:	00813023          	sd	s0,0(sp)
    8000276c:	00179417          	auipc	s0,0x179
    80002770:	c6440413          	add	s0,s0,-924 # 8017b3d0 <op_value>
    80002774:	00042603          	lw	a2,0(s0)
    80002778:	00000593          	li	a1,0
    8000277c:	00179517          	auipc	a0,0x179
    80002780:	c6250513          	add	a0,a0,-926 # 8017b3de <cpu+0x6>
    80002784:	00167613          	and	a2,a2,1
    80002788:	00113423          	sd	ra,8(sp)
    8000278c:	8cdfd0ef          	jal	80000058 <common_modify_bitb>
    80002790:	00042583          	lw	a1,0(s0)
    80002794:	00179517          	auipc	a0,0x179
    80002798:	c3855503          	lhu	a0,-968(a0) # 8017b3cc <op_address>
    8000279c:	4015d593          	sra	a1,a1,0x1
    800027a0:	0ff5f793          	zext.b	a5,a1
    800027a4:	0ff5f593          	zext.b	a1,a1
    800027a8:	00f42023          	sw	a5,0(s0)
    800027ac:	ae5fe0ef          	jal	80001290 <memory_writeb>
    800027b0:	00179697          	auipc	a3,0x179
    800027b4:	c2868693          	add	a3,a3,-984 # 8017b3d8 <cpu>
    800027b8:	00042783          	lw	a5,0(s0)
    800027bc:	0036c703          	lbu	a4,3(a3)
    800027c0:	00002617          	auipc	a2,0x2
    800027c4:	67860613          	add	a2,a2,1656 # 80004e38 <cpu_zn_flag_table>
    800027c8:	00f60533          	add	a0,a2,a5
    800027cc:	00f74733          	xor	a4,a4,a5
    800027d0:	0066c583          	lbu	a1,6(a3)
    800027d4:	00054783          	lbu	a5,0(a0)
    800027d8:	0ff77713          	zext.b	a4,a4
    800027dc:	00e60633          	add	a2,a2,a4
    800027e0:	00064603          	lbu	a2,0(a2)
    800027e4:	00b7e7b3          	or	a5,a5,a1
    800027e8:	07d7f793          	and	a5,a5,125
    800027ec:	00c7e7b3          	or	a5,a5,a2
    800027f0:	00e681a3          	sb	a4,3(a3)
    800027f4:	00f68323          	sb	a5,6(a3)
    800027f8:	00813083          	ld	ra,8(sp)
    800027fc:	00013403          	ld	s0,0(sp)
    80002800:	01010113          	add	sp,sp,16
    80002804:	00008067          	ret

0000000080002808 <cpu_op_aso>:
    80002808:	fe010113          	add	sp,sp,-32
    8000280c:	01213023          	sd	s2,0(sp)
    80002810:	00179917          	auipc	s2,0x179
    80002814:	bc090913          	add	s2,s2,-1088 # 8017b3d0 <op_value>
    80002818:	00092603          	lw	a2,0(s2)
    8000281c:	00000593          	li	a1,0
    80002820:	00179517          	auipc	a0,0x179
    80002824:	bbe50513          	add	a0,a0,-1090 # 8017b3de <cpu+0x6>
    80002828:	4076561b          	sraw	a2,a2,0x7
    8000282c:	00167613          	and	a2,a2,1
    80002830:	00113c23          	sd	ra,24(sp)
    80002834:	00813823          	sd	s0,16(sp)
    80002838:	00913423          	sd	s1,8(sp)
    8000283c:	81dfd0ef          	jal	80000058 <common_modify_bitb>
    80002840:	00092583          	lw	a1,0(s2)
    80002844:	00179417          	auipc	s0,0x179
    80002848:	b9440413          	add	s0,s0,-1132 # 8017b3d8 <cpu>
    8000284c:	00002497          	auipc	s1,0x2
    80002850:	5ec48493          	add	s1,s1,1516 # 80004e38 <cpu_zn_flag_table>
    80002854:	0015959b          	sllw	a1,a1,0x1
    80002858:	0fe5f713          	and	a4,a1,254
    8000285c:	00644783          	lbu	a5,6(s0)
    80002860:	00e486b3          	add	a3,s1,a4
    80002864:	0006c683          	lbu	a3,0(a3)
    80002868:	07d7f793          	and	a5,a5,125
    8000286c:	00070593          	mv	a1,a4
    80002870:	00d7e7b3          	or	a5,a5,a3
    80002874:	00179517          	auipc	a0,0x179
    80002878:	b5855503          	lhu	a0,-1192(a0) # 8017b3cc <op_address>
    8000287c:	00e92023          	sw	a4,0(s2)
    80002880:	00f40323          	sb	a5,6(s0)
    80002884:	a0dfe0ef          	jal	80001290 <memory_writeb>
    80002888:	00344703          	lbu	a4,3(s0)
    8000288c:	00094683          	lbu	a3,0(s2)
    80002890:	00644783          	lbu	a5,6(s0)
    80002894:	00d76733          	or	a4,a4,a3
    80002898:	00e484b3          	add	s1,s1,a4
    8000289c:	0004c683          	lbu	a3,0(s1)
    800028a0:	07d7f793          	and	a5,a5,125
    800028a4:	00e401a3          	sb	a4,3(s0)
    800028a8:	00d7e7b3          	or	a5,a5,a3
    800028ac:	00f40323          	sb	a5,6(s0)
    800028b0:	01813083          	ld	ra,24(sp)
    800028b4:	01013403          	ld	s0,16(sp)
    800028b8:	00813483          	ld	s1,8(sp)
    800028bc:	00013903          	ld	s2,0(sp)
    800028c0:	02010113          	add	sp,sp,32
    800028c4:	00008067          	ret

00000000800028c8 <cpu_op_rra>:
    800028c8:	fe010113          	add	sp,sp,-32
    800028cc:	00000593          	li	a1,0
    800028d0:	00179517          	auipc	a0,0x179
    800028d4:	b0e54503          	lbu	a0,-1266(a0) # 8017b3de <cpu+0x6>
    800028d8:	00113c23          	sd	ra,24(sp)
    800028dc:	00813823          	sd	s0,16(sp)
    800028e0:	00913423          	sd	s1,8(sp)
    800028e4:	00179417          	auipc	s0,0x179
    800028e8:	aec40413          	add	s0,s0,-1300 # 8017b3d0 <op_value>
    800028ec:	f24fd0ef          	jal	80000010 <common_bit_set>
    800028f0:	00042603          	lw	a2,0(s0)
    800028f4:	00050493          	mv	s1,a0
    800028f8:	00000593          	li	a1,0
    800028fc:	00179517          	auipc	a0,0x179
    80002900:	ae250513          	add	a0,a0,-1310 # 8017b3de <cpu+0x6>
    80002904:	00167613          	and	a2,a2,1
    80002908:	f50fd0ef          	jal	80000058 <common_modify_bitb>
    8000290c:	00042783          	lw	a5,0(s0)
    80002910:	0074971b          	sllw	a4,s1,0x7
    80002914:	00100593          	li	a1,1
    80002918:	4017d79b          	sraw	a5,a5,0x1
    8000291c:	00e7e7b3          	or	a5,a5,a4
    80002920:	0ff7f793          	zext.b	a5,a5
    80002924:	0017b613          	seqz	a2,a5
    80002928:	00179517          	auipc	a0,0x179
    8000292c:	ab650513          	add	a0,a0,-1354 # 8017b3de <cpu+0x6>
    80002930:	00f42023          	sw	a5,0(s0)
    80002934:	f24fd0ef          	jal	80000058 <common_modify_bitb>
    80002938:	00048613          	mv	a2,s1
    8000293c:	00700593          	li	a1,7
    80002940:	00179517          	auipc	a0,0x179
    80002944:	a9e50513          	add	a0,a0,-1378 # 8017b3de <cpu+0x6>
    80002948:	f10fd0ef          	jal	80000058 <common_modify_bitb>
    8000294c:	00044583          	lbu	a1,0(s0)
    80002950:	00179517          	auipc	a0,0x179
    80002954:	a7c55503          	lhu	a0,-1412(a0) # 8017b3cc <op_address>
    80002958:	939fe0ef          	jal	80001290 <memory_writeb>
    8000295c:	01013403          	ld	s0,16(sp)
    80002960:	01813083          	ld	ra,24(sp)
    80002964:	00813483          	ld	s1,8(sp)
    80002968:	02010113          	add	sp,sp,32
    8000296c:	aecff06f          	j	80001c58 <cpu_op_adc>

0000000080002970 <cpu_op_rla>:
    80002970:	fe010113          	add	sp,sp,-32
    80002974:	00813823          	sd	s0,16(sp)
    80002978:	00179417          	auipc	s0,0x179
    8000297c:	a5840413          	add	s0,s0,-1448 # 8017b3d0 <op_value>
    80002980:	00113c23          	sd	ra,24(sp)
    80002984:	00913423          	sd	s1,8(sp)
    80002988:	00042783          	lw	a5,0(s0)
    8000298c:	00179497          	auipc	s1,0x179
    80002990:	a4c48493          	add	s1,s1,-1460 # 8017b3d8 <cpu>
    80002994:	0064c503          	lbu	a0,6(s1)
    80002998:	0017979b          	sllw	a5,a5,0x1
    8000299c:	00000593          	li	a1,0
    800029a0:	00f42023          	sw	a5,0(s0)
    800029a4:	e6cfd0ef          	jal	80000010 <common_bit_set>
    800029a8:	00042783          	lw	a5,0(s0)
    800029ac:	0ff00613          	li	a2,255
    800029b0:	00000593          	li	a1,0
    800029b4:	00a7e7b3          	or	a5,a5,a0
    800029b8:	0007879b          	sext.w	a5,a5
    800029bc:	00f62633          	slt	a2,a2,a5
    800029c0:	00179517          	auipc	a0,0x179
    800029c4:	a1e50513          	add	a0,a0,-1506 # 8017b3de <cpu+0x6>
    800029c8:	00f42023          	sw	a5,0(s0)
    800029cc:	e8cfd0ef          	jal	80000058 <common_modify_bitb>
    800029d0:	00042583          	lw	a1,0(s0)
    800029d4:	00179517          	auipc	a0,0x179
    800029d8:	9f855503          	lhu	a0,-1544(a0) # 8017b3cc <op_address>
    800029dc:	0ff5f793          	zext.b	a5,a1
    800029e0:	0ff5f593          	zext.b	a1,a1
    800029e4:	00f42023          	sw	a5,0(s0)
    800029e8:	8a9fe0ef          	jal	80001290 <memory_writeb>
    800029ec:	00042783          	lw	a5,0(s0)
    800029f0:	0034c703          	lbu	a4,3(s1)
    800029f4:	00002697          	auipc	a3,0x2
    800029f8:	44468693          	add	a3,a3,1092 # 80004e38 <cpu_zn_flag_table>
    800029fc:	00f685b3          	add	a1,a3,a5
    80002a00:	0064c603          	lbu	a2,6(s1)
    80002a04:	00f77733          	and	a4,a4,a5
    80002a08:	0005c783          	lbu	a5,0(a1)
    80002a0c:	00e686b3          	add	a3,a3,a4
    80002a10:	0006c683          	lbu	a3,0(a3)
    80002a14:	00c7e7b3          	or	a5,a5,a2
    80002a18:	07d7f793          	and	a5,a5,125
    80002a1c:	00d7e7b3          	or	a5,a5,a3
    80002a20:	00e481a3          	sb	a4,3(s1)
    80002a24:	00f48323          	sb	a5,6(s1)
    80002a28:	01813083          	ld	ra,24(sp)
    80002a2c:	01013403          	ld	s0,16(sp)
    80002a30:	00813483          	ld	s1,8(sp)
    80002a34:	02010113          	add	sp,sp,32
    80002a38:	00008067          	ret

0000000080002a3c <cpu_ram_read>:
    80002a3c:	7ff57513          	and	a0,a0,2047
    80002a40:	00122797          	auipc	a5,0x122
    80002a44:	57878793          	add	a5,a5,1400 # 80124fb8 <CPU_RAM>
    80002a48:	00a787b3          	add	a5,a5,a0
    80002a4c:	0007c503          	lbu	a0,0(a5)
    80002a50:	00008067          	ret

0000000080002a54 <cpu_ram_write>:
    80002a54:	7ff57513          	and	a0,a0,2047
    80002a58:	00122797          	auipc	a5,0x122
    80002a5c:	56078793          	add	a5,a5,1376 # 80124fb8 <CPU_RAM>
    80002a60:	00a787b3          	add	a5,a5,a0
    80002a64:	00b78023          	sb	a1,0(a5)
    80002a68:	00008067          	ret

0000000080002a6c <cpu_init>:
    80002a6c:	f7010113          	add	sp,sp,-144
    80002a70:	07513023          	sd	s5,96(sp)
    80002a74:	00300a93          	li	s5,3
    80002a78:	021a9a93          	sll	s5,s5,0x21
    80002a7c:	00121697          	auipc	a3,0x121
    80002a80:	13c68693          	add	a3,a3,316 # 80123bb8 <cpu_op_cycles>
    80002a84:	08813423          	sd	s0,136(sp)
    80002a88:	08913023          	sd	s1,128(sp)
    80002a8c:	07213c23          	sd	s2,120(sp)
    80002a90:	07313823          	sd	s3,112(sp)
    80002a94:	07413423          	sd	s4,104(sp)
    80002a98:	05613c23          	sd	s6,88(sp)
    80002a9c:	05713823          	sd	s7,80(sp)
    80002aa0:	05813423          	sd	s8,72(sp)
    80002aa4:	05913023          	sd	s9,64(sp)
    80002aa8:	03a13c23          	sd	s10,56(sp)
    80002aac:	03b13823          	sd	s11,48(sp)
    80002ab0:	00300893          	li	a7,3
    80002ab4:	007a8a93          	add	s5,s5,7
    80002ab8:	02189a13          	sll	s4,a7,0x21
    80002abc:	00100e13          	li	t3,1
    80002ac0:	0156b023          	sd	s5,0(a3)
    80002ac4:	00100b93          	li	s7,1
    80002ac8:	00300a93          	li	s5,3
    80002acc:	00121717          	auipc	a4,0x121
    80002ad0:	4ec70713          	add	a4,a4,1260 # 80123fb8 <cpu_op_handler>
    80002ad4:	006a0d93          	add	s11,s4,6
    80002ad8:	021e1d13          	sll	s10,t3,0x21
    80002adc:	0156aa23          	sw	s5,20(a3)
    80002ae0:	021b9b93          	sll	s7,s7,0x21
    80002ae4:	fffffa97          	auipc	s5,0xfffff
    80002ae8:	f4ca8a93          	add	s5,s5,-180 # 80001a30 <cpu_op_php>
    80002aec:	00122797          	auipc	a5,0x122
    80002af0:	ccc78793          	add	a5,a5,-820 # 801247b8 <cpu_op_address_mode>
    80002af4:	00001617          	auipc	a2,0x1
    80002af8:	04860613          	add	a2,a2,72 # 80003b3c <cpu_address_implied>
    80002afc:	00001597          	auipc	a1,0x1
    80002b00:	08458593          	add	a1,a1,132 # 80003b80 <cpu_address_zero_page>
    80002b04:	00001f97          	auipc	t6,0x1
    80002b08:	430f8f93          	add	t6,t6,1072 # 80003f34 <cpu_address_indirect_x>
    80002b0c:	00500393          	li	t2,5
    80002b10:	00001417          	auipc	s0,0x1
    80002b14:	03040413          	add	s0,s0,48 # 80003b40 <cpu_address_immediate>
    80002b18:	00200493          	li	s1,2
    80002b1c:	fffffb17          	auipc	s6,0xfffff
    80002b20:	a2cb0b13          	add	s6,s6,-1492 # 80001548 <cpu_op_ora>
    80002b24:	fffffc97          	auipc	s9,0xfffff
    80002b28:	3e0c8c93          	add	s9,s9,992 # 80001f04 <cpu_op_asl>
    80002b2c:	003b8b93          	add	s7,s7,3
    80002b30:	01b13423          	sd	s11,8(sp)
    80002b34:	004d0d13          	add	s10,s10,4 # 4004 <_entry_offset+0x4004>
    80002b38:	fffffd97          	auipc	s11,0xfffff
    80002b3c:	f94d8d93          	add	s11,s11,-108 # 80001acc <cpu_op_brk>
    80002b40:	05573023          	sd	s5,64(a4)
    80002b44:	fffffa97          	auipc	s5,0xfffff
    80002b48:	354a8a93          	add	s5,s5,852 # 80001e98 <cpu_op_asla>
    80002b4c:	03a13023          	sd	s10,32(sp)
    80002b50:	0487b423          	sd	s0,72(a5)
    80002b54:	01b73023          	sd	s11,0(a4)
    80002b58:	00c7b023          	sd	a2,0(a5)
    80002b5c:	01673423          	sd	s6,8(a4)
    80002b60:	01f7b423          	sd	t6,8(a5)
    80002b64:	03673423          	sd	s6,40(a4)
    80002b68:	02b7b423          	sd	a1,40(a5)
    80002b6c:	03973823          	sd	s9,48(a4)
    80002b70:	02b7b823          	sd	a1,48(a5)
    80002b74:	04c7b023          	sd	a2,64(a5)
    80002b78:	05673423          	sd	s6,72(a4)
    80002b7c:	0376b023          	sd	s7,32(a3)
    80002b80:	0296a423          	sw	s1,40(a3)
    80002b84:	05573823          	sd	s5,80(a4)
    80002b88:	00000d97          	auipc	s11,0x0
    80002b8c:	8ccd8d93          	add	s11,s11,-1844 # 80002454 <cpu_op_clc>
    80002b90:	0076ac23          	sw	t2,24(a3)
    80002b94:	04c7b823          	sd	a2,80(a5)
    80002b98:	00100913          	li	s2,1
    80002b9c:	0db73023          	sd	s11,192(a4)
    80002ba0:	00813d83          	ld	s11,8(sp)
    80002ba4:	00000a97          	auipc	s5,0x0
    80002ba8:	ae4a8a93          	add	s5,s5,-1308 # 80002688 <cpu_op_bpl>
    80002bac:	02291913          	sll	s2,s2,0x22
    80002bb0:	00001517          	auipc	a0,0x1
    80002bb4:	0fc50513          	add	a0,a0,252 # 80003cac <cpu_address_absolute>
    80002bb8:	00001817          	auipc	a6,0x1
    80002bbc:	02480813          	add	a6,a6,36 # 80003bdc <cpu_address_zero_page_x>
    80002bc0:	00001897          	auipc	a7,0x1
    80002bc4:	13888893          	add	a7,a7,312 # 80003cf8 <cpu_address_absolute_x>
    80002bc8:	00600313          	li	t1,6
    80002bcc:	00400293          	li	t0,4
    80002bd0:	00001e97          	auipc	t4,0x1
    80002bd4:	1bce8e93          	add	t4,t4,444 # 80003d8c <cpu_address_absolute_y>
    80002bd8:	00700e13          	li	t3,7
    80002bdc:	00001f17          	auipc	t5,0x1
    80002be0:	3f4f0f13          	add	t5,t5,1012 # 80003fd0 <cpu_address_indirect_y>
    80002be4:	fffffa17          	auipc	s4,0xfffff
    80002be8:	8e4a0a13          	add	s4,s4,-1820 # 800014c8 <cpu_op_and>
    80002bec:	00290913          	add	s2,s2,2
    80002bf0:	fffffd17          	auipc	s10,0xfffff
    80002bf4:	23cd0d13          	add	s10,s10,572 # 80001e2c <cpu_op_bit>
    80002bf8:	07673423          	sd	s6,104(a4)
    80002bfc:	09573023          	sd	s5,128(a4)
    80002c00:	09673423          	sd	s6,136(a4)
    80002c04:	00001a97          	auipc	s5,0x1
    80002c08:	220a8a93          	add	s5,s5,544 # 80003e24 <cpu_address_relative>
    80002c0c:	0b673423          	sd	s6,168(a4)
    80002c10:	0d673423          	sd	s6,200(a4)
    80002c14:	0f673423          	sd	s6,232(a4)
    80002c18:	fffffb17          	auipc	s6,0xfffff
    80002c1c:	e5cb0b13          	add	s6,s6,-420 # 80001a74 <cpu_op_jsr>
    80002c20:	06a7b423          	sd	a0,104(a5)
    80002c24:	06a7b823          	sd	a0,112(a5)
    80002c28:	0957b023          	sd	s5,128(a5)
    80002c2c:	10a7b023          	sd	a0,256(a5)
    80002c30:	07973823          	sd	s9,112(a4)
    80002c34:	09e7b423          	sd	t5,136(a5)
    80002c38:	0456aa23          	sw	t0,84(a3)
    80002c3c:	0b07b423          	sd	a6,168(a5)
    80002c40:	0b973823          	sd	s9,176(a4)
    80002c44:	0b07b823          	sd	a6,176(a5)
    80002c48:	0cc7b023          	sd	a2,192(a5)
    80002c4c:	0726b023          	sd	s2,96(a3)
    80002c50:	0dd7b423          	sd	t4,200(a5)
    80002c54:	0656aa23          	sw	t0,116(a3)
    80002c58:	0f17b423          	sd	a7,232(a5)
    80002c5c:	0f973823          	sd	s9,240(a4)
    80002c60:	0f17b823          	sd	a7,240(a5)
    80002c64:	11673023          	sd	s6,256(a4)
    80002c68:	09b6b023          	sd	s11,128(a3)
    80002c6c:	11473423          	sd	s4,264(a4)
    80002c70:	11f7b423          	sd	t6,264(a5)
    80002c74:	13a73023          	sd	s10,288(a4)
    80002c78:	fffffb17          	auipc	s6,0xfffff
    80002c7c:	f38b0b13          	add	s6,s6,-200 # 80001bb0 <cpu_op_plp>
    80002c80:	0466ac23          	sw	t1,88(a3)
    80002c84:	07c6ac23          	sw	t3,120(a3)
    80002c88:	12b7b023          	sd	a1,288(a5)
    80002c8c:	15673023          	sd	s6,320(a4)
    80002c90:	02013b03          	ld	s6,32(sp)
    80002c94:	00300993          	li	s3,3
    80002c98:	02099993          	sll	s3,s3,0x20
    80002c9c:	0b66b023          	sd	s6,160(a3)
    80002ca0:	fffffb17          	auipc	s6,0xfffff
    80002ca4:	3dcb0b13          	add	s6,s6,988 # 8000207c <cpu_op_rola>
    80002ca8:	15673823          	sd	s6,336(a4)
    80002cac:	00000b17          	auipc	s6,0x0
    80002cb0:	8dcb0b13          	add	s6,s6,-1828 # 80002588 <cpu_op_bmi>
    80002cb4:	00398993          	add	s3,s3,3
    80002cb8:	fffffc17          	auipc	s8,0xfffff
    80002cbc:	44cc0c13          	add	s8,s8,1100 # 80002104 <cpu_op_rol>
    80002cc0:	17a73023          	sd	s10,352(a4)
    80002cc4:	19673023          	sd	s6,384(a4)
    80002cc8:	00001d17          	auipc	s10,0x1
    80002ccc:	15cd0d13          	add	s10,s10,348 # 80003e24 <cpu_address_relative>
    80002cd0:	fffffb17          	auipc	s6,0xfffff
    80002cd4:	7c4b0b13          	add	s6,s6,1988 # 80002494 <cpu_op_sec>
    80002cd8:	1487b423          	sd	s0,328(a5)
    80002cdc:	16a7b023          	sd	a0,352(a5)
    80002ce0:	16a7b423          	sd	a0,360(a5)
    80002ce4:	16a7b823          	sd	a0,368(a5)
    80002ce8:	19a7b023          	sd	s10,384(a5)
    80002cec:	13473423          	sd	s4,296(a4)
    80002cf0:	12b7b423          	sd	a1,296(a5)
    80002cf4:	0936b823          	sd	s3,144(a3)
    80002cf8:	13873823          	sd	s8,304(a4)
    80002cfc:	12b7b823          	sd	a1,304(a5)
    80002d00:	14c7b023          	sd	a2,320(a5)
    80002d04:	15473423          	sd	s4,328(a4)
    80002d08:	0a96a423          	sw	s1,168(a3)
    80002d0c:	14c7b823          	sd	a2,336(a5)
    80002d10:	17473423          	sd	s4,360(a4)
    80002d14:	17873823          	sd	s8,368(a4)
    80002d18:	19473423          	sd	s4,392(a4)
    80002d1c:	19e7b423          	sd	t5,392(a5)
    80002d20:	0c56aa23          	sw	t0,212(a3)
    80002d24:	1b473423          	sd	s4,424(a4)
    80002d28:	1b07b423          	sd	a6,424(a5)
    80002d2c:	1b873823          	sd	s8,432(a4)
    80002d30:	1b07b823          	sd	a6,432(a5)
    80002d34:	1d673023          	sd	s6,448(a4)
    80002d38:	0876ac23          	sw	t2,152(a3)
    80002d3c:	0c66ac23          	sw	t1,216(a3)
    80002d40:	1cc7b023          	sd	a2,448(a5)
    80002d44:	fffffb17          	auipc	s6,0xfffff
    80002d48:	d10b0b13          	add	s6,s6,-752 # 80001a54 <cpu_op_pha>
    80002d4c:	1d473423          	sd	s4,456(a4)
    80002d50:	1f473423          	sd	s4,488(a4)
    80002d54:	fffffa17          	auipc	s4,0xfffff
    80002d58:	ea4a0a13          	add	s4,s4,-348 # 80001bf8 <cpu_op_rti>
    80002d5c:	ffffea97          	auipc	s5,0xffffe
    80002d60:	7aca8a93          	add	s5,s5,1964 # 80001508 <cpu_op_eor>
    80002d64:	fffffc97          	auipc	s9,0xfffff
    80002d68:	290c8c93          	add	s9,s9,656 # 80001ff4 <cpu_op_lsr>
    80002d6c:	21473023          	sd	s4,512(a4)
    80002d70:	25673023          	sd	s6,576(a4)
    80002d74:	00300a13          	li	s4,3
    80002d78:	1376b023          	sd	s7,288(a3)
    80002d7c:	fffffb17          	auipc	s6,0xfffff
    80002d80:	20cb0b13          	add	s6,s6,524 # 80001f88 <cpu_op_lsra>
    80002d84:	fffffb97          	auipc	s7,0xfffff
    80002d88:	9d0b8b93          	add	s7,s7,-1584 # 80001754 <cpu_op_jmp>
    80002d8c:	2487b423          	sd	s0,584(a5)
    80002d90:	26a7b023          	sd	a0,608(a5)
    80002d94:	26a7b423          	sd	a0,616(a5)
    80002d98:	0f26b023          	sd	s2,224(a3)
    80002d9c:	1dd7b423          	sd	t4,456(a5)
    80002da0:	0e56aa23          	sw	t0,244(a3)
    80002da4:	1f17b423          	sd	a7,488(a5)
    80002da8:	1f873823          	sd	s8,496(a4)
    80002dac:	1f17b823          	sd	a7,496(a5)
    80002db0:	20c7b023          	sd	a2,512(a5)
    80002db4:	11b6b023          	sd	s11,256(a3)
    80002db8:	21573423          	sd	s5,520(a4)
    80002dbc:	21f7b423          	sd	t6,520(a5)
    80002dc0:	1146aa23          	sw	s4,276(a3)
    80002dc4:	23573423          	sd	s5,552(a4)
    80002dc8:	22b7b423          	sd	a1,552(a5)
    80002dcc:	23973823          	sd	s9,560(a4)
    80002dd0:	22b7b823          	sd	a1,560(a5)
    80002dd4:	24c7b023          	sd	a2,576(a5)
    80002dd8:	25573423          	sd	s5,584(a4)
    80002ddc:	1296a423          	sw	s1,296(a3)
    80002de0:	25673823          	sd	s6,592(a4)
    80002de4:	24c7b823          	sd	a2,592(a5)
    80002de8:	27773023          	sd	s7,608(a4)
    80002dec:	27573423          	sd	s5,616(a4)
    80002df0:	0fc6ac23          	sw	t3,248(a3)
    80002df4:	1076ac23          	sw	t2,280(a3)
    80002df8:	27973823          	sd	s9,624(a4)
    80002dfc:	2b973823          	sd	s9,688(a4)
    80002e00:	2f973823          	sd	s9,752(a4)
    80002e04:	00813c83          	ld	s9,8(sp)
    80002e08:	fffffb17          	auipc	s6,0xfffff
    80002e0c:	6bcb0b13          	add	s6,s6,1724 # 800024c4 <cpu_op_bvc>
    80002e10:	29573423          	sd	s5,648(a4)
    80002e14:	2b573423          	sd	s5,680(a4)
    80002e18:	2d573423          	sd	s5,712(a4)
    80002e1c:	2f573423          	sd	s5,744(a4)
    80002e20:	fffffa97          	auipc	s5,0xfffff
    80002e24:	a78a8a93          	add	s5,s5,-1416 # 80001898 <cpu_op_rts>
    80002e28:	fffffa17          	auipc	s4,0xfffff
    80002e2c:	e30a0a13          	add	s4,s4,-464 # 80001c58 <cpu_op_adc>
    80002e30:	29673023          	sd	s6,640(a4)
    80002e34:	31573023          	sd	s5,768(a4)
    80002e38:	fffffb17          	auipc	s6,0xfffff
    80002e3c:	63cb0b13          	add	s6,s6,1596 # 80002474 <cpu_op_cli>
    80002e40:	00300a93          	li	s5,3
    80002e44:	fffffc17          	auipc	s8,0xfffff
    80002e48:	404c0c13          	add	s8,s8,1028 # 80002248 <cpu_op_ror>
    80002e4c:	26a7b823          	sd	a0,624(a5)
    80002e50:	29a7b023          	sd	s10,640(a5)
    80002e54:	29e7b423          	sd	t5,648(a5)
    80002e58:	1456aa23          	sw	t0,340(a3)
    80002e5c:	2b07b423          	sd	a6,680(a5)
    80002e60:	2b07b823          	sd	a6,688(a5)
    80002e64:	2d673023          	sd	s6,704(a4)
    80002e68:	2cc7b023          	sd	a2,704(a5)
    80002e6c:	1726b023          	sd	s2,352(a3)
    80002e70:	2dd7b423          	sd	t4,712(a5)
    80002e74:	1656aa23          	sw	t0,372(a3)
    80002e78:	2f17b423          	sd	a7,744(a5)
    80002e7c:	2f17b823          	sd	a7,752(a5)
    80002e80:	30c7b023          	sd	a2,768(a5)
    80002e84:	1996b023          	sd	s9,384(a3)
    80002e88:	31473423          	sd	s4,776(a4)
    80002e8c:	31f7b423          	sd	t6,776(a5)
    80002e90:	1956aa23          	sw	s5,404(a3)
    80002e94:	33473423          	sd	s4,808(a4)
    80002e98:	32b7b423          	sd	a1,808(a5)
    80002e9c:	fffffa97          	auipc	s5,0xfffff
    80002ea0:	cb4a8a93          	add	s5,s5,-844 # 80001b50 <cpu_op_pla>
    80002ea4:	1466ac23          	sw	t1,344(a3)
    80002ea8:	17c6ac23          	sw	t3,376(a3)
    80002eac:	1876ac23          	sw	t2,408(a3)
    80002eb0:	33873823          	sd	s8,816(a4)
    80002eb4:	35573023          	sd	s5,832(a4)
    80002eb8:	fffffa97          	auipc	s5,0xfffff
    80002ebc:	300a8a93          	add	s5,s5,768 # 800021b8 <cpu_op_rora>
    80002ec0:	35573823          	sd	s5,848(a4)
    80002ec4:	fffffa97          	auipc	s5,0xfffff
    80002ec8:	890a8a93          	add	s5,s5,-1904 # 80001754 <cpu_op_jmp>
    80002ecc:	02013c83          	ld	s9,32(sp)
    80002ed0:	37573023          	sd	s5,864(a4)
    80002ed4:	00001a97          	auipc	s5,0x1
    80002ed8:	fd0a8a93          	add	s5,s5,-48 # 80003ea4 <cpu_address_indirect>
    80002edc:	3757b023          	sd	s5,864(a5)
    80002ee0:	fffffa97          	auipc	s5,0xfffff
    80002ee4:	6e8a8a93          	add	s5,s5,1768 # 800025c8 <cpu_op_bvs>
    80002ee8:	39573023          	sd	s5,896(a4)
    80002eec:	00500a93          	li	s5,5
    80002ef0:	1b96b023          	sd	s9,416(a3)
    80002ef4:	020a9c93          	sll	s9,s5,0x20
    80002ef8:	00001a97          	auipc	s5,0x1
    80002efc:	f2ca8a93          	add	s5,s5,-212 # 80003e24 <cpu_address_relative>
    80002f00:	3957b023          	sd	s5,896(a5)
    80002f04:	002c8c93          	add	s9,s9,2
    80002f08:	fffffa97          	auipc	s5,0xfffff
    80002f0c:	5aca8a93          	add	s5,s5,1452 # 800024b4 <cpu_op_sei>
    80002f10:	3487b423          	sd	s0,840(a5)
    80002f14:	36a7b423          	sd	a0,872(a5)
    80002f18:	36a7b823          	sd	a0,880(a5)
    80002f1c:	03913423          	sd	s9,40(sp)
    80002f20:	32b7b823          	sd	a1,816(a5)
    80002f24:	34c7b023          	sd	a2,832(a5)
    80002f28:	35473423          	sd	s4,840(a4)
    80002f2c:	1a96a423          	sw	s1,424(a3)
    80002f30:	34c7b823          	sd	a2,848(a5)
    80002f34:	37473423          	sd	s4,872(a4)
    80002f38:	37873823          	sd	s8,880(a4)
    80002f3c:	39473423          	sd	s4,904(a4)
    80002f40:	39e7b423          	sd	t5,904(a5)
    80002f44:	1c56aa23          	sw	t0,468(a3)
    80002f48:	3b473423          	sd	s4,936(a4)
    80002f4c:	3b07b423          	sd	a6,936(a5)
    80002f50:	3b873823          	sd	s8,944(a4)
    80002f54:	3b07b823          	sd	a6,944(a5)
    80002f58:	3d573023          	sd	s5,960(a4)
    80002f5c:	3cc7b023          	sd	a2,960(a5)
    80002f60:	1f26b023          	sd	s2,480(a3)
    80002f64:	3d473423          	sd	s4,968(a4)
    80002f68:	3dd7b423          	sd	t4,968(a5)
    80002f6c:	1c66ac23          	sw	t1,472(a3)
    80002f70:	1e56aa23          	sw	t0,500(a3)
    80002f74:	3f473423          	sd	s4,1000(a4)
    80002f78:	00300a13          	li	s4,3
    80002f7c:	3f873823          	sd	s8,1008(a4)
    80002f80:	2146ac23          	sw	s4,536(a3)
    80002f84:	00300c13          	li	s8,3
    80002f88:	fffffa17          	auipc	s4,0xfffff
    80002f8c:	894a0a13          	add	s4,s4,-1900 # 8000181c <cpu_op_dey>
    80002f90:	45473023          	sd	s4,1088(a4)
    80002f94:	021c1a13          	sll	s4,s8,0x21
    80002f98:	00100c13          	li	s8,1
    80002f9c:	000a0a93          	mv	s5,s4
    80002fa0:	021c1c13          	sll	s8,s8,0x21
    80002fa4:	01813823          	sd	s8,16(sp)
    80002fa8:	002a8a93          	add	s5,s5,2
    80002fac:	01513c23          	sd	s5,24(sp)
    80002fb0:	01013a83          	ld	s5,16(sp)
    80002fb4:	fffffb17          	auipc	s6,0xfffff
    80002fb8:	928b0b13          	add	s6,s6,-1752 # 800018dc <cpu_op_sta>
    80002fbc:	fffffd17          	auipc	s10,0xfffff
    80002fc0:	948d0d13          	add	s10,s10,-1720 # 80001904 <cpu_op_sty>
    80002fc4:	002a8a93          	add	s5,s5,2
    80002fc8:	fffffb97          	auipc	s7,0xfffff
    80002fcc:	928b8b93          	add	s7,s7,-1752 # 800018f0 <cpu_op_stx>
    80002fd0:	01513823          	sd	s5,16(sp)
    80002fd4:	ffffea97          	auipc	s5,0xffffe
    80002fd8:	69ca8a93          	add	s5,s5,1692 # 80001670 <cpu_op_txa>
    80002fdc:	46a7b023          	sd	a0,1120(a5)
    80002fe0:	46a7b423          	sd	a0,1128(a5)
    80002fe4:	46a7b823          	sd	a0,1136(a5)
    80002fe8:	3f17b423          	sd	a7,1000(a5)
    80002fec:	3f17b823          	sd	a7,1008(a5)
    80002ff0:	41673423          	sd	s6,1032(a4)
    80002ff4:	41f7b423          	sd	t6,1032(a5)
    80002ff8:	43a73023          	sd	s10,1056(a4)
    80002ffc:	42b7b023          	sd	a1,1056(a5)
    80003000:	43673423          	sd	s6,1064(a4)
    80003004:	42b7b423          	sd	a1,1064(a5)
    80003008:	2136b823          	sd	s3,528(a3)
    8000300c:	43773823          	sd	s7,1072(a4)
    80003010:	42b7b823          	sd	a1,1072(a5)
    80003014:	2296a023          	sw	s1,544(a3)
    80003018:	44c7b023          	sd	a2,1088(a5)
    8000301c:	2296a423          	sw	s1,552(a3)
    80003020:	45573823          	sd	s5,1104(a4)
    80003024:	44c7b823          	sd	a2,1104(a5)
    80003028:	47a73023          	sd	s10,1120(a4)
    8000302c:	47673423          	sd	s6,1128(a4)
    80003030:	47773823          	sd	s7,1136(a4)
    80003034:	fffffa97          	auipc	s5,0xfffff
    80003038:	614a8a93          	add	s5,s5,1556 # 80002648 <cpu_op_bcc>
    8000303c:	1fc6ac23          	sw	t3,504(a3)
    80003040:	2066a223          	sw	t1,516(a3)
    80003044:	49573023          	sd	s5,1152(a4)
    80003048:	4b773823          	sd	s7,1200(a4)
    8000304c:	00001b97          	auipc	s7,0x1
    80003050:	bf8b8b93          	add	s7,s7,-1032 # 80003c44 <cpu_address_zero_page_y>
    80003054:	4b77b823          	sd	s7,1200(a5)
    80003058:	00001a97          	auipc	s5,0x1
    8000305c:	dcca8a93          	add	s5,s5,-564 # 80003e24 <cpu_address_relative>
    80003060:	02813b83          	ld	s7,40(sp)
    80003064:	49673423          	sd	s6,1160(a4)
    80003068:	4b673423          	sd	s6,1192(a4)
    8000306c:	4d673423          	sd	s6,1224(a4)
    80003070:	4f673423          	sd	s6,1256(a4)
    80003074:	00100d93          	li	s11,1
    80003078:	01813b03          	ld	s6,24(sp)
    8000307c:	4957b023          	sd	s5,1152(a5)
    80003080:	022d9d93          	sll	s11,s11,0x22
    80003084:	ffffea97          	auipc	s5,0xffffe
    80003088:	654a8a93          	add	s5,s5,1620 # 800016d8 <cpu_op_tya>
    8000308c:	004d8d93          	add	s11,s11,4
    80003090:	ffffea17          	auipc	s4,0xffffe
    80003094:	4f8a0a13          	add	s4,s4,1272 # 80001588 <cpu_op_lda>
    80003098:	ffffec97          	auipc	s9,0xffffe
    8000309c:	568c8c93          	add	s9,s9,1384 # 80001600 <cpu_op_ldy>
    800030a0:	ffffec17          	auipc	s8,0xffffe
    800030a4:	524c0c13          	add	s8,s8,1316 # 800015c4 <cpu_op_ldx>
    800030a8:	4d573023          	sd	s5,1216(a4)
    800030ac:	ffffea97          	auipc	s5,0xffffe
    800030b0:	694a8a93          	add	s5,s5,1684 # 80001740 <cpu_op_txs>
    800030b4:	5087b023          	sd	s0,1280(a5)
    800030b8:	5087b823          	sd	s0,1296(a5)
    800030bc:	49e7b423          	sd	t5,1160(a5)
    800030c0:	4ba73023          	sd	s10,1184(a4)
    800030c4:	4b07b023          	sd	a6,1184(a5)
    800030c8:	4b07b423          	sd	a6,1192(a5)
    800030cc:	25b6b823          	sd	s11,592(a3)
    800030d0:	2456ac23          	sw	t0,600(a3)
    800030d4:	4cc7b023          	sd	a2,1216(a5)
    800030d8:	4dd7b423          	sd	t4,1224(a5)
    800030dc:	2776b023          	sd	s7,608(a3)
    800030e0:	2696a423          	sw	s1,616(a3)
    800030e4:	4d573823          	sd	s5,1232(a4)
    800030e8:	4cc7b823          	sd	a2,1232(a5)
    800030ec:	4f17b423          	sd	a7,1256(a5)
    800030f0:	51973023          	sd	s9,1280(a4)
    800030f4:	51473423          	sd	s4,1288(a4)
    800030f8:	51f7b423          	sd	t6,1288(a5)
    800030fc:	2966b023          	sd	s6,640(a3)
    80003100:	2896a423          	sw	s1,648(a3)
    80003104:	51873823          	sd	s8,1296(a4)
    80003108:	00300b13          	li	s6,3
    8000310c:	2676aa23          	sw	t2,628(a3)
    80003110:	53973023          	sd	s9,1312(a4)
    80003114:	2966ac23          	sw	s6,664(a3)
    80003118:	ffffeb17          	auipc	s6,0xffffe
    8000311c:	58cb0b13          	add	s6,s6,1420 # 800016a4 <cpu_op_tay>
    80003120:	55673023          	sd	s6,1344(a4)
    80003124:	01013b03          	ld	s6,16(sp)
    80003128:	00001d17          	auipc	s10,0x1
    8000312c:	cfcd0d13          	add	s10,s10,-772 # 80003e24 <cpu_address_relative>
    80003130:	5487b423          	sd	s0,1352(a5)
    80003134:	2b66b023          	sd	s6,672(a3)
    80003138:	ffffeb17          	auipc	s6,0xffffe
    8000313c:	504b0b13          	add	s6,s6,1284 # 8000163c <cpu_op_tax>
    80003140:	55673823          	sd	s6,1360(a4)
    80003144:	fffffb17          	auipc	s6,0xfffff
    80003148:	3c4b0b13          	add	s6,s6,964 # 80002508 <cpu_op_bcs>
    8000314c:	56a7b023          	sd	a0,1376(a5)
    80003150:	56a7b423          	sd	a0,1384(a5)
    80003154:	56a7b823          	sd	a0,1392(a5)
    80003158:	59a7b023          	sd	s10,1408(a5)
    8000315c:	52b7b023          	sd	a1,1312(a5)
    80003160:	53473423          	sd	s4,1320(a4)
    80003164:	52b7b423          	sd	a1,1320(a5)
    80003168:	2936b823          	sd	s3,656(a3)
    8000316c:	53873823          	sd	s8,1328(a4)
    80003170:	52b7b823          	sd	a1,1328(a5)
    80003174:	54c7b023          	sd	a2,1344(a5)
    80003178:	55473423          	sd	s4,1352(a4)
    8000317c:	2a96a423          	sw	s1,680(a3)
    80003180:	54c7b823          	sd	a2,1360(a5)
    80003184:	57973023          	sd	s9,1376(a4)
    80003188:	57473423          	sd	s4,1384(a4)
    8000318c:	57873823          	sd	s8,1392(a4)
    80003190:	59673023          	sd	s6,1408(a4)
    80003194:	59473423          	sd	s4,1416(a4)
    80003198:	59e7b423          	sd	t5,1416(a5)
    8000319c:	5b973023          	sd	s9,1440(a4)
    800031a0:	5b07b023          	sd	a6,1440(a5)
    800031a4:	5b473423          	sd	s4,1448(a4)
    800031a8:	5b07b423          	sd	a6,1448(a5)
    800031ac:	2db6b823          	sd	s11,720(a3)
    800031b0:	2c56ac23          	sw	t0,728(a3)
    800031b4:	00001d17          	auipc	s10,0x1
    800031b8:	a90d0d13          	add	s10,s10,-1392 # 80003c44 <cpu_address_zero_page_y>
    800031bc:	5b873823          	sd	s8,1456(a4)
    800031c0:	5ba7b823          	sd	s10,1456(a5)
    800031c4:	fffffd17          	auipc	s10,0xfffff
    800031c8:	2c0d0d13          	add	s10,s10,704 # 80002484 <cpu_op_clv>
    800031cc:	5da73023          	sd	s10,1472(a4)
    800031d0:	ffffed17          	auipc	s10,0xffffe
    800031d4:	53cd0d13          	add	s10,s10,1340 # 8000170c <cpu_op_tsx>
    800031d8:	5da73823          	sd	s10,1488(a4)
    800031dc:	ffffed17          	auipc	s10,0xffffe
    800031e0:	5c8d0d13          	add	s10,s10,1480 # 800017a4 <cpu_op_iny>
    800031e4:	65a73023          	sd	s10,1600(a4)
    800031e8:	01013d03          	ld	s10,16(sp)
    800031ec:	fffffa97          	auipc	s5,0xfffff
    800031f0:	100a8a93          	add	s5,s5,256 # 800022ec <cpu_op_cmp>
    800031f4:	ffffeb17          	auipc	s6,0xffffe
    800031f8:	788b0b13          	add	s6,s6,1928 # 8000197c <cpu_op_dec>
    800031fc:	fffffb97          	auipc	s7,0xfffff
    80003200:	1e0b8b93          	add	s7,s7,480 # 800023dc <cpu_op_cpy>
    80003204:	6087b023          	sd	s0,1536(a5)
    80003208:	6487b423          	sd	s0,1608(a5)
    8000320c:	5cc7b023          	sd	a2,1472(a5)
    80003210:	5d473423          	sd	s4,1480(a4)
    80003214:	5dd7b423          	sd	t4,1480(a5)
    80003218:	2f26b023          	sd	s2,736(a3)
    8000321c:	2e96a423          	sw	s1,744(a3)
    80003220:	5cc7b823          	sd	a2,1488(a5)
    80003224:	5f973023          	sd	s9,1504(a4)
    80003228:	5f17b023          	sd	a7,1504(a5)
    8000322c:	5f473423          	sd	s4,1512(a4)
    80003230:	5f17b423          	sd	a7,1512(a5)
    80003234:	5f873823          	sd	s8,1520(a4)
    80003238:	5fd7b823          	sd	t4,1520(a5)
    8000323c:	61773023          	sd	s7,1536(a4)
    80003240:	61573423          	sd	s5,1544(a4)
    80003244:	61f7b423          	sd	t6,1544(a5)
    80003248:	63773023          	sd	s7,1568(a4)
    8000324c:	62b7b023          	sd	a1,1568(a5)
    80003250:	63573423          	sd	s5,1576(a4)
    80003254:	62b7b423          	sd	a1,1576(a5)
    80003258:	3136b823          	sd	s3,784(a3)
    8000325c:	63673823          	sd	s6,1584(a4)
    80003260:	62b7b823          	sd	a1,1584(a5)
    80003264:	64c7b023          	sd	a2,1600(a5)
    80003268:	65573423          	sd	s5,1608(a4)
    8000326c:	3076ac23          	sw	t2,792(a3)
    80003270:	33a6b023          	sd	s10,800(a3)
    80003274:	ffffed17          	auipc	s10,0xffffe
    80003278:	56cd0d13          	add	s10,s10,1388 # 800017e0 <cpu_op_dex>
    8000327c:	67773023          	sd	s7,1632(a4)
    80003280:	fffffb97          	auipc	s7,0xfffff
    80003284:	388b8b93          	add	s7,s7,904 # 80002608 <cpu_op_bne>
    80003288:	fffffc97          	auipc	s9,0xfffff
    8000328c:	0dcc8c93          	add	s9,s9,220 # 80002364 <cpu_op_cpx>
    80003290:	65a73823          	sd	s10,1616(a4)
    80003294:	69773023          	sd	s7,1664(a4)
    80003298:	00001d17          	auipc	s10,0x1
    8000329c:	b8cd0d13          	add	s10,s10,-1140 # 80003e24 <cpu_address_relative>
    800032a0:	fffffb97          	auipc	s7,0xfffff
    800032a4:	1c4b8b93          	add	s7,s7,452 # 80002464 <cpu_op_cld>
    800032a8:	66a7b023          	sd	a0,1632(a5)
    800032ac:	66a7b423          	sd	a0,1640(a5)
    800032b0:	66a7b823          	sd	a0,1648(a5)
    800032b4:	69a7b023          	sd	s10,1664(a5)
    800032b8:	7087b023          	sd	s0,1792(a5)
    800032bc:	3296a423          	sw	s1,808(a3)
    800032c0:	64c7b823          	sd	a2,1616(a5)
    800032c4:	67573423          	sd	s5,1640(a4)
    800032c8:	69573423          	sd	s5,1672(a4)
    800032cc:	69e7b423          	sd	t5,1672(a5)
    800032d0:	3456aa23          	sw	t0,852(a3)
    800032d4:	6b573423          	sd	s5,1704(a4)
    800032d8:	6b07b423          	sd	a6,1704(a5)
    800032dc:	6b07b823          	sd	a6,1712(a5)
    800032e0:	6d773023          	sd	s7,1728(a4)
    800032e4:	6cc7b023          	sd	a2,1728(a5)
    800032e8:	3726b023          	sd	s2,864(a3)
    800032ec:	6d573423          	sd	s5,1736(a4)
    800032f0:	6dd7b423          	sd	t4,1736(a5)
    800032f4:	3656aa23          	sw	t0,884(a3)
    800032f8:	6f573423          	sd	s5,1768(a4)
    800032fc:	6f17b423          	sd	a7,1768(a5)
    80003300:	6f17b823          	sd	a7,1776(a5)
    80003304:	71973023          	sd	s9,1792(a4)
    80003308:	67673823          	sd	s6,1648(a4)
    8000330c:	3466ac23          	sw	t1,856(a3)
    80003310:	6b673823          	sd	s6,1712(a4)
    80003314:	37c6ac23          	sw	t3,888(a3)
    80003318:	6f673823          	sd	s6,1776(a4)
    8000331c:	01813b03          	ld	s6,24(sp)
    80003320:	3936b823          	sd	s3,912(a3)
    80003324:	ffffe997          	auipc	s3,0xffffe
    80003328:	44498993          	add	s3,s3,1092 # 80001768 <cpu_op_inx>
    8000332c:	75373023          	sd	s3,1856(a4)
    80003330:	01013983          	ld	s3,16(sp)
    80003334:	79a7b023          	sd	s10,1920(a5)
    80003338:	02813d03          	ld	s10,40(sp)
    8000333c:	3b36b023          	sd	s3,928(a3)
    80003340:	fffff997          	auipc	s3,0xfffff
    80003344:	1c498993          	add	s3,s3,452 # 80002504 <cpu_op_nop>
    80003348:	fffffa17          	auipc	s4,0xfffff
    8000334c:	9d8a0a13          	add	s4,s4,-1576 # 80001d20 <cpu_op_sbc>
    80003350:	ffffec17          	auipc	s8,0xffffe
    80003354:	5c8c0c13          	add	s8,s8,1480 # 80001918 <cpu_op_inc>
    80003358:	75373823          	sd	s3,1872(a4)
    8000335c:	fffff997          	auipc	s3,0xfffff
    80003360:	1ec98993          	add	s3,s3,492 # 80002548 <cpu_op_beq>
    80003364:	7487b423          	sd	s0,1864(a5)
    80003368:	76a7b023          	sd	a0,1888(a5)
    8000336c:	76a7b423          	sd	a0,1896(a5)
    80003370:	76a7b823          	sd	a0,1904(a5)
    80003374:	3966b023          	sd	s6,896(a3)
    80003378:	71473423          	sd	s4,1800(a4)
    8000337c:	71f7b423          	sd	t6,1800(a5)
    80003380:	73973023          	sd	s9,1824(a4)
    80003384:	72b7b023          	sd	a1,1824(a5)
    80003388:	73473423          	sd	s4,1832(a4)
    8000338c:	72b7b423          	sd	a1,1832(a5)
    80003390:	73873823          	sd	s8,1840(a4)
    80003394:	72b7b823          	sd	a1,1840(a5)
    80003398:	74c7b023          	sd	a2,1856(a5)
    8000339c:	75473423          	sd	s4,1864(a4)
    800033a0:	3a96a423          	sw	s1,936(a3)
    800033a4:	74c7b823          	sd	a2,1872(a5)
    800033a8:	77973023          	sd	s9,1888(a4)
    800033ac:	77473423          	sd	s4,1896(a4)
    800033b0:	3bb6b823          	sd	s11,944(a3)
    800033b4:	77873823          	sd	s8,1904(a4)
    800033b8:	79373023          	sd	s3,1920(a4)
    800033bc:	3876ac23          	sw	t2,920(a3)
    800033c0:	3a66ac23          	sw	t1,952(a3)
    800033c4:	3da6b023          	sd	s10,960(a3)
    800033c8:	00800a93          	li	s5,8
    800033cc:	fffffb97          	auipc	s7,0xfffff
    800033d0:	43cb8b93          	add	s7,s7,1084 # 80002808 <cpu_op_aso>
    800033d4:	fffffd17          	auipc	s10,0xfffff
    800033d8:	0d0d0d13          	add	s10,s10,208 # 800024a4 <cpu_op_sed>
    800033dc:	06a7bc23          	sd	a0,120(a5)
    800033e0:	79473423          	sd	s4,1928(a4)
    800033e4:	79e7b423          	sd	t5,1928(a5)
    800033e8:	3c56aa23          	sw	t0,980(a3)
    800033ec:	7b473423          	sd	s4,1960(a4)
    800033f0:	7b07b423          	sd	a6,1960(a5)
    800033f4:	7b873823          	sd	s8,1968(a4)
    800033f8:	7b07b823          	sd	a6,1968(a5)
    800033fc:	7da73023          	sd	s10,1984(a4)
    80003400:	7cc7b023          	sd	a2,1984(a5)
    80003404:	3f26b023          	sd	s2,992(a3)
    80003408:	7d473423          	sd	s4,1992(a4)
    8000340c:	7dd7b423          	sd	t4,1992(a5)
    80003410:	3e56aa23          	sw	t0,1012(a3)
    80003414:	7f473423          	sd	s4,2024(a4)
    80003418:	7f17b423          	sd	a7,2024(a5)
    8000341c:	7f873823          	sd	s8,2032(a4)
    80003420:	7f17b823          	sd	a7,2032(a5)
    80003424:	0156a623          	sw	s5,12(a3)
    80003428:	01773c23          	sd	s7,24(a4)
    8000342c:	01f7bc23          	sd	t6,24(a5)
    80003430:	03773c23          	sd	s7,56(a4)
    80003434:	02b7bc23          	sd	a1,56(a5)
    80003438:	07773c23          	sd	s7,120(a4)
    8000343c:	0556a623          	sw	s5,76(a3)
    80003440:	09773c23          	sd	s7,152(a4)
    80003444:	09e7bc23          	sd	t5,152(a5)
    80003448:	0b773c23          	sd	s7,184(a4)
    8000344c:	3c66ac23          	sw	t1,984(a3)
    80003450:	3fc6ac23          	sw	t3,1016(a3)
    80003454:	0076ae23          	sw	t2,28(a3)
    80003458:	0466ae23          	sw	t1,92(a3)
    8000345c:	0b07bc23          	sd	a6,184(a5)
    80003460:	0d773c23          	sd	s7,216(a4)
    80003464:	0f773c23          	sd	s7,248(a4)
    80003468:	02013b83          	ld	s7,32(sp)
    8000346c:	02813d03          	ld	s10,40(sp)
    80003470:	00100c93          	li	s9,1
    80003474:	0b76b823          	sd	s7,176(a3)
    80003478:	00813b83          	ld	s7,8(sp)
    8000347c:	fffff997          	auipc	s3,0xfffff
    80003480:	4f498993          	add	s3,s3,1268 # 80002970 <cpu_op_rla>
    80003484:	022c9c93          	sll	s9,s9,0x22
    80003488:	16a7bc23          	sd	a0,376(a5)
    8000348c:	000c8b13          	mv	s6,s9
    80003490:	0dd7bc23          	sd	t4,216(a5)
    80003494:	0f17bc23          	sd	a7,248(a5)
    80003498:	0956a623          	sw	s5,140(a3)
    8000349c:	11373c23          	sd	s3,280(a4)
    800034a0:	11f7bc23          	sd	t6,280(a5)
    800034a4:	13373c23          	sd	s3,312(a4)
    800034a8:	12b7bc23          	sd	a1,312(a5)
    800034ac:	0b76bc23          	sd	s7,184(a3)
    800034b0:	0da6b023          	sd	s10,192(a3)
    800034b4:	17373c23          	sd	s3,376(a4)
    800034b8:	0d56a623          	sw	s5,204(a3)
    800034bc:	19373c23          	sd	s3,408(a4)
    800034c0:	19e7bc23          	sd	t5,408(a5)
    800034c4:	1b373c23          	sd	s3,440(a4)
    800034c8:	1b07bc23          	sd	a6,440(a5)
    800034cc:	1d373c23          	sd	s3,472(a4)
    800034d0:	1dd7bc23          	sd	t4,472(a5)
    800034d4:	1f373c23          	sd	s3,504(a4)
    800034d8:	1f17bc23          	sd	a7,504(a5)
    800034dc:	003c8c93          	add	s9,s9,3
    800034e0:	07c6a623          	sw	t3,108(a3)
    800034e4:	07c6ae23          	sw	t3,124(a3)
    800034e8:	0876ae23          	sw	t2,156(a3)
    800034ec:	0c66ae23          	sw	t1,220(a3)
    800034f0:	0fc6a623          	sw	t3,236(a3)
    800034f4:	0fc6ae23          	sw	t3,252(a3)
    800034f8:	1156a623          	sw	s5,268(a3)
    800034fc:	1396b823          	sd	s9,304(a3)
    80003500:	00813c83          	ld	s9,8(sp)
    80003504:	fffffc17          	auipc	s8,0xfffff
    80003508:	260c0c13          	add	s8,s8,608 # 80002764 <cpu_op_lse>
    8000350c:	fffff917          	auipc	s2,0xfffff
    80003510:	3bc90913          	add	s2,s2,956 # 800028c8 <cpu_op_rra>
    80003514:	005b0b13          	add	s6,s6,5
    80003518:	26a7bc23          	sd	a0,632(a5)
    8000351c:	21873c23          	sd	s8,536(a4)
    80003520:	21f7bc23          	sd	t6,536(a5)
    80003524:	23873c23          	sd	s8,568(a4)
    80003528:	22b7bc23          	sd	a1,568(a5)
    8000352c:	1396bc23          	sd	s9,312(a3)
    80003530:	15a6b023          	sd	s10,320(a3)
    80003534:	27873c23          	sd	s8,632(a4)
    80003538:	1556a623          	sw	s5,332(a3)
    8000353c:	29873c23          	sd	s8,664(a4)
    80003540:	29e7bc23          	sd	t5,664(a5)
    80003544:	2b873c23          	sd	s8,696(a4)
    80003548:	2b07bc23          	sd	a6,696(a5)
    8000354c:	2d873c23          	sd	s8,728(a4)
    80003550:	2dd7bc23          	sd	t4,728(a5)
    80003554:	2f873c23          	sd	s8,760(a4)
    80003558:	2f17bc23          	sd	a7,760(a5)
    8000355c:	1956a623          	sw	s5,396(a3)
    80003560:	31273c23          	sd	s2,792(a4)
    80003564:	31f7bc23          	sd	t6,792(a5)
    80003568:	33273c23          	sd	s2,824(a4)
    8000356c:	32b7bc23          	sd	a1,824(a5)
    80003570:	1b66b823          	sd	s6,432(a3)
    80003574:	1b96bc23          	sd	s9,440(a3)
    80003578:	1da6b023          	sd	s10,448(a3)
    8000357c:	37273c23          	sd	s2,888(a4)
    80003580:	1076ae23          	sw	t2,284(a3)
    80003584:	1466ae23          	sw	t1,348(a3)
    80003588:	17c6ae23          	sw	t3,380(a3)
    8000358c:	1876ae23          	sw	t2,412(a3)
    80003590:	36a7bc23          	sd	a0,888(a5)
    80003594:	39273c23          	sd	s2,920(a4)
    80003598:	3b273c23          	sd	s2,952(a4)
    8000359c:	3d273c23          	sd	s2,984(a4)
    800035a0:	3f273c23          	sd	s2,1016(a4)
    800035a4:	01813903          	ld	s2,24(sp)
    800035a8:	ffffeb97          	auipc	s7,0xffffe
    800035ac:	468b8b93          	add	s7,s7,1128 # 80001a10 <cpu_op_axs>
    800035b0:	000c8c13          	mv	s8,s9
    800035b4:	41773c23          	sd	s7,1048(a4)
    800035b8:	000d0c93          	mv	s9,s10
    800035bc:	43773c23          	sd	s7,1080(a4)
    800035c0:	00300d13          	li	s10,3
    800035c4:	2526b023          	sd	s2,576(a3)
    800035c8:	47773c23          	sd	s7,1144(a4)
    800035cc:	ffffe917          	auipc	s2,0xffffe
    800035d0:	41490913          	add	s2,s2,1044 # 800019e0 <cpu_op_axa>
    800035d4:	4b773c23          	sd	s7,1208(a4)
    800035d8:	00000b97          	auipc	s7,0x0
    800035dc:	66cb8b93          	add	s7,s7,1644 # 80003c44 <cpu_address_zero_page_y>
    800035e0:	46a7bc23          	sd	a0,1144(a5)
    800035e4:	4b77bc23          	sd	s7,1208(a5)
    800035e8:	1d56a623          	sw	s5,460(a3)
    800035ec:	39e7bc23          	sd	t5,920(a5)
    800035f0:	3b07bc23          	sd	a6,952(a5)
    800035f4:	3dd7bc23          	sd	t4,984(a5)
    800035f8:	3f17bc23          	sd	a7,1016(a5)
    800035fc:	41f7bc23          	sd	t6,1048(a5)
    80003600:	21a6ae23          	sw	s10,540(a3)
    80003604:	42b7bc23          	sd	a1,1080(a5)
    80003608:	23b6b823          	sd	s11,560(a3)
    8000360c:	23b6bc23          	sd	s11,568(a3)
    80003610:	49273c23          	sd	s2,1176(a4)
    80003614:	49e7bc23          	sd	t5,1176(a5)
    80003618:	2456ae23          	sw	t0,604(a3)
    8000361c:	4f273c23          	sd	s2,1272(a4)
    80003620:	1c66ae23          	sw	t1,476(a3)
    80003624:	1fc6a623          	sw	t3,492(a3)
    80003628:	1fc6ae23          	sw	t3,508(a3)
    8000362c:	2066a623          	sw	t1,524(a3)
    80003630:	2466a623          	sw	t1,588(a3)
    80003634:	2676ae23          	sw	t2,636(a3)
    80003638:	4fd7bc23          	sd	t4,1272(a5)
    8000363c:	2c56ae23          	sw	t0,732(a3)
    80003640:	01813283          	ld	t0,24(sp)
    80003644:	fffffb17          	auipc	s6,0xfffff
    80003648:	084b0b13          	add	s6,s6,132 # 800026c8 <cpu_op_dcm>
    8000364c:	ffffe997          	auipc	s3,0xffffe
    80003650:	20c98993          	add	s3,s3,524 # 80001858 <cpu_op_lax>
    80003654:	29a6ae23          	sw	s10,668(a3)
    80003658:	2d96b023          	sd	s9,704(a3)
    8000365c:	000c8d13          	mv	s10,s9
    80003660:	00100b93          	li	s7,1
    80003664:	00000c97          	auipc	s9,0x0
    80003668:	5e0c8c93          	add	s9,s9,1504 # 80003c44 <cpu_address_zero_page_y>
    8000366c:	ffffe917          	auipc	s2,0xffffe
    80003670:	78490913          	add	s2,s2,1924 # 80001df0 <cpu_op_ins>
    80003674:	56a7bc23          	sd	a0,1400(a5)
    80003678:	5b97bc23          	sd	s9,1464(a5)
    8000367c:	51373c23          	sd	s3,1304(a4)
    80003680:	000c0c93          	mv	s9,s8
    80003684:	51f7bc23          	sd	t6,1304(a5)
    80003688:	53373c23          	sd	s3,1336(a4)
    8000368c:	52b7bc23          	sd	a1,1336(a5)
    80003690:	2bb6b823          	sd	s11,688(a3)
    80003694:	2bb6bc23          	sd	s11,696(a3)
    80003698:	57373c23          	sd	s3,1400(a4)
    8000369c:	59373c23          	sd	s3,1432(a4)
    800036a0:	59e7bc23          	sd	t5,1432(a5)
    800036a4:	5b373c23          	sd	s3,1464(a4)
    800036a8:	2fb6b823          	sd	s11,752(a3)
    800036ac:	2fb6bc23          	sd	s11,760(a3)
    800036b0:	3056b023          	sd	t0,768(a3)
    800036b4:	5f373c23          	sd	s3,1528(a4)
    800036b8:	5fd7bc23          	sd	t4,1528(a5)
    800036bc:	3156a623          	sw	s5,780(a3)
    800036c0:	61673c23          	sd	s6,1560(a4)
    800036c4:	61f7bc23          	sd	t6,1560(a5)
    800036c8:	63673c23          	sd	s6,1592(a4)
    800036cc:	62b7bc23          	sd	a1,1592(a5)
    800036d0:	33b6b823          	sd	s11,816(a3)
    800036d4:	3386bc23          	sd	s8,824(a3)
    800036d8:	35a6b023          	sd	s10,832(a3)
    800036dc:	2866a623          	sw	t1,652(a3)
    800036e0:	2c76a623          	sw	t2,716(a3)
    800036e4:	3076ae23          	sw	t2,796(a3)
    800036e8:	022b9b93          	sll	s7,s7,0x22
    800036ec:	00700c13          	li	s8,7
    800036f0:	67673c23          	sd	s6,1656(a4)
    800036f4:	ffffe297          	auipc	t0,0xffffe
    800036f8:	dd028293          	add	t0,t0,-560 # 800014c4 <____FE____>
    800036fc:	00100993          	li	s3,1
    80003700:	66a7bc23          	sd	a0,1656(a5)
    80003704:	7487bc23          	sd	s0,1880(a5)
    80003708:	76a7bc23          	sd	a0,1912(a5)
    8000370c:	3556a623          	sw	s5,844(a3)
    80003710:	69673c23          	sd	s6,1688(a4)
    80003714:	69e7bc23          	sd	t5,1688(a5)
    80003718:	6b673c23          	sd	s6,1720(a4)
    8000371c:	6b07bc23          	sd	a6,1720(a5)
    80003720:	6d673c23          	sd	s6,1752(a4)
    80003724:	6dd7bc23          	sd	t4,1752(a5)
    80003728:	6f673c23          	sd	s6,1784(a4)
    8000372c:	6f17bc23          	sd	a7,1784(a5)
    80003730:	3956a623          	sw	s5,908(a3)
    80003734:	71273c23          	sd	s2,1816(a4)
    80003738:	71f7bc23          	sd	t6,1816(a5)
    8000373c:	73273c23          	sd	s2,1848(a4)
    80003740:	72b7bc23          	sd	a1,1848(a5)
    80003744:	3a96a623          	sw	s1,940(a3)
    80003748:	75473c23          	sd	s4,1880(a4)
    8000374c:	77273c23          	sd	s2,1912(a4)
    80003750:	3d56a623          	sw	s5,972(a3)
    80003754:	79273c23          	sd	s2,1944(a4)
    80003758:	79e7bc23          	sd	t5,1944(a5)
    8000375c:	7b273c23          	sd	s2,1976(a4)
    80003760:	7b07bc23          	sd	a6,1976(a5)
    80003764:	001b8b93          	add	s7,s7,1
    80003768:	3466ae23          	sw	t1,860(a3)
    8000376c:	37c6a623          	sw	t3,876(a3)
    80003770:	37c6ae23          	sw	t3,892(a3)
    80003774:	3876ae23          	sw	t2,924(a3)
    80003778:	3a66ae23          	sw	t1,956(a3)
    8000377c:	3c66ae23          	sw	t1,988(a3)
    80003780:	3fc6a623          	sw	t3,1004(a3)
    80003784:	020c1c13          	sll	s8,s8,0x20
    80003788:	7d273c23          	sd	s2,2008(a4)
    8000378c:	001c0c13          	add	s8,s8,1
    80003790:	06a7b023          	sd	a0,96(a5)
    80003794:	7dd7bc23          	sd	t4,2008(a5)
    80003798:	7f273c23          	sd	s2,2040(a4)
    8000379c:	7f17bc23          	sd	a7,2040(a5)
    800037a0:	0136a823          	sw	s3,16(a3)
    800037a4:	02b7b023          	sd	a1,32(a5)
    800037a8:	0376b823          	sd	s7,48(a3)
    800037ac:	0396bc23          	sd	s9,56(a3)
    800037b0:	05a6b023          	sd	s10,64(a3)
    800037b4:	0536a823          	sw	s3,80(a3)
    800037b8:	0b07b023          	sd	a6,160(a5)
    800037bc:	0736a423          	sw	s3,104(a3)
    800037c0:	0cc7b823          	sd	a2,208(a5)
    800037c4:	0736a823          	sw	s3,112(a3)
    800037c8:	0f17b023          	sd	a7,224(a5)
    800037cc:	0d36a823          	sw	s3,208(a3)
    800037d0:	1b07b023          	sd	a6,416(a5)
    800037d4:	0f36a423          	sw	s3,232(a3)
    800037d8:	1cc7b823          	sd	a2,464(a5)
    800037dc:	0f36a823          	sw	s3,240(a3)
    800037e0:	1f17b023          	sd	a7,480(a5)
    800037e4:	1136a823          	sw	s3,272(a3)
    800037e8:	3fc6ae23          	sw	t3,1020(a3)
    800037ec:	02573023          	sd	t0,32(a4)
    800037f0:	06573023          	sd	t0,96(a4)
    800037f4:	0a573023          	sd	t0,160(a4)
    800037f8:	0c573823          	sd	t0,208(a4)
    800037fc:	0e573023          	sd	t0,224(a4)
    80003800:	1a573023          	sd	t0,416(a4)
    80003804:	1c573823          	sd	t0,464(a4)
    80003808:	1e573023          	sd	t0,480(a4)
    8000380c:	22573023          	sd	t0,544(a4)
    80003810:	22b7b023          	sd	a1,544(a5)
    80003814:	4087b023          	sd	s0,1024(a5)
    80003818:	1536a823          	sw	s3,336(a3)
    8000381c:	2b07b023          	sd	a6,672(a5)
    80003820:	1786b423          	sd	s8,360(a3)
    80003824:	2cc7b823          	sd	a2,720(a5)
    80003828:	1736a823          	sw	s3,368(a3)
    8000382c:	2f17b023          	sd	a7,736(a5)
    80003830:	1936a823          	sw	s3,400(a3)
    80003834:	32b7b023          	sd	a1,800(a5)
    80003838:	1d36a823          	sw	s3,464(a3)
    8000383c:	3b07b023          	sd	a6,928(a5)
    80003840:	1f36a423          	sw	s3,488(a3)
    80003844:	3cc7b823          	sd	a2,976(a5)
    80003848:	1f36a823          	sw	s3,496(a3)
    8000384c:	3f17b023          	sd	a7,992(a5)
    80003850:	2136a023          	sw	s3,512(a3)
    80003854:	3536a823          	sw	s3,848(a3)
    80003858:	6b07b023          	sd	a6,1696(a5)
    8000385c:	3736a423          	sw	s3,872(a3)
    80003860:	6cc7b823          	sd	a2,1744(a5)
    80003864:	3736a823          	sw	s3,880(a3)
    80003868:	2a573023          	sd	t0,672(a4)
    8000386c:	2c573823          	sd	t0,720(a4)
    80003870:	2e573023          	sd	t0,736(a4)
    80003874:	32573023          	sd	t0,800(a4)
    80003878:	3a573023          	sd	t0,928(a4)
    8000387c:	3c573823          	sd	t0,976(a4)
    80003880:	3e573023          	sd	t0,992(a4)
    80003884:	40573023          	sd	t0,1024(a4)
    80003888:	6a573023          	sd	t0,1696(a4)
    8000388c:	6c573823          	sd	t0,1744(a4)
    80003890:	6e573023          	sd	t0,1760(a4)
    80003894:	6f17b023          	sd	a7,1760(a5)
    80003898:	00178517          	auipc	a0,0x178
    8000389c:	b4050513          	add	a0,a0,-1216 # 8017b3d8 <cpu>
    800038a0:	7b07b023          	sd	a6,1952(a5)
    800038a4:	7cc7b823          	sd	a2,2000(a5)
    800038a8:	7f17b023          	sd	a7,2016(a5)
    800038ac:	02400793          	li	a5,36
    800038b0:	00051123          	sh	zero,2(a0)
    800038b4:	00051223          	sh	zero,4(a0)
    800038b8:	00f50323          	sb	a5,6(a0)
    800038bc:	08813403          	ld	s0,136(sp)
    800038c0:	3d36a823          	sw	s3,976(a3)
    800038c4:	3f36a423          	sw	s3,1000(a3)
    800038c8:	3f36a823          	sw	s3,1008(a3)
    800038cc:	7a573023          	sd	t0,1952(a4)
    800038d0:	7c573823          	sd	t0,2000(a4)
    800038d4:	7e573023          	sd	t0,2016(a4)
    800038d8:	08013483          	ld	s1,128(sp)
    800038dc:	07813903          	ld	s2,120(sp)
    800038e0:	07013983          	ld	s3,112(sp)
    800038e4:	06813a03          	ld	s4,104(sp)
    800038e8:	06013a83          	ld	s5,96(sp)
    800038ec:	05813b03          	ld	s6,88(sp)
    800038f0:	05013b83          	ld	s7,80(sp)
    800038f4:	04813c03          	ld	s8,72(sp)
    800038f8:	04013c83          	ld	s9,64(sp)
    800038fc:	03813d03          	ld	s10,56(sp)
    80003900:	03013d83          	ld	s11,48(sp)
    80003904:	09010113          	add	sp,sp,144
    80003908:	00008067          	ret

000000008000390c <cpu_reset>:
    8000390c:	00010537          	lui	a0,0x10
    80003910:	ff010113          	add	sp,sp,-16
    80003914:	ffc50513          	add	a0,a0,-4 # fffc <_entry_offset+0xfffc>
    80003918:	00113423          	sd	ra,8(sp)
    8000391c:	a15fd0ef          	jal	80001330 <memory_readw>
    80003920:	00178797          	auipc	a5,0x178
    80003924:	ab878793          	add	a5,a5,-1352 # 8017b3d8 <cpu>
    80003928:	0027c683          	lbu	a3,2(a5)
    8000392c:	0067c703          	lbu	a4,6(a5)
    80003930:	00a79023          	sh	a0,0(a5)
    80003934:	ffd6869b          	addw	a3,a3,-3
    80003938:	00476713          	or	a4,a4,4
    8000393c:	00d78123          	sb	a3,2(a5)
    80003940:	00e78323          	sb	a4,6(a5)
    80003944:	00813083          	ld	ra,8(sp)
    80003948:	01010113          	add	sp,sp,16
    8000394c:	00008067          	ret

0000000080003950 <cpu_interrupt>:
    80003950:	ff010113          	add	sp,sp,-16
    80003954:	00113423          	sd	ra,8(sp)
    80003958:	f30fc0ef          	jal	80000088 <ppu_generates_nmi>
    8000395c:	00051863          	bnez	a0,8000396c <cpu_interrupt+0x1c>
    80003960:	00813083          	ld	ra,8(sp)
    80003964:	01010113          	add	sp,sp,16
    80003968:	00008067          	ret
    8000396c:	00813023          	sd	s0,0(sp)
    80003970:	00178417          	auipc	s0,0x178
    80003974:	a6840413          	add	s0,s0,-1432 # 8017b3d8 <cpu>
    80003978:	00644783          	lbu	a5,6(s0)
    8000397c:	00500593          	li	a1,5
    80003980:	00178517          	auipc	a0,0x178
    80003984:	a5e50513          	add	a0,a0,-1442 # 8017b3de <cpu+0x6>
    80003988:	0047e793          	or	a5,a5,4
    8000398c:	00f40323          	sb	a5,6(s0)
    80003990:	eacfc0ef          	jal	8000003c <common_unset_bitb>
    80003994:	00244503          	lbu	a0,2(s0)
    80003998:	00045583          	lhu	a1,0(s0)
    8000399c:	0ff50513          	add	a0,a0,255
    800039a0:	ae1fd0ef          	jal	80001480 <memory_writew>
    800039a4:	00244783          	lbu	a5,2(s0)
    800039a8:	00644583          	lbu	a1,6(s0)
    800039ac:	ffe7851b          	addw	a0,a5,-2
    800039b0:	0ff57513          	zext.b	a0,a0
    800039b4:	1005051b          	addw	a0,a0,256
    800039b8:	03051513          	sll	a0,a0,0x30
    800039bc:	ffd7879b          	addw	a5,a5,-3
    800039c0:	03055513          	srl	a0,a0,0x30
    800039c4:	00f40123          	sb	a5,2(s0)
    800039c8:	8c9fd0ef          	jal	80001290 <memory_writeb>
    800039cc:	00010537          	lui	a0,0x10
    800039d0:	ffa50513          	add	a0,a0,-6 # fffa <_entry_offset+0xfffa>
    800039d4:	95dfd0ef          	jal	80001330 <memory_readw>
    800039d8:	00813083          	ld	ra,8(sp)
    800039dc:	00a41023          	sh	a0,0(s0)
    800039e0:	00013403          	ld	s0,0(sp)
    800039e4:	01010113          	add	sp,sp,16
    800039e8:	00008067          	ret

00000000800039ec <cpu_clock>:
    800039ec:	00178517          	auipc	a0,0x178
    800039f0:	9d453503          	ld	a0,-1580(a0) # 8017b3c0 <cpu_cycles>
    800039f4:	00008067          	ret

00000000800039f8 <cpu_run>:
    800039f8:	fb010113          	add	sp,sp,-80
    800039fc:	04813023          	sd	s0,64(sp)
    80003a00:	04113423          	sd	ra,72(sp)
    80003a04:	00300413          	li	s0,3
    80003a08:	00200793          	li	a5,2
    80003a0c:	02854433          	div	s0,a0,s0
    80003a10:	0ea7d463          	bge	a5,a0,80003af8 <cpu_run+0x100>
    80003a14:	02913c23          	sd	s1,56(sp)
    80003a18:	03213823          	sd	s2,48(sp)
    80003a1c:	03313423          	sd	s3,40(sp)
    80003a20:	03413023          	sd	s4,32(sp)
    80003a24:	01513c23          	sd	s5,24(sp)
    80003a28:	01613823          	sd	s6,16(sp)
    80003a2c:	01713423          	sd	s7,8(sp)
    80003a30:	00178997          	auipc	s3,0x178
    80003a34:	9a898993          	add	s3,s3,-1624 # 8017b3d8 <cpu>
    80003a38:	00178497          	auipc	s1,0x178
    80003a3c:	99c48493          	add	s1,s1,-1636 # 8017b3d4 <op_code>
    80003a40:	00121b17          	auipc	s6,0x121
    80003a44:	d78b0b13          	add	s6,s6,-648 # 801247b8 <cpu_op_address_mode>
    80003a48:	00120a97          	auipc	s5,0x120
    80003a4c:	170a8a93          	add	s5,s5,368 # 80123bb8 <cpu_op_cycles>
    80003a50:	00178a17          	auipc	s4,0x178
    80003a54:	978a0a13          	add	s4,s4,-1672 # 8017b3c8 <op_cycles>
    80003a58:	00178917          	auipc	s2,0x178
    80003a5c:	96890913          	add	s2,s2,-1688 # 8017b3c0 <cpu_cycles>
    80003a60:	00120b97          	auipc	s7,0x120
    80003a64:	558b8b93          	add	s7,s7,1368 # 80123fb8 <cpu_op_handler>
    80003a68:	0009d503          	lhu	a0,0(s3)
    80003a6c:	0015079b          	addw	a5,a0,1
    80003a70:	00f99023          	sh	a5,0(s3)
    80003a74:	fe0fd0ef          	jal	80001254 <memory_readb>
    80003a78:	00351793          	sll	a5,a0,0x3
    80003a7c:	00fb07b3          	add	a5,s6,a5
    80003a80:	0007b783          	ld	a5,0(a5)
    80003a84:	00a48023          	sb	a0,0(s1)
    80003a88:	0005051b          	sext.w	a0,a0
    80003a8c:	06078e63          	beqz	a5,80003b08 <cpu_run+0x110>
    80003a90:	000780e7          	jalr	a5
    80003a94:	0004c783          	lbu	a5,0(s1)
    80003a98:	00379793          	sll	a5,a5,0x3
    80003a9c:	00fb87b3          	add	a5,s7,a5
    80003aa0:	0007b783          	ld	a5,0(a5)
    80003aa4:	000780e7          	jalr	a5
    80003aa8:	0004c783          	lbu	a5,0(s1)
    80003aac:	000a2703          	lw	a4,0(s4)
    80003ab0:	00093683          	ld	a3,0(s2)
    80003ab4:	00279793          	sll	a5,a5,0x2
    80003ab8:	00fa87b3          	add	a5,s5,a5
    80003abc:	0007a783          	lw	a5,0(a5)
    80003ac0:	00178617          	auipc	a2,0x178
    80003ac4:	90062423          	sw	zero,-1784(a2) # 8017b3c8 <op_cycles>
    80003ac8:	00f707bb          	addw	a5,a4,a5
    80003acc:	40f68733          	sub	a4,a3,a5
    80003ad0:	40f40433          	sub	s0,s0,a5
    80003ad4:	00e93023          	sd	a4,0(s2)
    80003ad8:	f88048e3          	bgtz	s0,80003a68 <cpu_run+0x70>
    80003adc:	03813483          	ld	s1,56(sp)
    80003ae0:	03013903          	ld	s2,48(sp)
    80003ae4:	02813983          	ld	s3,40(sp)
    80003ae8:	02013a03          	ld	s4,32(sp)
    80003aec:	01813a83          	ld	s5,24(sp)
    80003af0:	01013b03          	ld	s6,16(sp)
    80003af4:	00813b83          	ld	s7,8(sp)
    80003af8:	04813083          	ld	ra,72(sp)
    80003afc:	04013403          	ld	s0,64(sp)
    80003b00:	05010113          	add	sp,sp,80
    80003b04:	00008067          	ret
    80003b08:	00251513          	sll	a0,a0,0x2
    80003b0c:	00aa8533          	add	a0,s5,a0
    80003b10:	000a2783          	lw	a5,0(s4)
    80003b14:	00052683          	lw	a3,0(a0)
    80003b18:	00093703          	ld	a4,0(s2)
    80003b1c:	00178617          	auipc	a2,0x178
    80003b20:	8a062623          	sw	zero,-1876(a2) # 8017b3c8 <op_cycles>
    80003b24:	00d787bb          	addw	a5,a5,a3
    80003b28:	40f70733          	sub	a4,a4,a5
    80003b2c:	40f40433          	sub	s0,s0,a5
    80003b30:	00e93023          	sd	a4,0(s2)
    80003b34:	f2804ae3          	bgtz	s0,80003a68 <cpu_run+0x70>
    80003b38:	fa5ff06f          	j	80003adc <cpu_run+0xe4>

0000000080003b3c <cpu_address_implied>:
    80003b3c:	00008067          	ret

0000000080003b40 <cpu_address_immediate>:
    80003b40:	ff010113          	add	sp,sp,-16
    80003b44:	00813023          	sd	s0,0(sp)
    80003b48:	00178417          	auipc	s0,0x178
    80003b4c:	89040413          	add	s0,s0,-1904 # 8017b3d8 <cpu>
    80003b50:	00045503          	lhu	a0,0(s0)
    80003b54:	00113423          	sd	ra,8(sp)
    80003b58:	efcfd0ef          	jal	80001254 <memory_readb>
    80003b5c:	00045783          	lhu	a5,0(s0)
    80003b60:	00813083          	ld	ra,8(sp)
    80003b64:	00178717          	auipc	a4,0x178
    80003b68:	86a72623          	sw	a0,-1940(a4) # 8017b3d0 <op_value>
    80003b6c:	0017879b          	addw	a5,a5,1
    80003b70:	00f41023          	sh	a5,0(s0)
    80003b74:	00013403          	ld	s0,0(sp)
    80003b78:	01010113          	add	sp,sp,16
    80003b7c:	00008067          	ret

0000000080003b80 <cpu_address_zero_page>:
    80003b80:	ff010113          	add	sp,sp,-16
    80003b84:	00813023          	sd	s0,0(sp)
    80003b88:	00178417          	auipc	s0,0x178
    80003b8c:	85040413          	add	s0,s0,-1968 # 8017b3d8 <cpu>
    80003b90:	00045503          	lhu	a0,0(s0)
    80003b94:	00113423          	sd	ra,8(sp)
    80003b98:	ebcfd0ef          	jal	80001254 <memory_readb>
    80003b9c:	00045783          	lhu	a5,0(s0)
    80003ba0:	0005051b          	sext.w	a0,a0
    80003ba4:	00121717          	auipc	a4,0x121
    80003ba8:	41470713          	add	a4,a4,1044 # 80124fb8 <CPU_RAM>
    80003bac:	00a70733          	add	a4,a4,a0
    80003bb0:	00074703          	lbu	a4,0(a4)
    80003bb4:	0017879b          	addw	a5,a5,1
    80003bb8:	00813083          	ld	ra,8(sp)
    80003bbc:	00f41023          	sh	a5,0(s0)
    80003bc0:	00013403          	ld	s0,0(sp)
    80003bc4:	00178697          	auipc	a3,0x178
    80003bc8:	80a6a423          	sw	a0,-2040(a3) # 8017b3cc <op_address>
    80003bcc:	00178697          	auipc	a3,0x178
    80003bd0:	80e6a223          	sw	a4,-2044(a3) # 8017b3d0 <op_value>
    80003bd4:	01010113          	add	sp,sp,16
    80003bd8:	00008067          	ret

0000000080003bdc <cpu_address_zero_page_x>:
    80003bdc:	ff010113          	add	sp,sp,-16
    80003be0:	00813023          	sd	s0,0(sp)
    80003be4:	00177417          	auipc	s0,0x177
    80003be8:	7f440413          	add	s0,s0,2036 # 8017b3d8 <cpu>
    80003bec:	00045503          	lhu	a0,0(s0)
    80003bf0:	00113423          	sd	ra,8(sp)
    80003bf4:	e60fd0ef          	jal	80001254 <memory_readb>
    80003bf8:	00444783          	lbu	a5,4(s0)
    80003bfc:	00045703          	lhu	a4,0(s0)
    80003c00:	00813083          	ld	ra,8(sp)
    80003c04:	00a7853b          	addw	a0,a5,a0
    80003c08:	0ff57693          	zext.b	a3,a0
    80003c0c:	00121797          	auipc	a5,0x121
    80003c10:	3ac78793          	add	a5,a5,940 # 80124fb8 <CPU_RAM>
    80003c14:	00d787b3          	add	a5,a5,a3
    80003c18:	0007c783          	lbu	a5,0(a5)
    80003c1c:	0017071b          	addw	a4,a4,1
    80003c20:	00e41023          	sh	a4,0(s0)
    80003c24:	00013403          	ld	s0,0(sp)
    80003c28:	0ff57513          	zext.b	a0,a0
    80003c2c:	00177697          	auipc	a3,0x177
    80003c30:	7aa6a023          	sw	a0,1952(a3) # 8017b3cc <op_address>
    80003c34:	00177697          	auipc	a3,0x177
    80003c38:	78f6ae23          	sw	a5,1948(a3) # 8017b3d0 <op_value>
    80003c3c:	01010113          	add	sp,sp,16
    80003c40:	00008067          	ret

0000000080003c44 <cpu_address_zero_page_y>:
    80003c44:	ff010113          	add	sp,sp,-16
    80003c48:	00813023          	sd	s0,0(sp)
    80003c4c:	00177417          	auipc	s0,0x177
    80003c50:	78c40413          	add	s0,s0,1932 # 8017b3d8 <cpu>
    80003c54:	00045503          	lhu	a0,0(s0)
    80003c58:	00113423          	sd	ra,8(sp)
    80003c5c:	df8fd0ef          	jal	80001254 <memory_readb>
    80003c60:	00544783          	lbu	a5,5(s0)
    80003c64:	00045703          	lhu	a4,0(s0)
    80003c68:	00813083          	ld	ra,8(sp)
    80003c6c:	00a7853b          	addw	a0,a5,a0
    80003c70:	0ff57693          	zext.b	a3,a0
    80003c74:	00121797          	auipc	a5,0x121
    80003c78:	34478793          	add	a5,a5,836 # 80124fb8 <CPU_RAM>
    80003c7c:	00d787b3          	add	a5,a5,a3
    80003c80:	0007c783          	lbu	a5,0(a5)
    80003c84:	0017071b          	addw	a4,a4,1
    80003c88:	00e41023          	sh	a4,0(s0)
    80003c8c:	00013403          	ld	s0,0(sp)
    80003c90:	0ff57513          	zext.b	a0,a0
    80003c94:	00177697          	auipc	a3,0x177
    80003c98:	72a6ac23          	sw	a0,1848(a3) # 8017b3cc <op_address>
    80003c9c:	00177697          	auipc	a3,0x177
    80003ca0:	72f6aa23          	sw	a5,1844(a3) # 8017b3d0 <op_value>
    80003ca4:	01010113          	add	sp,sp,16
    80003ca8:	00008067          	ret

0000000080003cac <cpu_address_absolute>:
    80003cac:	ff010113          	add	sp,sp,-16
    80003cb0:	00813023          	sd	s0,0(sp)
    80003cb4:	00177417          	auipc	s0,0x177
    80003cb8:	72440413          	add	s0,s0,1828 # 8017b3d8 <cpu>
    80003cbc:	00045503          	lhu	a0,0(s0)
    80003cc0:	00113423          	sd	ra,8(sp)
    80003cc4:	e6cfd0ef          	jal	80001330 <memory_readw>
    80003cc8:	00177717          	auipc	a4,0x177
    80003ccc:	70a72223          	sw	a0,1796(a4) # 8017b3cc <op_address>
    80003cd0:	d84fd0ef          	jal	80001254 <memory_readb>
    80003cd4:	00045783          	lhu	a5,0(s0)
    80003cd8:	00813083          	ld	ra,8(sp)
    80003cdc:	00177717          	auipc	a4,0x177
    80003ce0:	6ea72a23          	sw	a0,1780(a4) # 8017b3d0 <op_value>
    80003ce4:	0027879b          	addw	a5,a5,2
    80003ce8:	00f41023          	sh	a5,0(s0)
    80003cec:	00013403          	ld	s0,0(sp)
    80003cf0:	01010113          	add	sp,sp,16
    80003cf4:	00008067          	ret

0000000080003cf8 <cpu_address_absolute_x>:
    80003cf8:	fe010113          	add	sp,sp,-32
    80003cfc:	00813823          	sd	s0,16(sp)
    80003d00:	00177417          	auipc	s0,0x177
    80003d04:	6d840413          	add	s0,s0,1752 # 8017b3d8 <cpu>
    80003d08:	00045503          	lhu	a0,0(s0)
    80003d0c:	00113c23          	sd	ra,24(sp)
    80003d10:	00913423          	sd	s1,8(sp)
    80003d14:	e1cfd0ef          	jal	80001330 <memory_readw>
    80003d18:	00444783          	lbu	a5,4(s0)
    80003d1c:	00177497          	auipc	s1,0x177
    80003d20:	6b048493          	add	s1,s1,1712 # 8017b3cc <op_address>
    80003d24:	00a787bb          	addw	a5,a5,a0
    80003d28:	03079513          	sll	a0,a5,0x30
    80003d2c:	03055513          	srl	a0,a0,0x30
    80003d30:	00f4a023          	sw	a5,0(s1)
    80003d34:	d20fd0ef          	jal	80001254 <memory_readb>
    80003d38:	00045783          	lhu	a5,0(s0)
    80003d3c:	0004a703          	lw	a4,0(s1)
    80003d40:	00177697          	auipc	a3,0x177
    80003d44:	68a6a823          	sw	a0,1680(a3) # 8017b3d0 <op_value>
    80003d48:	0027879b          	addw	a5,a5,2
    80003d4c:	03079793          	sll	a5,a5,0x30
    80003d50:	0307d793          	srl	a5,a5,0x30
    80003d54:	00f41023          	sh	a5,0(s0)
    80003d58:	40875713          	sra	a4,a4,0x8
    80003d5c:	0087d793          	srl	a5,a5,0x8
    80003d60:	00f70c63          	beq	a4,a5,80003d78 <cpu_address_absolute_x+0x80>
    80003d64:	00177717          	auipc	a4,0x177
    80003d68:	66470713          	add	a4,a4,1636 # 8017b3c8 <op_cycles>
    80003d6c:	00072783          	lw	a5,0(a4)
    80003d70:	0017879b          	addw	a5,a5,1
    80003d74:	00f72023          	sw	a5,0(a4)
    80003d78:	01813083          	ld	ra,24(sp)
    80003d7c:	01013403          	ld	s0,16(sp)
    80003d80:	00813483          	ld	s1,8(sp)
    80003d84:	02010113          	add	sp,sp,32
    80003d88:	00008067          	ret

0000000080003d8c <cpu_address_absolute_y>:
    80003d8c:	fe010113          	add	sp,sp,-32
    80003d90:	00813823          	sd	s0,16(sp)
    80003d94:	00177417          	auipc	s0,0x177
    80003d98:	64440413          	add	s0,s0,1604 # 8017b3d8 <cpu>
    80003d9c:	00045503          	lhu	a0,0(s0)
    80003da0:	00113c23          	sd	ra,24(sp)
    80003da4:	00913423          	sd	s1,8(sp)
    80003da8:	d88fd0ef          	jal	80001330 <memory_readw>
    80003dac:	00544783          	lbu	a5,5(s0)
    80003db0:	00177497          	auipc	s1,0x177
    80003db4:	61c48493          	add	s1,s1,1564 # 8017b3cc <op_address>
    80003db8:	00a7853b          	addw	a0,a5,a0
    80003dbc:	03051793          	sll	a5,a0,0x30
    80003dc0:	0307d793          	srl	a5,a5,0x30
    80003dc4:	00078513          	mv	a0,a5
    80003dc8:	00f4a023          	sw	a5,0(s1)
    80003dcc:	c88fd0ef          	jal	80001254 <memory_readb>
    80003dd0:	00045783          	lhu	a5,0(s0)
    80003dd4:	0004a703          	lw	a4,0(s1)
    80003dd8:	00177697          	auipc	a3,0x177
    80003ddc:	5ea6ac23          	sw	a0,1528(a3) # 8017b3d0 <op_value>
    80003de0:	0027879b          	addw	a5,a5,2
    80003de4:	03079793          	sll	a5,a5,0x30
    80003de8:	0307d793          	srl	a5,a5,0x30
    80003dec:	00f41023          	sh	a5,0(s0)
    80003df0:	40875713          	sra	a4,a4,0x8
    80003df4:	0087d793          	srl	a5,a5,0x8
    80003df8:	00f70c63          	beq	a4,a5,80003e10 <cpu_address_absolute_y+0x84>
    80003dfc:	00177717          	auipc	a4,0x177
    80003e00:	5cc70713          	add	a4,a4,1484 # 8017b3c8 <op_cycles>
    80003e04:	00072783          	lw	a5,0(a4)
    80003e08:	0017879b          	addw	a5,a5,1
    80003e0c:	00f72023          	sw	a5,0(a4)
    80003e10:	01813083          	ld	ra,24(sp)
    80003e14:	01013403          	ld	s0,16(sp)
    80003e18:	00813483          	ld	s1,8(sp)
    80003e1c:	02010113          	add	sp,sp,32
    80003e20:	00008067          	ret

0000000080003e24 <cpu_address_relative>:
    80003e24:	ff010113          	add	sp,sp,-16
    80003e28:	00813023          	sd	s0,0(sp)
    80003e2c:	00177417          	auipc	s0,0x177
    80003e30:	5ac40413          	add	s0,s0,1452 # 8017b3d8 <cpu>
    80003e34:	00045503          	lhu	a0,0(s0)
    80003e38:	00113423          	sd	ra,8(sp)
    80003e3c:	c18fd0ef          	jal	80001254 <memory_readb>
    80003e40:	00045783          	lhu	a5,0(s0)
    80003e44:	0185171b          	sllw	a4,a0,0x18
    80003e48:	4187571b          	sraw	a4,a4,0x18
    80003e4c:	0017879b          	addw	a5,a5,1
    80003e50:	03079793          	sll	a5,a5,0x30
    80003e54:	0307d793          	srl	a5,a5,0x30
    80003e58:	00f41023          	sh	a5,0(s0)
    80003e5c:	0005051b          	sext.w	a0,a0
    80003e60:	00075463          	bgez	a4,80003e68 <cpu_address_relative+0x44>
    80003e64:	f005051b          	addw	a0,a0,-256
    80003e68:	00a7853b          	addw	a0,a5,a0
    80003e6c:	00177717          	auipc	a4,0x177
    80003e70:	56a72023          	sw	a0,1376(a4) # 8017b3cc <op_address>
    80003e74:	0087d793          	srl	a5,a5,0x8
    80003e78:	4085551b          	sraw	a0,a0,0x8
    80003e7c:	00f50c63          	beq	a0,a5,80003e94 <cpu_address_relative+0x70>
    80003e80:	00177717          	auipc	a4,0x177
    80003e84:	54870713          	add	a4,a4,1352 # 8017b3c8 <op_cycles>
    80003e88:	00072783          	lw	a5,0(a4)
    80003e8c:	0017879b          	addw	a5,a5,1
    80003e90:	00f72023          	sw	a5,0(a4)
    80003e94:	00813083          	ld	ra,8(sp)
    80003e98:	00013403          	ld	s0,0(sp)
    80003e9c:	01010113          	add	sp,sp,16
    80003ea0:	00008067          	ret

0000000080003ea4 <cpu_address_indirect>:
    80003ea4:	fe010113          	add	sp,sp,-32
    80003ea8:	01213023          	sd	s2,0(sp)
    80003eac:	00177917          	auipc	s2,0x177
    80003eb0:	52c90913          	add	s2,s2,1324 # 8017b3d8 <cpu>
    80003eb4:	00095503          	lhu	a0,0(s2)
    80003eb8:	00113c23          	sd	ra,24(sp)
    80003ebc:	c74fd0ef          	jal	80001330 <memory_readw>
    80003ec0:	0ff57713          	zext.b	a4,a0
    80003ec4:	0ff00793          	li	a5,255
    80003ec8:	02f70863          	beq	a4,a5,80003ef8 <cpu_address_indirect+0x54>
    80003ecc:	c64fd0ef          	jal	80001330 <memory_readw>
    80003ed0:	0005051b          	sext.w	a0,a0
    80003ed4:	00095783          	lhu	a5,0(s2)
    80003ed8:	01813083          	ld	ra,24(sp)
    80003edc:	00177717          	auipc	a4,0x177
    80003ee0:	4ea72823          	sw	a0,1264(a4) # 8017b3cc <op_address>
    80003ee4:	0027879b          	addw	a5,a5,2
    80003ee8:	00f91023          	sh	a5,0(s2)
    80003eec:	00013903          	ld	s2,0(sp)
    80003ef0:	02010113          	add	sp,sp,32
    80003ef4:	00008067          	ret
    80003ef8:	00913423          	sd	s1,8(sp)
    80003efc:	00050493          	mv	s1,a0
    80003f00:	00010537          	lui	a0,0x10
    80003f04:	f0050513          	add	a0,a0,-256 # ff00 <_entry_offset+0xff00>
    80003f08:	00a4f533          	and	a0,s1,a0
    80003f0c:	00813823          	sd	s0,16(sp)
    80003f10:	b44fd0ef          	jal	80001254 <memory_readb>
    80003f14:	00050413          	mv	s0,a0
    80003f18:	00048513          	mv	a0,s1
    80003f1c:	b38fd0ef          	jal	80001254 <memory_readb>
    80003f20:	0084141b          	sllw	s0,s0,0x8
    80003f24:	00a4053b          	addw	a0,s0,a0
    80003f28:	00813483          	ld	s1,8(sp)
    80003f2c:	01013403          	ld	s0,16(sp)
    80003f30:	fa5ff06f          	j	80003ed4 <cpu_address_indirect+0x30>

0000000080003f34 <cpu_address_indirect_x>:
    80003f34:	fe010113          	add	sp,sp,-32
    80003f38:	00813823          	sd	s0,16(sp)
    80003f3c:	00177417          	auipc	s0,0x177
    80003f40:	49c40413          	add	s0,s0,1180 # 8017b3d8 <cpu>
    80003f44:	00045503          	lhu	a0,0(s0)
    80003f48:	00113c23          	sd	ra,24(sp)
    80003f4c:	00913423          	sd	s1,8(sp)
    80003f50:	01213023          	sd	s2,0(sp)
    80003f54:	b00fd0ef          	jal	80001254 <memory_readb>
    80003f58:	00444783          	lbu	a5,4(s0)
    80003f5c:	00050913          	mv	s2,a0
    80003f60:	0017879b          	addw	a5,a5,1
    80003f64:	00a787bb          	addw	a5,a5,a0
    80003f68:	0ff7f513          	zext.b	a0,a5
    80003f6c:	ae8fd0ef          	jal	80001254 <memory_readb>
    80003f70:	00444783          	lbu	a5,4(s0)
    80003f74:	00050493          	mv	s1,a0
    80003f78:	0084949b          	sllw	s1,s1,0x8
    80003f7c:	0127853b          	addw	a0,a5,s2
    80003f80:	0ff57513          	zext.b	a0,a0
    80003f84:	ad0fd0ef          	jal	80001254 <memory_readb>
    80003f88:	009567b3          	or	a5,a0,s1
    80003f8c:	0007879b          	sext.w	a5,a5
    80003f90:	03079513          	sll	a0,a5,0x30
    80003f94:	03055513          	srl	a0,a0,0x30
    80003f98:	00177717          	auipc	a4,0x177
    80003f9c:	42f72a23          	sw	a5,1076(a4) # 8017b3cc <op_address>
    80003fa0:	ab4fd0ef          	jal	80001254 <memory_readb>
    80003fa4:	00045783          	lhu	a5,0(s0)
    80003fa8:	01813083          	ld	ra,24(sp)
    80003fac:	00177717          	auipc	a4,0x177
    80003fb0:	42a72223          	sw	a0,1060(a4) # 8017b3d0 <op_value>
    80003fb4:	0017879b          	addw	a5,a5,1
    80003fb8:	00f41023          	sh	a5,0(s0)
    80003fbc:	01013403          	ld	s0,16(sp)
    80003fc0:	00813483          	ld	s1,8(sp)
    80003fc4:	00013903          	ld	s2,0(sp)
    80003fc8:	02010113          	add	sp,sp,32
    80003fcc:	00008067          	ret

0000000080003fd0 <cpu_address_indirect_y>:
    80003fd0:	fe010113          	add	sp,sp,-32
    80003fd4:	00913423          	sd	s1,8(sp)
    80003fd8:	00177497          	auipc	s1,0x177
    80003fdc:	40048493          	add	s1,s1,1024 # 8017b3d8 <cpu>
    80003fe0:	0004d503          	lhu	a0,0(s1)
    80003fe4:	00113c23          	sd	ra,24(sp)
    80003fe8:	00813823          	sd	s0,16(sp)
    80003fec:	01213023          	sd	s2,0(sp)
    80003ff0:	a64fd0ef          	jal	80001254 <memory_readb>
    80003ff4:	00050913          	mv	s2,a0
    80003ff8:	0015051b          	addw	a0,a0,1
    80003ffc:	0ff57513          	zext.b	a0,a0
    80004000:	a54fd0ef          	jal	80001254 <memory_readb>
    80004004:	00050413          	mv	s0,a0
    80004008:	00090513          	mv	a0,s2
    8000400c:	a48fd0ef          	jal	80001254 <memory_readb>
    80004010:	0054c783          	lbu	a5,5(s1)
    80004014:	0084141b          	sllw	s0,s0,0x8
    80004018:	00856533          	or	a0,a0,s0
    8000401c:	00a7853b          	addw	a0,a5,a0
    80004020:	03051793          	sll	a5,a0,0x30
    80004024:	0307d793          	srl	a5,a5,0x30
    80004028:	00177417          	auipc	s0,0x177
    8000402c:	3a440413          	add	s0,s0,932 # 8017b3cc <op_address>
    80004030:	00078513          	mv	a0,a5
    80004034:	00f42023          	sw	a5,0(s0)
    80004038:	a1cfd0ef          	jal	80001254 <memory_readb>
    8000403c:	0004d783          	lhu	a5,0(s1)
    80004040:	00042703          	lw	a4,0(s0)
    80004044:	00177697          	auipc	a3,0x177
    80004048:	38a6a623          	sw	a0,908(a3) # 8017b3d0 <op_value>
    8000404c:	0017879b          	addw	a5,a5,1
    80004050:	03079793          	sll	a5,a5,0x30
    80004054:	0307d793          	srl	a5,a5,0x30
    80004058:	00f49023          	sh	a5,0(s1)
    8000405c:	40875713          	sra	a4,a4,0x8
    80004060:	0087d793          	srl	a5,a5,0x8
    80004064:	00f70c63          	beq	a4,a5,8000407c <cpu_address_indirect_y+0xac>
    80004068:	00177717          	auipc	a4,0x177
    8000406c:	36070713          	add	a4,a4,864 # 8017b3c8 <op_cycles>
    80004070:	00072783          	lw	a5,0(a4)
    80004074:	0017879b          	addw	a5,a5,1
    80004078:	00f72023          	sw	a5,0(a4)
    8000407c:	01813083          	ld	ra,24(sp)
    80004080:	01013403          	ld	s0,16(sp)
    80004084:	00813483          	ld	s1,8(sp)
    80004088:	00013903          	ld	s2,0(sp)
    8000408c:	02010113          	add	sp,sp,32
    80004090:	00008067          	ret

0000000080004094 <main>:
    80004094:	fe010113          	add	sp,sp,-32
    80004098:	00113c23          	sd	ra,24(sp)
    8000409c:	7a8000ef          	jal	80004844 <ioe_init>
    800040a0:	00001517          	auipc	a0,0x1
    800040a4:	e9850513          	add	a0,a0,-360 # 80004f38 <cpu_zn_flag_table+0x100>
    800040a8:	301000ef          	jal	80004ba8 <printf>
    800040ac:	00001797          	auipc	a5,0x1
    800040b0:	f7478793          	add	a5,a5,-140 # 80005020 <cpu_zn_flag_table+0x1e8>
    800040b4:	00001897          	auipc	a7,0x1
    800040b8:	ec488893          	add	a7,a7,-316 # 80004f78 <cpu_zn_flag_table+0x140>
    800040bc:	00001817          	auipc	a6,0x1
    800040c0:	ec480813          	add	a6,a6,-316 # 80004f80 <cpu_zn_flag_table+0x148>
    800040c4:	00001717          	auipc	a4,0x1
    800040c8:	ecc70713          	add	a4,a4,-308 # 80004f90 <cpu_zn_flag_table+0x158>
    800040cc:	00001697          	auipc	a3,0x1
    800040d0:	ecc68693          	add	a3,a3,-308 # 80004f98 <cpu_zn_flag_table+0x160>
    800040d4:	00001617          	auipc	a2,0x1
    800040d8:	ecc60613          	add	a2,a2,-308 # 80004fa0 <cpu_zn_flag_table+0x168>
    800040dc:	00001597          	auipc	a1,0x1
    800040e0:	ecc58593          	add	a1,a1,-308 # 80004fa8 <cpu_zn_flag_table+0x170>
    800040e4:	00f13023          	sd	a5,0(sp)
    800040e8:	00001517          	auipc	a0,0x1
    800040ec:	ec850513          	add	a0,a0,-312 # 80004fb0 <cpu_zn_flag_table+0x178>
    800040f0:	00001797          	auipc	a5,0x1
    800040f4:	e9878793          	add	a5,a5,-360 # 80004f88 <cpu_zn_flag_table+0x150>
    800040f8:	2b1000ef          	jal	80004ba8 <printf>
    800040fc:	00001517          	auipc	a0,0x1
    80004100:	f2c50513          	add	a0,a0,-212 # 80005028 <cpu_zn_flag_table+0x1f0>
    80004104:	2a5000ef          	jal	80004ba8 <printf>
    80004108:	00001517          	auipc	a0,0x1
    8000410c:	5b050513          	add	a0,a0,1456 # 800056b8 <rom_mario_nes>
    80004110:	264000ef          	jal	80004374 <fce_load_rom>
    80004114:	3d4000ef          	jal	800044e8 <fce_init>
    80004118:	400000ef          	jal	80004518 <fce_run>
    8000411c:	01813083          	ld	ra,24(sp)
    80004120:	00100513          	li	a0,1
    80004124:	02010113          	add	sp,sp,32
    80004128:	00008067          	ret

000000008000412c <mmc_read>:
    8000412c:	00129797          	auipc	a5,0x129
    80004130:	e8c78793          	add	a5,a5,-372 # 8012cfb8 <memory>
    80004134:	00a787b3          	add	a5,a5,a0
    80004138:	0007c503          	lbu	a0,0(a5)
    8000413c:	00008067          	ret

0000000080004140 <mmc_write>:
    80004140:	fe010113          	add	sp,sp,-32
    80004144:	00813823          	sd	s0,16(sp)
    80004148:	00913423          	sd	s1,8(sp)
    8000414c:	00113c23          	sd	ra,24(sp)
    80004150:	00177717          	auipc	a4,0x177
    80004154:	29474703          	lbu	a4,660(a4) # 8017b3e4 <mmc_id>
    80004158:	00300793          	li	a5,3
    8000415c:	00050493          	mv	s1,a0
    80004160:	00058413          	mv	s0,a1
    80004164:	02f70463          	beq	a4,a5,8000418c <mmc_write+0x4c>
    80004168:	00129797          	auipc	a5,0x129
    8000416c:	e5078793          	add	a5,a5,-432 # 8012cfb8 <memory>
    80004170:	00978533          	add	a0,a5,s1
    80004174:	00850023          	sb	s0,0(a0)
    80004178:	01813083          	ld	ra,24(sp)
    8000417c:	01013403          	ld	s0,16(sp)
    80004180:	00813483          	ld	s1,8(sp)
    80004184:	02010113          	add	sp,sp,32
    80004188:	00008067          	ret
    8000418c:	0035f793          	and	a5,a1,3
    80004190:	00d79793          	sll	a5,a5,0xd
    80004194:	00139597          	auipc	a1,0x139
    80004198:	e2458593          	add	a1,a1,-476 # 8013cfb8 <mmc_chr_pages>
    8000419c:	00f585b3          	add	a1,a1,a5
    800041a0:	00000513          	li	a0,0
    800041a4:	00002637          	lui	a2,0x2
    800041a8:	ae1fc0ef          	jal	80000c88 <ppu_copy>
    800041ac:	00129797          	auipc	a5,0x129
    800041b0:	e0c78793          	add	a5,a5,-500 # 8012cfb8 <memory>
    800041b4:	00978533          	add	a0,a5,s1
    800041b8:	00850023          	sb	s0,0(a0)
    800041bc:	01813083          	ld	ra,24(sp)
    800041c0:	01013403          	ld	s0,16(sp)
    800041c4:	00813483          	ld	s1,8(sp)
    800041c8:	02010113          	add	sp,sp,32
    800041cc:	00008067          	ret

00000000800041d0 <mmc_copy>:
    800041d0:	00129797          	auipc	a5,0x129
    800041d4:	de878793          	add	a5,a5,-536 # 8012cfb8 <memory>
    800041d8:	00a78533          	add	a0,a5,a0
    800041dc:	3790006f          	j	80004d54 <memcpy>

00000000800041e0 <mmc_append_chr_rom_page>:
    800041e0:	00177717          	auipc	a4,0x177
    800041e4:	20070713          	add	a4,a4,512 # 8017b3e0 <mmc_chr_pages_number>
    800041e8:	00072783          	lw	a5,0(a4)
    800041ec:	02f04463          	bgtz	a5,80004214 <mmc_append_chr_rom_page+0x34>
    800041f0:	00d79693          	sll	a3,a5,0xd
    800041f4:	00050593          	mv	a1,a0
    800041f8:	00139517          	auipc	a0,0x139
    800041fc:	dc050513          	add	a0,a0,-576 # 8013cfb8 <mmc_chr_pages>
    80004200:	0017879b          	addw	a5,a5,1
    80004204:	00002637          	lui	a2,0x2
    80004208:	00d50533          	add	a0,a0,a3
    8000420c:	00f72023          	sw	a5,0(a4)
    80004210:	3450006f          	j	80004d54 <memcpy>
    80004214:	ff010113          	add	sp,sp,-16
    80004218:	01d00613          	li	a2,29
    8000421c:	00001597          	auipc	a1,0x1
    80004220:	e4c58593          	add	a1,a1,-436 # 80005068 <cpu_zn_flag_table+0x230>
    80004224:	00001517          	auipc	a0,0x1
    80004228:	e7450513          	add	a0,a0,-396 # 80005098 <cpu_zn_flag_table+0x260>
    8000422c:	00113423          	sd	ra,8(sp)
    80004230:	179000ef          	jal	80004ba8 <printf>
    80004234:	00100513          	li	a0,1
    80004238:	54c000ef          	jal	80004784 <halt>

000000008000423c <psgio_read>:
    8000423c:	000047b7          	lui	a5,0x4
    80004240:	01678793          	add	a5,a5,22 # 4016 <_entry_offset+0x4016>
    80004244:	00f50663          	beq	a0,a5,80004250 <psgio_read+0x14>
    80004248:	00000513          	li	a0,0
    8000424c:	00008067          	ret
    80004250:	0000b697          	auipc	a3,0xb
    80004254:	47868693          	add	a3,a3,1144 # 8000f6c8 <p>
    80004258:	0006a703          	lw	a4,0(a3)
    8000425c:	00800613          	li	a2,8
    80004260:	0017079b          	addw	a5,a4,1
    80004264:	00f6a023          	sw	a5,0(a3)
    80004268:	fee640e3          	blt	a2,a4,80004248 <psgio_read+0xc>
    8000426c:	00001717          	auipc	a4,0x1
    80004270:	f3c70713          	add	a4,a4,-196 # 800051a8 <MAP>
    80004274:	00279793          	sll	a5,a5,0x2
    80004278:	00f707b3          	add	a5,a4,a5
    8000427c:	0007a703          	lw	a4,0(a5)
    80004280:	0013b797          	auipc	a5,0x13b
    80004284:	d3878793          	add	a5,a5,-712 # 8013efb8 <key_state>
    80004288:	00271713          	sll	a4,a4,0x2
    8000428c:	00e787b3          	add	a5,a5,a4
    80004290:	0007c503          	lbu	a0,0(a5)
    80004294:	00008067          	ret

0000000080004298 <psgio_write>:
    80004298:	000047b7          	lui	a5,0x4
    8000429c:	01678793          	add	a5,a5,22 # 4016 <_entry_offset+0x4016>
    800042a0:	0015f593          	and	a1,a1,1
    800042a4:	00177717          	auipc	a4,0x177
    800042a8:	14170713          	add	a4,a4,321 # 8017b3e5 <prev_write.0>
    800042ac:	00f50663          	beq	a0,a5,800042b8 <psgio_write+0x20>
    800042b0:	00b70023          	sb	a1,0(a4)
    800042b4:	00008067          	ret
    800042b8:	fe059ce3          	bnez	a1,800042b0 <psgio_write+0x18>
    800042bc:	00074683          	lbu	a3,0(a4)
    800042c0:	00100793          	li	a5,1
    800042c4:	fef696e3          	bne	a3,a5,800042b0 <psgio_write+0x18>
    800042c8:	0000b797          	auipc	a5,0xb
    800042cc:	4007a023          	sw	zero,1024(a5) # 8000f6c8 <p>
    800042d0:	fe1ff06f          	j	800042b0 <psgio_write+0x18>

00000000800042d4 <psg_detect_key>:
    800042d4:	fe010113          	add	sp,sp,-32
    800042d8:	00813823          	sd	s0,16(sp)
    800042dc:	00113c23          	sd	ra,24(sp)
    800042e0:	0013b417          	auipc	s0,0x13b
    800042e4:	cd840413          	add	s0,s0,-808 # 8013efb8 <key_state>
    800042e8:	0080006f          	j	800042f0 <psg_detect_key+0x1c>
    800042ec:	00d7a023          	sw	a3,0(a5)
    800042f0:	00810593          	add	a1,sp,8
    800042f4:	00800513          	li	a0,8
    800042f8:	59c000ef          	jal	80004894 <ioe_read>
    800042fc:	00c12703          	lw	a4,12(sp)
    80004300:	00814683          	lbu	a3,8(sp)
    80004304:	00271793          	sll	a5,a4,0x2
    80004308:	00f407b3          	add	a5,s0,a5
    8000430c:	fe0710e3          	bnez	a4,800042ec <psg_detect_key+0x18>
    80004310:	01813083          	ld	ra,24(sp)
    80004314:	01013403          	ld	s0,16(sp)
    80004318:	02010113          	add	sp,sp,32
    8000431c:	00008067          	ret

0000000080004320 <draw>:
    80004320:	0ff00793          	li	a5,255
    80004324:	04a7e663          	bltu	a5,a0,80004370 <draw+0x50>
    80004328:	0ef00793          	li	a5,239
    8000432c:	04b7e263          	bltu	a5,a1,80004370 <draw+0x50>
    80004330:	00177797          	auipc	a5,0x177
    80004334:	0d07a783          	lw	a5,208(a5) # 8017b400 <frame_cnt>
    80004338:	0017f793          	and	a5,a5,1
    8000433c:	02079a63          	bnez	a5,80004370 <draw+0x50>
    80004340:	00261613          	sll	a2,a2,0x2
    80004344:	00001797          	auipc	a5,0x1
    80004348:	26478793          	add	a5,a5,612 # 800055a8 <palette>
    8000434c:	00c787b3          	add	a5,a5,a2
    80004350:	0085959b          	sllw	a1,a1,0x8
    80004354:	0007a703          	lw	a4,0(a5)
    80004358:	00a585bb          	addw	a1,a1,a0
    8000435c:	00259593          	sll	a1,a1,0x2
    80004360:	0013b797          	auipc	a5,0x13b
    80004364:	05878793          	add	a5,a5,88 # 8013f3b8 <canvas>
    80004368:	00b787b3          	add	a5,a5,a1
    8000436c:	00e7a023          	sw	a4,0(a5)
    80004370:	00008067          	ret

0000000080004374 <fce_load_rom>:
    80004374:	fc010113          	add	sp,sp,-64
    80004378:	02913423          	sd	s1,40(sp)
    8000437c:	03213023          	sd	s2,32(sp)
    80004380:	02113c23          	sd	ra,56(sp)
    80004384:	01413823          	sd	s4,16(sp)
    80004388:	00177497          	auipc	s1,0x177
    8000438c:	07048493          	add	s1,s1,112 # 8017b3f8 <buf>
    80004390:	01050713          	add	a4,a0,16
    80004394:	00177917          	auipc	s2,0x177
    80004398:	05c90913          	add	s2,s2,92 # 8017b3f0 <fce_rom_header>
    8000439c:	00400613          	li	a2,4
    800043a0:	00001597          	auipc	a1,0x1
    800043a4:	d1858593          	add	a1,a1,-744 # 800050b8 <cpu_zn_flag_table+0x280>
    800043a8:	00e4b023          	sd	a4,0(s1)
    800043ac:	00a93023          	sd	a0,0(s2)
    800043b0:	235000ef          	jal	80004de4 <memcmp>
    800043b4:	0e051863          	bnez	a0,800044a4 <fce_load_rom+0x130>
    800043b8:	00093703          	ld	a4,0(s2)
    800043bc:	0004b583          	ld	a1,0(s1)
    800043c0:	00050a13          	mv	s4,a0
    800043c4:	00675783          	lhu	a5,6(a4)
    800043c8:	00474603          	lbu	a2,4(a4)
    800043cc:	00900713          	li	a4,9
    800043d0:	4047d79b          	sraw	a5,a5,0x4
    800043d4:	00f7f793          	and	a5,a5,15
    800043d8:	00e61693          	sll	a3,a2,0xe
    800043dc:	00d586b3          	add	a3,a1,a3
    800043e0:	00f75733          	srl	a4,a4,a5
    800043e4:	00177517          	auipc	a0,0x177
    800043e8:	00f50023          	sb	a5,0(a0) # 8017b3e4 <mmc_id>
    800043ec:	00d4b023          	sd	a3,0(s1)
    800043f0:	00177793          	and	a5,a4,1
    800043f4:	0a078863          	beqz	a5,800044a4 <fce_load_rom+0x130>
    800043f8:	02813823          	sd	s0,48(sp)
    800043fc:	01313c23          	sd	s3,24(sp)
    80004400:	00100793          	li	a5,1
    80004404:	0cf60063          	beq	a2,a5,800044c4 <fce_load_rom+0x150>
    80004408:	00008637          	lui	a2,0x8
    8000440c:	00008537          	lui	a0,0x8
    80004410:	dc1ff0ef          	jal	800041d0 <mmc_copy>
    80004414:	00093783          	ld	a5,0(s2)
    80004418:	0057c783          	lbu	a5,5(a5)
    8000441c:	06078263          	beqz	a5,80004480 <fce_load_rom+0x10c>
    80004420:	0004b403          	ld	s0,0(s1)
    80004424:	000027b7          	lui	a5,0x2
    80004428:	00f407b3          	add	a5,s0,a5
    8000442c:	00040513          	mv	a0,s0
    80004430:	00f4b023          	sd	a5,0(s1)
    80004434:	dadff0ef          	jal	800041e0 <mmc_append_chr_rom_page>
    80004438:	00002637          	lui	a2,0x2
    8000443c:	00040593          	mv	a1,s0
    80004440:	00000513          	li	a0,0
    80004444:	845fc0ef          	jal	80000c88 <ppu_copy>
    80004448:	00093703          	ld	a4,0(s2)
    8000444c:	00100793          	li	a5,1
    80004450:	00574703          	lbu	a4,5(a4)
    80004454:	02e7f663          	bgeu	a5,a4,80004480 <fce_load_rom+0x10c>
    80004458:	00100413          	li	s0,1
    8000445c:	000029b7          	lui	s3,0x2
    80004460:	0004b503          	ld	a0,0(s1)
    80004464:	0014041b          	addw	s0,s0,1
    80004468:	013507b3          	add	a5,a0,s3
    8000446c:	00f4b023          	sd	a5,0(s1)
    80004470:	d71ff0ef          	jal	800041e0 <mmc_append_chr_rom_page>
    80004474:	00093783          	ld	a5,0(s2)
    80004478:	0057c783          	lbu	a5,5(a5) # 2005 <_entry_offset+0x2005>
    8000447c:	fef442e3          	blt	s0,a5,80004460 <fce_load_rom+0xec>
    80004480:	03013403          	ld	s0,48(sp)
    80004484:	03813083          	ld	ra,56(sp)
    80004488:	01813983          	ld	s3,24(sp)
    8000448c:	02813483          	ld	s1,40(sp)
    80004490:	02013903          	ld	s2,32(sp)
    80004494:	000a0513          	mv	a0,s4
    80004498:	01013a03          	ld	s4,16(sp)
    8000449c:	04010113          	add	sp,sp,64
    800044a0:	00008067          	ret
    800044a4:	03813083          	ld	ra,56(sp)
    800044a8:	fff00a13          	li	s4,-1
    800044ac:	02813483          	ld	s1,40(sp)
    800044b0:	02013903          	ld	s2,32(sp)
    800044b4:	000a0513          	mv	a0,s4
    800044b8:	01013a03          	ld	s4,16(sp)
    800044bc:	04010113          	add	sp,sp,64
    800044c0:	00008067          	ret
    800044c4:	00004637          	lui	a2,0x4
    800044c8:	00008537          	lui	a0,0x8
    800044cc:	00b13423          	sd	a1,8(sp)
    800044d0:	d01ff0ef          	jal	800041d0 <mmc_copy>
    800044d4:	00813583          	ld	a1,8(sp)
    800044d8:	00004637          	lui	a2,0x4
    800044dc:	0000c537          	lui	a0,0xc
    800044e0:	cf1ff0ef          	jal	800041d0 <mmc_copy>
    800044e4:	f31ff06f          	j	80004414 <fce_load_rom+0xa0>

00000000800044e8 <fce_init>:
    800044e8:	ff010113          	add	sp,sp,-16
    800044ec:	00113423          	sd	ra,8(sp)
    800044f0:	d7cfe0ef          	jal	80002a6c <cpu_init>
    800044f4:	b05fc0ef          	jal	80000ff8 <ppu_init>
    800044f8:	00177797          	auipc	a5,0x177
    800044fc:	ef87b783          	ld	a5,-264(a5) # 8017b3f0 <fce_rom_header>
    80004500:	0067d503          	lhu	a0,6(a5)
    80004504:	00157513          	and	a0,a0,1
    80004508:	d31fc0ef          	jal	80001238 <ppu_set_mirroring>
    8000450c:	00813083          	ld	ra,8(sp)
    80004510:	01010113          	add	sp,sp,16
    80004514:	bf8ff06f          	j	8000390c <cpu_reset>

0000000080004518 <fce_run>:
    80004518:	fa010113          	add	sp,sp,-96
    8000451c:	00810593          	add	a1,sp,8
    80004520:	00600513          	li	a0,6
    80004524:	04913423          	sd	s1,72(sp)
    80004528:	05213023          	sd	s2,64(sp)
    8000452c:	03313c23          	sd	s3,56(sp)
    80004530:	03513423          	sd	s5,40(sp)
    80004534:	03613023          	sd	s6,32(sp)
    80004538:	04113c23          	sd	ra,88(sp)
    8000453c:	04813823          	sd	s0,80(sp)
    80004540:	03413823          	sd	s4,48(sp)
    80004544:	01713c23          	sd	s7,24(sp)
    80004548:	01813823          	sd	s8,16(sp)
    8000454c:	348000ef          	jal	80004894 <ioe_read>
    80004550:	00813a83          	ld	s5,8(sp)
    80004554:	3e800793          	li	a5,1000
    80004558:	00177917          	auipc	s2,0x177
    8000455c:	e9090913          	add	s2,s2,-368 # 8017b3e8 <gtime>
    80004560:	02fadab3          	divu	s5,s5,a5
    80004564:	3e800493          	li	s1,1000
    80004568:	00f00993          	li	s3,15
    8000456c:	3e800b13          	li	s6,1000
    80004570:	01592023          	sw	s5,0(s2)
    80004574:	000a8a9b          	sext.w	s5,s5
    80004578:	00000a13          	li	s4,0
    8000457c:	00810593          	add	a1,sp,8
    80004580:	00600513          	li	a0,6
    80004584:	310000ef          	jal	80004894 <ioe_read>
    80004588:	00813783          	ld	a5,8(sp)
    8000458c:	00092703          	lw	a4,0(s2)
    80004590:	0297d7b3          	divu	a5,a5,s1
    80004594:	40e7873b          	subw	a4,a5,a4
    80004598:	0007879b          	sext.w	a5,a5
    8000459c:	fee9d0e3          	bge	s3,a4,8000457c <fce_run+0x64>
    800045a0:	00f92023          	sw	a5,0(s2)
    800045a4:	10600413          	li	s0,262
    800045a8:	fff4041b          	addw	s0,s0,-1
    800045ac:	d68fc0ef          	jal	80000b14 <ppu_cycle>
    800045b0:	d25ff0ef          	jal	800042d4 <psg_detect_key>
    800045b4:	fe041ae3          	bnez	s0,800045a8 <fce_run+0x90>
    800045b8:	00810593          	add	a1,sp,8
    800045bc:	00600513          	li	a0,6
    800045c0:	2d4000ef          	jal	80004894 <ioe_read>
    800045c4:	00813b83          	ld	s7,8(sp)
    800045c8:	001a0a1b          	addw	s4,s4,1
    800045cc:	029bdbb3          	divu	s7,s7,s1
    800045d0:	415b87bb          	subw	a5,s7,s5
    800045d4:	000b8c1b          	sext.w	s8,s7
    800045d8:	faf4f2e3          	bgeu	s1,a5,8000457c <fce_run+0x64>
    800045dc:	05000413          	li	s0,80
    800045e0:	00800513          	li	a0,8
    800045e4:	fff4041b          	addw	s0,s0,-1
    800045e8:	18c000ef          	jal	80004774 <putch>
    800045ec:	fe041ae3          	bnez	s0,800045e0 <fce_run+0xc8>
    800045f0:	036bc5bb          	divw	a1,s7,s6
    800045f4:	000a0613          	mv	a2,s4
    800045f8:	00001517          	auipc	a0,0x1
    800045fc:	ac850513          	add	a0,a0,-1336 # 800050c0 <cpu_zn_flag_table+0x288>
    80004600:	000c0a93          	mv	s5,s8
    80004604:	5a4000ef          	jal	80004ba8 <printf>
    80004608:	f71ff06f          	j	80004578 <fce_run+0x60>

000000008000460c <fce_update_screen>:
    8000460c:	00177717          	auipc	a4,0x177
    80004610:	df470713          	add	a4,a4,-524 # 8017b400 <frame_cnt>
    80004614:	00072783          	lw	a5,0(a4)
    80004618:	0017879b          	addw	a5,a5,1
    8000461c:	00f72023          	sw	a5,0(a4)
    80004620:	0017f793          	and	a5,a5,1
    80004624:	00078463          	beqz	a5,8000462c <fce_update_screen+0x20>
    80004628:	00008067          	ret
    8000462c:	00004537          	lui	a0,0x4
    80004630:	fc010113          	add	sp,sp,-64
    80004634:	f0050513          	add	a0,a0,-256 # 3f00 <_entry_offset+0x3f00>
    80004638:	02113c23          	sd	ra,56(sp)
    8000463c:	02913423          	sd	s1,40(sp)
    80004640:	02813823          	sd	s0,48(sp)
    80004644:	a55fb0ef          	jal	80000098 <ppu_ram_read>
    80004648:	0005079b          	sext.w	a5,a0
    8000464c:	00001717          	auipc	a4,0x1
    80004650:	f5c70713          	add	a4,a4,-164 # 800055a8 <palette>
    80004654:	00279793          	sll	a5,a5,0x2
    80004658:	00f707b3          	add	a5,a4,a5
    8000465c:	00010593          	mv	a1,sp
    80004660:	00900513          	li	a0,9
    80004664:	0007a483          	lw	s1,0(a5)
    80004668:	22c000ef          	jal	80004894 <ioe_read>
    8000466c:	00412603          	lw	a2,4(sp)
    80004670:	00812783          	lw	a5,8(sp)
    80004674:	0fe00813          	li	a6,254
    80004678:	f006051b          	addw	a0,a2,-256 # 3f00 <_entry_offset+0x3f00>
    8000467c:	f107859b          	addw	a1,a5,-240
    80004680:	01f5569b          	srlw	a3,a0,0x1f
    80004684:	01f5d71b          	srlw	a4,a1,0x1f
    80004688:	00a686bb          	addw	a3,a3,a0
    8000468c:	00b7073b          	addw	a4,a4,a1
    80004690:	4016d69b          	sraw	a3,a3,0x1
    80004694:	4017571b          	sraw	a4,a4,0x1
    80004698:	08c85063          	bge	a6,a2,80004718 <fce_update_screen+0x10c>
    8000469c:	0ee00613          	li	a2,238
    800046a0:	06f65c63          	bge	a2,a5,80004718 <fce_update_screen+0x10c>
    800046a4:	00f00793          	li	a5,15
    800046a8:	02479793          	sll	a5,a5,0x24
    800046ac:	10078793          	add	a5,a5,256
    800046b0:	0013b417          	auipc	s0,0x13b
    800046b4:	d0840413          	add	s0,s0,-760 # 8013f3b8 <canvas>
    800046b8:	00f13823          	sd	a5,16(sp)
    800046bc:	00010593          	mv	a1,sp
    800046c0:	00100793          	li	a5,1
    800046c4:	00b00513          	li	a0,11
    800046c8:	00d12023          	sw	a3,0(sp)
    800046cc:	00e12223          	sw	a4,4(sp)
    800046d0:	00f10c23          	sb	a5,24(sp)
    800046d4:	00813423          	sd	s0,8(sp)
    800046d8:	1d8000ef          	jal	800048b0 <ioe_write>
    800046dc:	02049713          	sll	a4,s1,0x20
    800046e0:	02049793          	sll	a5,s1,0x20
    800046e4:	02075713          	srl	a4,a4,0x20
    800046e8:	00f76733          	or	a4,a4,a5
    800046ec:	00177697          	auipc	a3,0x177
    800046f0:	ccc68693          	add	a3,a3,-820 # 8017b3b8 <ppu_sprite_hit_occured>
    800046f4:	00040793          	mv	a5,s0
    800046f8:	00e7b023          	sd	a4,0(a5)
    800046fc:	00878793          	add	a5,a5,8
    80004700:	fed79ce3          	bne	a5,a3,800046f8 <fce_update_screen+0xec>
    80004704:	03813083          	ld	ra,56(sp)
    80004708:	03013403          	ld	s0,48(sp)
    8000470c:	02813483          	ld	s1,40(sp)
    80004710:	04010113          	add	sp,sp,64
    80004714:	00008067          	ret
    80004718:	00001417          	auipc	s0,0x1
    8000471c:	9c840413          	add	s0,s0,-1592 # 800050e0 <cpu_zn_flag_table+0x2a8>
    80004720:	04100513          	li	a0,65
    80004724:	050000ef          	jal	80004774 <putch>
    80004728:	00144503          	lbu	a0,1(s0)
    8000472c:	00140413          	add	s0,s0,1
    80004730:	fe051ae3          	bnez	a0,80004724 <fce_update_screen+0x118>
    80004734:	00001417          	auipc	s0,0x1
    80004738:	9bc40413          	add	s0,s0,-1604 # 800050f0 <cpu_zn_flag_table+0x2b8>
    8000473c:	07300513          	li	a0,115
    80004740:	034000ef          	jal	80004774 <putch>
    80004744:	00144503          	lbu	a0,1(s0)
    80004748:	00140413          	add	s0,s0,1
    8000474c:	fe051ae3          	bnez	a0,80004740 <fce_update_screen+0x134>
    80004750:	00001417          	auipc	s0,0x1
    80004754:	9b840413          	add	s0,s0,-1608 # 80005108 <cpu_zn_flag_table+0x2d0>
    80004758:	02000513          	li	a0,32
    8000475c:	018000ef          	jal	80004774 <putch>
    80004760:	00144503          	lbu	a0,1(s0)
    80004764:	00140413          	add	s0,s0,1
    80004768:	fe051ae3          	bnez	a0,8000475c <fce_update_screen+0x150>
    8000476c:	00100513          	li	a0,1
    80004770:	014000ef          	jal	80004784 <halt>

0000000080004774 <putch>:
    80004774:	00500793          	li	a5,5
    80004778:	01d79793          	sll	a5,a5,0x1d
    8000477c:	3ea78c23          	sb	a0,1016(a5)
    80004780:	00008067          	ret

0000000080004784 <halt>:
    80004784:	00050513          	mv	a0,a0
    80004788:	00100073          	ebreak
    8000478c:	0000006f          	j	8000478c <halt+0x8>

0000000080004790 <_trm_init>:
    80004790:	ff010113          	add	sp,sp,-16
    80004794:	00001517          	auipc	a0,0x1
    80004798:	f1c50513          	add	a0,a0,-228 # 800056b0 <mainargs>
    8000479c:	00113423          	sd	ra,8(sp)
    800047a0:	8f5ff0ef          	jal	80004094 <main>
    800047a4:	00050513          	mv	a0,a0
    800047a8:	00100073          	ebreak
    800047ac:	0000006f          	j	800047ac <_trm_init+0x1c>

00000000800047b0 <__am_timer_config>:
    800047b0:	00100793          	li	a5,1
    800047b4:	00f50023          	sb	a5,0(a0)
    800047b8:	00f500a3          	sb	a5,1(a0)
    800047bc:	00008067          	ret

00000000800047c0 <__am_input_config>:
    800047c0:	00100793          	li	a5,1
    800047c4:	00f50023          	sb	a5,0(a0)
    800047c8:	00008067          	ret

00000000800047cc <__am_uart_config>:
    800047cc:	00050023          	sb	zero,0(a0)
    800047d0:	00008067          	ret

00000000800047d4 <__am_net_config>:
    800047d4:	00050023          	sb	zero,0(a0)
    800047d8:	00008067          	ret

00000000800047dc <fail>:
    800047dc:	ff010113          	add	sp,sp,-16
    800047e0:	00813023          	sd	s0,0(sp)
    800047e4:	00113423          	sd	ra,8(sp)
    800047e8:	00001417          	auipc	s0,0x1
    800047ec:	8f840413          	add	s0,s0,-1800 # 800050e0 <cpu_zn_flag_table+0x2a8>
    800047f0:	00044503          	lbu	a0,0(s0)
    800047f4:	02051663          	bnez	a0,80004820 <fail+0x44>
    800047f8:	00001417          	auipc	s0,0x1
    800047fc:	94840413          	add	s0,s0,-1720 # 80005140 <cpu_zn_flag_table+0x308>
    80004800:	00044503          	lbu	a0,0(s0)
    80004804:	02051463          	bnez	a0,8000482c <fail+0x50>
    80004808:	00001417          	auipc	s0,0x1
    8000480c:	95840413          	add	s0,s0,-1704 # 80005160 <cpu_zn_flag_table+0x328>
    80004810:	00044503          	lbu	a0,0(s0)
    80004814:	02051263          	bnez	a0,80004838 <fail+0x5c>
    80004818:	00100513          	li	a0,1
    8000481c:	f69ff0ef          	jal	80004784 <halt>
    80004820:	f55ff0ef          	jal	80004774 <putch>
    80004824:	00140413          	add	s0,s0,1
    80004828:	fc9ff06f          	j	800047f0 <fail+0x14>
    8000482c:	f49ff0ef          	jal	80004774 <putch>
    80004830:	00140413          	add	s0,s0,1
    80004834:	fcdff06f          	j	80004800 <fail+0x24>
    80004838:	f3dff0ef          	jal	80004774 <putch>
    8000483c:	00140413          	add	s0,s0,1
    80004840:	fd1ff06f          	j	80004810 <fail+0x34>

0000000080004844 <ioe_init>:
    80004844:	ff010113          	add	sp,sp,-16
    80004848:	00113423          	sd	ra,8(sp)
    8000484c:	0000b797          	auipc	a5,0xb
    80004850:	e8478793          	add	a5,a5,-380 # 8000f6d0 <lut>
    80004854:	0000b717          	auipc	a4,0xb
    80004858:	27c70713          	add	a4,a4,636 # 8000fad0 <ppu_l_h_addition_flip_table>
    8000485c:	00000697          	auipc	a3,0x0
    80004860:	f8068693          	add	a3,a3,-128 # 800047dc <fail>
    80004864:	0007b603          	ld	a2,0(a5)
    80004868:	00061463          	bnez	a2,80004870 <ioe_init+0x2c>
    8000486c:	00d7b023          	sd	a3,0(a5)
    80004870:	00878793          	add	a5,a5,8
    80004874:	fee798e3          	bne	a5,a4,80004864 <ioe_init+0x20>
    80004878:	104000ef          	jal	8000497c <__am_gpu_init>
    8000487c:	038000ef          	jal	800048b4 <__am_timer_init>
    80004880:	238000ef          	jal	80004ab8 <__am_audio_init>
    80004884:	00813083          	ld	ra,8(sp)
    80004888:	00100513          	li	a0,1
    8000488c:	01010113          	add	sp,sp,16
    80004890:	00008067          	ret

0000000080004894 <ioe_read>:
    80004894:	00351713          	sll	a4,a0,0x3
    80004898:	0000b797          	auipc	a5,0xb
    8000489c:	e3878793          	add	a5,a5,-456 # 8000f6d0 <lut>
    800048a0:	00e787b3          	add	a5,a5,a4
    800048a4:	0007b783          	ld	a5,0(a5)
    800048a8:	00058513          	mv	a0,a1
    800048ac:	00078067          	jr	a5

00000000800048b0 <ioe_write>:
    800048b0:	fe5ff06f          	j	80004894 <ioe_read>

00000000800048b4 <__am_timer_init>:
    800048b4:	00500793          	li	a5,5
    800048b8:	01d79793          	sll	a5,a5,0x1d
    800048bc:	0487a703          	lw	a4,72(a5)
    800048c0:	00500793          	li	a5,5
    800048c4:	01d79793          	sll	a5,a5,0x1d
    800048c8:	04c78793          	add	a5,a5,76
    800048cc:	0007a783          	lw	a5,0(a5)
    800048d0:	02071713          	sll	a4,a4,0x20
    800048d4:	02075713          	srl	a4,a4,0x20
    800048d8:	02079793          	sll	a5,a5,0x20
    800048dc:	00e7e7b3          	or	a5,a5,a4
    800048e0:	00177717          	auipc	a4,0x177
    800048e4:	b2f73423          	sd	a5,-1240(a4) # 8017b408 <boot_time>
    800048e8:	00008067          	ret

00000000800048ec <__am_timer_uptime>:
    800048ec:	00500793          	li	a5,5
    800048f0:	01d79793          	sll	a5,a5,0x1d
    800048f4:	0487a703          	lw	a4,72(a5)
    800048f8:	00500793          	li	a5,5
    800048fc:	01d79793          	sll	a5,a5,0x1d
    80004900:	04c78793          	add	a5,a5,76
    80004904:	0007a783          	lw	a5,0(a5)
    80004908:	02071713          	sll	a4,a4,0x20
    8000490c:	02075713          	srl	a4,a4,0x20
    80004910:	02079793          	sll	a5,a5,0x20
    80004914:	00e7e7b3          	or	a5,a5,a4
    80004918:	00177717          	auipc	a4,0x177
    8000491c:	af073703          	ld	a4,-1296(a4) # 8017b408 <boot_time>
    80004920:	40e787b3          	sub	a5,a5,a4
    80004924:	00f53023          	sd	a5,0(a0)
    80004928:	00008067          	ret

000000008000492c <__am_timer_rtc>:
    8000492c:	76c00793          	li	a5,1900
    80004930:	00052a23          	sw	zero,20(a0)
    80004934:	00052823          	sw	zero,16(a0)
    80004938:	00052623          	sw	zero,12(a0)
    8000493c:	00052423          	sw	zero,8(a0)
    80004940:	00052223          	sw	zero,4(a0)
    80004944:	00f52023          	sw	a5,0(a0)
    80004948:	00008067          	ret

000000008000494c <__am_input_keybrd>:
    8000494c:	00500793          	li	a5,5
    80004950:	01d79793          	sll	a5,a5,0x1d
    80004954:	00052223          	sw	zero,4(a0)
    80004958:	06078793          	add	a5,a5,96
    8000495c:	0007a783          	lw	a5,0(a5)
    80004960:	0007879b          	sext.w	a5,a5
    80004964:	40f7d71b          	sraw	a4,a5,0xf
    80004968:	00177713          	and	a4,a4,1
    8000496c:	0ff7f793          	zext.b	a5,a5
    80004970:	00e50023          	sb	a4,0(a0)
    80004974:	00f52223          	sw	a5,4(a0)
    80004978:	00008067          	ret

000000008000497c <__am_gpu_init>:
    8000497c:	00500793          	li	a5,5
    80004980:	01d79793          	sll	a5,a5,0x1d
    80004984:	10078793          	add	a5,a5,256
    80004988:	0007a783          	lw	a5,0(a5)
    8000498c:	0107d79b          	srlw	a5,a5,0x10
    80004990:	00177717          	auipc	a4,0x177
    80004994:	a8f72023          	sw	a5,-1408(a4) # 8017b410 <w>
    80004998:	00008067          	ret

000000008000499c <__am_gpu_config>:
    8000499c:	00100793          	li	a5,1
    800049a0:	00f51023          	sh	a5,0(a0)
    800049a4:	00500793          	li	a5,5
    800049a8:	01d79793          	sll	a5,a5,0x1d
    800049ac:	00052223          	sw	zero,4(a0)
    800049b0:	00052423          	sw	zero,8(a0)
    800049b4:	00052623          	sw	zero,12(a0)
    800049b8:	10078793          	add	a5,a5,256
    800049bc:	0007a783          	lw	a5,0(a5)
    800049c0:	0107d71b          	srlw	a4,a5,0x10
    800049c4:	03079793          	sll	a5,a5,0x30
    800049c8:	0307d793          	srl	a5,a5,0x30
    800049cc:	00e52223          	sw	a4,4(a0)
    800049d0:	00f52423          	sw	a5,8(a0)
    800049d4:	00008067          	ret

00000000800049d8 <__am_gpu_fbdraw>:
    800049d8:	fc010113          	add	sp,sp,-64
    800049dc:	01513423          	sd	s5,8(sp)
    800049e0:	00177a97          	auipc	s5,0x177
    800049e4:	a30a8a93          	add	s5,s5,-1488 # 8017b410 <w>
    800049e8:	000aa783          	lw	a5,0(s5)
    800049ec:	02813823          	sd	s0,48(sp)
    800049f0:	00452403          	lw	s0,4(a0)
    800049f4:	03213023          	sd	s2,32(sp)
    800049f8:	01052903          	lw	s2,16(a0)
    800049fc:	02f4043b          	mulw	s0,s0,a5
    80004a00:	00052783          	lw	a5,0(a0)
    80004a04:	01413823          	sd	s4,16(sp)
    80004a08:	01613023          	sd	s6,0(sp)
    80004a0c:	00853a03          	ld	s4,8(a0)
    80004a10:	01452b03          	lw	s6,20(a0)
    80004a14:	02913423          	sd	s1,40(sp)
    80004a18:	01313c23          	sd	s3,24(sp)
    80004a1c:	02113c23          	sd	ra,56(sp)
    80004a20:	00050493          	mv	s1,a0
    80004a24:	00f4043b          	addw	s0,s0,a5
    80004a28:	0a100793          	li	a5,161
    80004a2c:	0024141b          	sllw	s0,s0,0x2
    80004a30:	01879793          	sll	a5,a5,0x18
    80004a34:	00f40433          	add	s0,s0,a5
    80004a38:	0029191b          	sllw	s2,s2,0x2
    80004a3c:	00000993          	li	s3,0
    80004a40:	0569c263          	blt	s3,s6,80004a84 <__am_gpu_fbdraw+0xac>
    80004a44:	0184c783          	lbu	a5,24(s1)
    80004a48:	00078a63          	beqz	a5,80004a5c <__am_gpu_fbdraw+0x84>
    80004a4c:	00500793          	li	a5,5
    80004a50:	01d79793          	sll	a5,a5,0x1d
    80004a54:	00100713          	li	a4,1
    80004a58:	10e7a223          	sw	a4,260(a5)
    80004a5c:	03813083          	ld	ra,56(sp)
    80004a60:	03013403          	ld	s0,48(sp)
    80004a64:	02813483          	ld	s1,40(sp)
    80004a68:	02013903          	ld	s2,32(sp)
    80004a6c:	01813983          	ld	s3,24(sp)
    80004a70:	01013a03          	ld	s4,16(sp)
    80004a74:	00813a83          	ld	s5,8(sp)
    80004a78:	00013b03          	ld	s6,0(sp)
    80004a7c:	04010113          	add	sp,sp,64
    80004a80:	00008067          	ret
    80004a84:	000a0593          	mv	a1,s4
    80004a88:	00040513          	mv	a0,s0
    80004a8c:	00090613          	mv	a2,s2
    80004a90:	2c4000ef          	jal	80004d54 <memcpy>
    80004a94:	000aa783          	lw	a5,0(s5)
    80004a98:	012a0a33          	add	s4,s4,s2
    80004a9c:	0019899b          	addw	s3,s3,1 # 2001 <_entry_offset+0x2001>
    80004aa0:	0027979b          	sllw	a5,a5,0x2
    80004aa4:	00f40433          	add	s0,s0,a5
    80004aa8:	f99ff06f          	j	80004a40 <__am_gpu_fbdraw+0x68>

0000000080004aac <__am_gpu_status>:
    80004aac:	00100793          	li	a5,1
    80004ab0:	00f50023          	sb	a5,0(a0)
    80004ab4:	00008067          	ret

0000000080004ab8 <__am_audio_init>:
    80004ab8:	00008067          	ret

0000000080004abc <__am_audio_config>:
    80004abc:	00050023          	sb	zero,0(a0)
    80004ac0:	00008067          	ret

0000000080004ac4 <__am_audio_ctrl>:
    80004ac4:	00008067          	ret

0000000080004ac8 <__am_audio_status>:
    80004ac8:	00052023          	sw	zero,0(a0)
    80004acc:	00008067          	ret

0000000080004ad0 <__am_audio_play>:
    80004ad0:	00008067          	ret

0000000080004ad4 <__am_disk_config>:
    80004ad4:	00050023          	sb	zero,0(a0)
    80004ad8:	00008067          	ret

0000000080004adc <__am_disk_status>:
    80004adc:	00008067          	ret

0000000080004ae0 <__am_disk_blkio>:
    80004ae0:	00008067          	ret

0000000080004ae4 <int2str>:
    80004ae4:	00051e63          	bnez	a0,80004b00 <int2str+0x1c>
    80004ae8:	03000793          	li	a5,48
    80004aec:	00f58023          	sb	a5,0(a1)
    80004af0:	00100793          	li	a5,1
    80004af4:	00100713          	li	a4,1
    80004af8:	00000693          	li	a3,0
    80004afc:	01c0006f          	j	80004b18 <int2str+0x34>
    80004b00:	08055063          	bgez	a0,80004b80 <int2str+0x9c>
    80004b04:	02d00793          	li	a5,45
    80004b08:	00f58023          	sb	a5,0(a1)
    80004b0c:	00000713          	li	a4,0
    80004b10:	00100793          	li	a5,1
    80004b14:	00100693          	li	a3,1
    80004b18:	00a00813          	li	a6,10
    80004b1c:	03000893          	li	a7,48
    80004b20:	0280006f          	j	80004b48 <int2str+0x64>
    80004b24:	0305663b          	remw	a2,a0,a6
    80004b28:	0ff67613          	zext.b	a2,a2
    80004b2c:	04068663          	beqz	a3,80004b78 <int2str+0x94>
    80004b30:	40c8863b          	subw	a2,a7,a2
    80004b34:	0305453b          	divw	a0,a0,a6
    80004b38:	00f58333          	add	t1,a1,a5
    80004b3c:	0ff67613          	zext.b	a2,a2
    80004b40:	00c30023          	sb	a2,0(t1)
    80004b44:	00178793          	add	a5,a5,1
    80004b48:	fc051ee3          	bnez	a0,80004b24 <int2str+0x40>
    80004b4c:	0007851b          	sext.w	a0,a5
    80004b50:	00d70733          	add	a4,a4,a3
    80004b54:	00d787bb          	addw	a5,a5,a3
    80004b58:	40e50733          	sub	a4,a0,a4
    80004b5c:	4017d79b          	sraw	a5,a5,0x1
    80004b60:	00e58733          	add	a4,a1,a4
    80004b64:	0006861b          	sext.w	a2,a3
    80004b68:	02f64063          	blt	a2,a5,80004b88 <int2str+0xa4>
    80004b6c:	00a585b3          	add	a1,a1,a0
    80004b70:	00058023          	sb	zero,0(a1)
    80004b74:	00008067          	ret
    80004b78:	0306061b          	addw	a2,a2,48
    80004b7c:	fb9ff06f          	j	80004b34 <int2str+0x50>
    80004b80:	00000793          	li	a5,0
    80004b84:	f71ff06f          	j	80004af4 <int2str+0x10>
    80004b88:	00d58633          	add	a2,a1,a3
    80004b8c:	00064883          	lbu	a7,0(a2)
    80004b90:	00074803          	lbu	a6,0(a4)
    80004b94:	00168693          	add	a3,a3,1
    80004b98:	01170023          	sb	a7,0(a4)
    80004b9c:	01060023          	sb	a6,0(a2)
    80004ba0:	fff70713          	add	a4,a4,-1
    80004ba4:	fc1ff06f          	j	80004b64 <int2str+0x80>

0000000080004ba8 <printf>:
    80004ba8:	d7010113          	add	sp,sp,-656
    80004bac:	26f13c23          	sd	a5,632(sp)
    80004bb0:	25810793          	add	a5,sp,600
    80004bb4:	24813023          	sd	s0,576(sp)
    80004bb8:	22913c23          	sd	s1,568(sp)
    80004bbc:	23213823          	sd	s2,560(sp)
    80004bc0:	23313423          	sd	s3,552(sp)
    80004bc4:	21513c23          	sd	s5,536(sp)
    80004bc8:	21613823          	sd	s6,528(sp)
    80004bcc:	21713423          	sd	s7,520(sp)
    80004bd0:	24113423          	sd	ra,584(sp)
    80004bd4:	23413023          	sd	s4,544(sp)
    80004bd8:	21813023          	sd	s8,512(sp)
    80004bdc:	00050913          	mv	s2,a0
    80004be0:	24b13c23          	sd	a1,600(sp)
    80004be4:	26c13023          	sd	a2,608(sp)
    80004be8:	26d13423          	sd	a3,616(sp)
    80004bec:	26e13823          	sd	a4,624(sp)
    80004bf0:	29013023          	sd	a6,640(sp)
    80004bf4:	29113423          	sd	a7,648(sp)
    80004bf8:	00f13023          	sd	a5,0(sp)
    80004bfc:	138000ef          	jal	80004d34 <strlen>
    80004c00:	00050993          	mv	s3,a0
    80004c04:	00000413          	li	s0,0
    80004c08:	00000493          	li	s1,0
    80004c0c:	02500a93          	li	s5,37
    80004c10:	06400b13          	li	s6,100
    80004c14:	07300b93          	li	s7,115
    80004c18:	0334ec63          	bltu	s1,s3,80004c50 <printf+0xa8>
    80004c1c:	24813083          	ld	ra,584(sp)
    80004c20:	00040513          	mv	a0,s0
    80004c24:	24013403          	ld	s0,576(sp)
    80004c28:	23813483          	ld	s1,568(sp)
    80004c2c:	23013903          	ld	s2,560(sp)
    80004c30:	22813983          	ld	s3,552(sp)
    80004c34:	22013a03          	ld	s4,544(sp)
    80004c38:	21813a83          	ld	s5,536(sp)
    80004c3c:	21013b03          	ld	s6,528(sp)
    80004c40:	20813b83          	ld	s7,520(sp)
    80004c44:	20013c03          	ld	s8,512(sp)
    80004c48:	29010113          	add	sp,sp,656
    80004c4c:	00008067          	ret
    80004c50:	00990c33          	add	s8,s2,s1
    80004c54:	000c4783          	lbu	a5,0(s8)
    80004c58:	0d579063          	bne	a5,s5,80004d18 <printf+0x170>
    80004c5c:	00090513          	mv	a0,s2
    80004c60:	00148a1b          	addw	s4,s1,1
    80004c64:	0d0000ef          	jal	80004d34 <strlen>
    80004c68:	0aaa7863          	bgeu	s4,a0,80004d18 <printf+0x170>
    80004c6c:	001c4783          	lbu	a5,1(s8)
    80004c70:	05679e63          	bne	a5,s6,80004ccc <printf+0x124>
    80004c74:	00013783          	ld	a5,0(sp)
    80004c78:	00810593          	add	a1,sp,8
    80004c7c:	00000c13          	li	s8,0
    80004c80:	0007a503          	lw	a0,0(a5)
    80004c84:	00878713          	add	a4,a5,8
    80004c88:	00e13023          	sd	a4,0(sp)
    80004c8c:	e59ff0ef          	jal	80004ae4 <int2str>
    80004c90:	00050493          	mv	s1,a0
    80004c94:	000c079b          	sext.w	a5,s8
    80004c98:	0097ce63          	blt	a5,s1,80004cb4 <printf+0x10c>
    80004c9c:	00048793          	mv	a5,s1
    80004ca0:	0004d463          	bgez	s1,80004ca8 <printf+0x100>
    80004ca4:	00000793          	li	a5,0
    80004ca8:	0087843b          	addw	s0,a5,s0
    80004cac:	001a049b          	addw	s1,s4,1
    80004cb0:	f69ff06f          	j	80004c18 <printf+0x70>
    80004cb4:	00810793          	add	a5,sp,8
    80004cb8:	018787b3          	add	a5,a5,s8
    80004cbc:	0007c503          	lbu	a0,0(a5)
    80004cc0:	001c0c13          	add	s8,s8,1
    80004cc4:	ab1ff0ef          	jal	80004774 <putch>
    80004cc8:	fcdff06f          	j	80004c94 <printf+0xec>
    80004ccc:	03779e63          	bne	a5,s7,80004d08 <printf+0x160>
    80004cd0:	00013783          	ld	a5,0(sp)
    80004cd4:	0007b483          	ld	s1,0(a5)
    80004cd8:	00878713          	add	a4,a5,8
    80004cdc:	00e13023          	sd	a4,0(sp)
    80004ce0:	00048793          	mv	a5,s1
    80004ce4:	0007c503          	lbu	a0,0(a5)
    80004ce8:	00178c13          	add	s8,a5,1
    80004cec:	00051863          	bnez	a0,80004cfc <printf+0x154>
    80004cf0:	409404bb          	subw	s1,s0,s1
    80004cf4:	00f4843b          	addw	s0,s1,a5
    80004cf8:	fb5ff06f          	j	80004cac <printf+0x104>
    80004cfc:	a79ff0ef          	jal	80004774 <putch>
    80004d00:	000c0793          	mv	a5,s8
    80004d04:	fe1ff06f          	j	80004ce4 <printf+0x13c>
    80004d08:	03579263          	bne	a5,s5,80004d2c <printf+0x184>
    80004d0c:	02500513          	li	a0,37
    80004d10:	a65ff0ef          	jal	80004774 <putch>
    80004d14:	f99ff06f          	j	80004cac <printf+0x104>
    80004d18:	000c4503          	lbu	a0,0(s8)
    80004d1c:	0014041b          	addw	s0,s0,1
    80004d20:	00048a13          	mv	s4,s1
    80004d24:	a51ff0ef          	jal	80004774 <putch>
    80004d28:	f85ff06f          	j	80004cac <printf+0x104>
    80004d2c:	fff00413          	li	s0,-1
    80004d30:	eedff06f          	j	80004c1c <printf+0x74>

0000000080004d34 <strlen>:
    80004d34:	00050793          	mv	a5,a0
    80004d38:	00000513          	li	a0,0
    80004d3c:	00a78733          	add	a4,a5,a0
    80004d40:	00074703          	lbu	a4,0(a4)
    80004d44:	00071463          	bnez	a4,80004d4c <strlen+0x18>
    80004d48:	00008067          	ret
    80004d4c:	00150513          	add	a0,a0,1
    80004d50:	fedff06f          	j	80004d3c <strlen+0x8>

0000000080004d54 <memcpy>:
    80004d54:	00050793          	mv	a5,a0
    80004d58:	00060663          	beqz	a2,80004d64 <memcpy+0x10>
    80004d5c:	0077f713          	and	a4,a5,7
    80004d60:	00071e63          	bnez	a4,80004d7c <memcpy+0x28>
    80004d64:	0075f713          	and	a4,a1,7
    80004d68:	00700693          	li	a3,7
    80004d6c:	02070e63          	beqz	a4,80004da8 <memcpy+0x54>
    80004d70:	00000713          	li	a4,0
    80004d74:	04e61c63          	bne	a2,a4,80004dcc <memcpy+0x78>
    80004d78:	00008067          	ret
    80004d7c:	0005c703          	lbu	a4,0(a1)
    80004d80:	00158593          	add	a1,a1,1
    80004d84:	00178793          	add	a5,a5,1
    80004d88:	fff60613          	add	a2,a2,-1
    80004d8c:	fee78fa3          	sb	a4,-1(a5)
    80004d90:	fc9ff06f          	j	80004d58 <memcpy+0x4>
    80004d94:	00e58833          	add	a6,a1,a4
    80004d98:	00083883          	ld	a7,0(a6)
    80004d9c:	00e78833          	add	a6,a5,a4
    80004da0:	00870713          	add	a4,a4,8
    80004da4:	01183023          	sd	a7,0(a6)
    80004da8:	40e60833          	sub	a6,a2,a4
    80004dac:	ff06e4e3          	bltu	a3,a6,80004d94 <memcpy+0x40>
    80004db0:	00365713          	srl	a4,a2,0x3
    80004db4:	ff800693          	li	a3,-8
    80004db8:	02d70733          	mul	a4,a4,a3
    80004dbc:	00e60633          	add	a2,a2,a4
    80004dc0:	40e585b3          	sub	a1,a1,a4
    80004dc4:	40e787b3          	sub	a5,a5,a4
    80004dc8:	fa9ff06f          	j	80004d70 <memcpy+0x1c>
    80004dcc:	00e586b3          	add	a3,a1,a4
    80004dd0:	0006c803          	lbu	a6,0(a3)
    80004dd4:	00e786b3          	add	a3,a5,a4
    80004dd8:	00170713          	add	a4,a4,1
    80004ddc:	01068023          	sb	a6,0(a3)
    80004de0:	f95ff06f          	j	80004d74 <memcpy+0x20>

0000000080004de4 <memcmp>:
    80004de4:	00000713          	li	a4,0
    80004de8:	00c71663          	bne	a4,a2,80004df4 <memcmp+0x10>
    80004dec:	00000513          	li	a0,0
    80004df0:	00008067          	ret
    80004df4:	00e507b3          	add	a5,a0,a4
    80004df8:	00e586b3          	add	a3,a1,a4
    80004dfc:	0007c783          	lbu	a5,0(a5)
    80004e00:	0006c683          	lbu	a3,0(a3)
    80004e04:	00d78663          	beq	a5,a3,80004e10 <memcmp+0x2c>
    80004e08:	40d7853b          	subw	a0,a5,a3
    80004e0c:	00008067          	ret
    80004e10:	00170713          	add	a4,a4,1
    80004e14:	fd5ff06f          	j	80004de8 <memcmp+0x4>
